(dp1
S'G'
ccopy_reg
_reconstructor
p2
(chypergraph
Hypergraph
p3
c__builtin__
object
p4
NtRp5
(dp6
S'_Hypergraph__edge_size'
p7
(lp8
I50
aI50
aI50
aI50
aI50
aI50
aI50
aI50
aI50
aI50
aI50
aI50
aI50
aI50
aI50
aI50
aI50
aI50
aI50
aI50
aI50
aI50
aI50
aI50
aI50
aI50
aI50
aI50
aI50
aI50
aI50
aI50
aI50
aI50
aI50
aI50
aI50
aI50
aI50
aI50
aI50
aI50
aI50
aI50
aI50
aI50
aI50
aI50
aI50
aI50
aI50
aI50
aI50
aI50
aI50
aI50
aI50
aI50
aI50
aI50
aI50
aI50
aI50
aI50
aI50
aI50
aI50
aI50
aI50
aI50
aI50
aI50
aI50
aI50
aI50
aI50
aI50
aI50
aI50
aI50
aI50
aI50
aI50
aI50
aI50
aI50
aI50
aI50
aI50
aI50
aI50
aI50
aI50
aI50
aI50
aI50
aI50
aI50
aI50
aI50
asS'_Hypergraph__label_to_edge'
p9
(dp10
S'24'
p11
I36
sS'25'
p12
I25
sS'26'
p13
I2
sS'27'
p14
I55
sS'20'
p15
I35
sS'21'
p16
I50
sS'22'
p17
I54
sS'23'
p18
I31
sS'28'
p19
I59
sS'29'
p20
I44
sS'0'
I0
sS'4'
I15
sS'8'
I29
sS'59'
p21
I95
sS'58'
p22
I26
sS'55'
p23
I52
sS'54'
p24
I88
sS'57'
p25
I62
sS'56'
p26
I97
sS'51'
p27
I46
sS'50'
p28
I48
sS'53'
p29
I68
sS'52'
p30
I82
sS'88'
p31
I70
sS'89'
p32
I18
sS'82'
p33
I61
sS'83'
p34
I77
sS'80'
p35
I93
sS'81'
p36
I11
sS'86'
p37
I74
sS'87'
p38
I66
sS'84'
p39
I79
sS'85'
p40
I98
sS'3'
I12
sS'7'
I40
sS'39'
p41
I37
sS'38'
p42
I69
sS'33'
p43
I58
sS'32'
p44
I21
sS'31'
p45
I57
sS'30'
p46
I42
sS'37'
p47
I23
sS'36'
p48
I75
sS'35'
p49
I81
sS'34'
p50
I67
sS'60'
p51
I89
sS'61'
p52
I64
sS'62'
p53
I27
sS'63'
p54
I86
sS'64'
p55
I10
sS'65'
p56
I73
sS'66'
p57
I38
sS'67'
p58
I96
sS'68'
p59
I71
sS'69'
p60
I28
sS'2'
I13
sS'6'
I17
sS'99'
p61
I47
sS'98'
p62
I83
sS'91'
p63
I85
sS'90'
p64
I78
sS'93'
p65
I90
sS'92'
p66
I63
sS'95'
p67
I99
sS'94'
p68
I49
sS'97'
p69
I60
sS'96'
p70
I22
sS'11'
p71
I4
sS'10'
p72
I41
sS'13'
p73
I8
sS'12'
p74
I45
sS'15'
p75
I1
sS'14'
p76
I19
sS'17'
p77
I14
sS'16'
p78
I32
sS'19'
p79
I20
sS'18'
p80
I33
sS'48'
p81
I84
sS'49'
p82
I39
sS'46'
p83
I87
sS'47'
p84
I72
sS'44'
p85
I9
sS'45'
p86
I34
sS'42'
p87
I5
sS'43'
p88
I6
sS'40'
p89
I24
sS'41'
p90
I51
sS'1'
I7
sS'5'
I16
sS'9'
I3
sS'77'
p91
I53
sS'76'
p92
I91
sS'75'
p93
I65
sS'74'
p94
I56
sS'73'
p95
I80
sS'72'
p96
I92
sS'71'
p97
I30
sS'70'
p98
I43
sS'79'
p99
I76
sS'78'
p100
I94
ssS'_Hypergraph__edge_to_label'
p101
(lp102
S'0'
ag75
ag13
aS'9'
ag71
ag87
ag88
aS'1'
ag73
ag85
ag55
ag36
aS'3'
aS'2'
ag77
aS'4'
aS'5'
aS'6'
ag32
ag76
ag79
ag44
ag70
ag47
ag89
ag12
ag22
ag53
ag60
aS'8'
ag97
ag18
ag78
ag80
ag86
ag15
ag11
ag41
ag57
ag82
aS'7'
ag72
ag46
ag98
ag20
ag74
ag27
ag61
ag28
ag68
ag16
ag90
ag23
ag91
ag17
ag14
ag94
ag45
ag43
ag19
ag69
ag33
ag25
ag66
ag52
ag93
ag38
ag50
ag29
ag42
ag31
ag59
ag84
ag56
ag37
ag48
ag99
ag34
ag64
ag39
ag95
ag49
ag30
ag62
ag81
ag63
ag54
ag83
ag24
ag51
ag65
ag92
ag96
ag35
ag100
ag21
ag58
ag26
ag40
ag67
asS'_Hypergraph__Zt'
p103
cnumpy.core.multiarray
_reconstruct
p104
(cnumpy
ndarray
p105
(I0
tS'b'
tRp106
(I1
(I100
tcnumpy
dtype
p107
(S'f8'
I0
I1
tRp108
(I3
S'<'
NNNI-1
I-1
I0
tbI00
S'\x00\x00\x00\x00\x00\x80H@\x00\x00\x00\x00\x00\x80H@\x00\x00\x00\x00\x00\x80H@\x00\x00\x00\x00\x00\x80H@\x00\x00\x00\x00\x00\x80H@\x00\x00\x00\x00\x00\x80H@\x00\x00\x00\x00\x00\x80H@\x00\x00\x00\x00\x00\x80H@\x00\x00\x00\x00\x00\x80H@\x00\x00\x00\x00\x00\x80H@\x00\x00\x00\x00\x00\x80H@\x00\x00\x00\x00\x00\x80H@\x00\x00\x00\x00\x00\x80H@\x00\x00\x00\x00\x00\x80H@\x00\x00\x00\x00\x00\x80H@\x00\x00\x00\x00\x00\x80H@\x00\x00\x00\x00\x00\x80H@\x00\x00\x00\x00\x00\x80H@\x00\x00\x00\x00\x00\x80H@\x00\x00\x00\x00\x00\x80H@\x00\x00\x00\x00\x00\x80H@\x00\x00\x00\x00\x00\x80H@\x00\x00\x00\x00\x00\x80H@\x00\x00\x00\x00\x00\x80H@\x00\x00\x00\x00\x00\x80H@\x00\x00\x00\x00\x00\x80H@\x00\x00\x00\x00\x00\x80H@\x00\x00\x00\x00\x00\x80H@\x00\x00\x00\x00\x00\x80H@\x00\x00\x00\x00\x00\x80H@\x00\x00\x00\x00\x00\x80H@\x00\x00\x00\x00\x00\x80H@\x00\x00\x00\x00\x00\x80H@\x00\x00\x00\x00\x00\x80H@\x00\x00\x00\x00\x00\x80H@\x00\x00\x00\x00\x00\x80H@\x00\x00\x00\x00\x00\x80H@\x00\x00\x00\x00\x00\x80H@\x00\x00\x00\x00\x00\x80H@\x00\x00\x00\x00\x00\x80H@\x00\x00\x00\x00\x00\x80H@\x00\x00\x00\x00\x00\x80H@\x00\x00\x00\x00\x00\x80H@\x00\x00\x00\x00\x00\x80H@\x00\x00\x00\x00\x00\x80H@\x00\x00\x00\x00\x00\x80H@\x00\x00\x00\x00\x00\x80H@\x00\x00\x00\x00\x00\x80H@\x00\x00\x00\x00\x00\x80H@\x00\x00\x00\x00\x00\x80H@\x00\x00\x00\x00\x00\x80H@\x00\x00\x00\x00\x00\x80H@\x00\x00\x00\x00\x00\x80H@\x00\x00\x00\x00\x00\x80H@\x00\x00\x00\x00\x00\x80H@\x00\x00\x00\x00\x00\x80H@\x00\x00\x00\x00\x00\x80H@\x00\x00\x00\x00\x00\x80H@\x00\x00\x00\x00\x00\x80H@\x00\x00\x00\x00\x00\x80H@\x00\x00\x00\x00\x00\x80H@\x00\x00\x00\x00\x00\x80H@\x00\x00\x00\x00\x00\x80H@\x00\x00\x00\x00\x00\x80H@\x00\x00\x00\x00\x00\x80H@\x00\x00\x00\x00\x00\x80H@\x00\x00\x00\x00\x00\x80H@\x00\x00\x00\x00\x00\x80H@\x00\x00\x00\x00\x00\x80H@\x00\x00\x00\x00\x00\x80H@\x00\x00\x00\x00\x00\x80H@\x00\x00\x00\x00\x00\x80H@\x00\x00\x00\x00\x00\x80H@\x00\x00\x00\x00\x00\x80H@\x00\x00\x00\x00\x00\x80H@\x00\x00\x00\x00\x00\x80H@\x00\x00\x00\x00\x00\x80H@\x00\x00\x00\x00\x00\x80H@\x00\x00\x00\x00\x00\x80H@\x00\x00\x00\x00\x00\x80H@\x00\x00\x00\x00\x00\x80H@\x00\x00\x00\x00\x00\x80H@\x00\x00\x00\x00\x00\x80H@\x00\x00\x00\x00\x00\x80H@\x00\x00\x00\x00\x00\x80H@\x00\x00\x00\x00\x00\x80H@\x00\x00\x00\x00\x00\x80H@\x00\x00\x00\x00\x00\x80H@\x00\x00\x00\x00\x00\x80H@\x00\x00\x00\x00\x00\x80H@\x00\x00\x00\x00\x00\x80H@\x00\x00\x00\x00\x00\x80H@\x00\x00\x00\x00\x00\x80H@\x00\x00\x00\x00\x00\x80H@\x00\x00\x00\x00\x00\x80H@\x00\x00\x00\x00\x00\x80H@\x00\x00\x00\x00\x00\x80H@\x00\x00\x00\x00\x00\x80H@\x00\x00\x00\x00\x00\x80H@\x00\x00\x00\x00\x00\x80H@'
tbsS'_Hypergraph__Z0'
p109
g104
(g105
(I0
tS'b'
tRp110
(I1
(I100
tg107
(S'i8'
I0
I1
tRp111
(I3
S'<'
NNNI-1
I-1
I0
tbI00
S'2\x00\x00\x00\x00\x00\x00\x002\x00\x00\x00\x00\x00\x00\x002\x00\x00\x00\x00\x00\x00\x002\x00\x00\x00\x00\x00\x00\x002\x00\x00\x00\x00\x00\x00\x002\x00\x00\x00\x00\x00\x00\x002\x00\x00\x00\x00\x00\x00\x002\x00\x00\x00\x00\x00\x00\x002\x00\x00\x00\x00\x00\x00\x002\x00\x00\x00\x00\x00\x00\x002\x00\x00\x00\x00\x00\x00\x002\x00\x00\x00\x00\x00\x00\x002\x00\x00\x00\x00\x00\x00\x002\x00\x00\x00\x00\x00\x00\x002\x00\x00\x00\x00\x00\x00\x002\x00\x00\x00\x00\x00\x00\x002\x00\x00\x00\x00\x00\x00\x002\x00\x00\x00\x00\x00\x00\x002\x00\x00\x00\x00\x00\x00\x002\x00\x00\x00\x00\x00\x00\x002\x00\x00\x00\x00\x00\x00\x002\x00\x00\x00\x00\x00\x00\x002\x00\x00\x00\x00\x00\x00\x002\x00\x00\x00\x00\x00\x00\x002\x00\x00\x00\x00\x00\x00\x002\x00\x00\x00\x00\x00\x00\x002\x00\x00\x00\x00\x00\x00\x002\x00\x00\x00\x00\x00\x00\x002\x00\x00\x00\x00\x00\x00\x002\x00\x00\x00\x00\x00\x00\x002\x00\x00\x00\x00\x00\x00\x002\x00\x00\x00\x00\x00\x00\x002\x00\x00\x00\x00\x00\x00\x002\x00\x00\x00\x00\x00\x00\x002\x00\x00\x00\x00\x00\x00\x002\x00\x00\x00\x00\x00\x00\x002\x00\x00\x00\x00\x00\x00\x002\x00\x00\x00\x00\x00\x00\x002\x00\x00\x00\x00\x00\x00\x002\x00\x00\x00\x00\x00\x00\x002\x00\x00\x00\x00\x00\x00\x002\x00\x00\x00\x00\x00\x00\x002\x00\x00\x00\x00\x00\x00\x002\x00\x00\x00\x00\x00\x00\x002\x00\x00\x00\x00\x00\x00\x002\x00\x00\x00\x00\x00\x00\x002\x00\x00\x00\x00\x00\x00\x002\x00\x00\x00\x00\x00\x00\x002\x00\x00\x00\x00\x00\x00\x002\x00\x00\x00\x00\x00\x00\x002\x00\x00\x00\x00\x00\x00\x002\x00\x00\x00\x00\x00\x00\x002\x00\x00\x00\x00\x00\x00\x002\x00\x00\x00\x00\x00\x00\x002\x00\x00\x00\x00\x00\x00\x002\x00\x00\x00\x00\x00\x00\x002\x00\x00\x00\x00\x00\x00\x002\x00\x00\x00\x00\x00\x00\x002\x00\x00\x00\x00\x00\x00\x002\x00\x00\x00\x00\x00\x00\x002\x00\x00\x00\x00\x00\x00\x002\x00\x00\x00\x00\x00\x00\x002\x00\x00\x00\x00\x00\x00\x002\x00\x00\x00\x00\x00\x00\x002\x00\x00\x00\x00\x00\x00\x002\x00\x00\x00\x00\x00\x00\x002\x00\x00\x00\x00\x00\x00\x002\x00\x00\x00\x00\x00\x00\x002\x00\x00\x00\x00\x00\x00\x002\x00\x00\x00\x00\x00\x00\x002\x00\x00\x00\x00\x00\x00\x002\x00\x00\x00\x00\x00\x00\x002\x00\x00\x00\x00\x00\x00\x002\x00\x00\x00\x00\x00\x00\x002\x00\x00\x00\x00\x00\x00\x002\x00\x00\x00\x00\x00\x00\x002\x00\x00\x00\x00\x00\x00\x002\x00\x00\x00\x00\x00\x00\x002\x00\x00\x00\x00\x00\x00\x002\x00\x00\x00\x00\x00\x00\x002\x00\x00\x00\x00\x00\x00\x002\x00\x00\x00\x00\x00\x00\x002\x00\x00\x00\x00\x00\x00\x002\x00\x00\x00\x00\x00\x00\x002\x00\x00\x00\x00\x00\x00\x002\x00\x00\x00\x00\x00\x00\x002\x00\x00\x00\x00\x00\x00\x002\x00\x00\x00\x00\x00\x00\x002\x00\x00\x00\x00\x00\x00\x002\x00\x00\x00\x00\x00\x00\x002\x00\x00\x00\x00\x00\x00\x002\x00\x00\x00\x00\x00\x00\x002\x00\x00\x00\x00\x00\x00\x002\x00\x00\x00\x00\x00\x00\x002\x00\x00\x00\x00\x00\x00\x002\x00\x00\x00\x00\x00\x00\x002\x00\x00\x00\x00\x00\x00\x002\x00\x00\x00\x00\x00\x00\x002\x00\x00\x00\x00\x00\x00\x002\x00\x00\x00\x00\x00\x00\x00'
tbsS'_Hypergraph__weights'
p112
g104
(g105
(I0
tS'b'
tRp113
(I1
(I100
tg108
I00
S'\x00\x00\x00\x00\x00\x00\xf0?\x00\x00\x00\x00\x00\x00\xf0?\x00\x00\x00\x00\x00\x00\xf0?\x00\x00\x00\x00\x00\x00\xf0?\x00\x00\x00\x00\x00\x00\xf0?\x00\x00\x00\x00\x00\x00\xf0?\x00\x00\x00\x00\x00\x00\xf0?\x00\x00\x00\x00\x00\x00\xf0?\x00\x00\x00\x00\x00\x00\xf0?\x00\x00\x00\x00\x00\x00\xf0?\x00\x00\x00\x00\x00\x00\xf0?\x00\x00\x00\x00\x00\x00\xf0?\x00\x00\x00\x00\x00\x00\xf0?\x00\x00\x00\x00\x00\x00\xf0?\x00\x00\x00\x00\x00\x00\xf0?\x00\x00\x00\x00\x00\x00\xf0?\x00\x00\x00\x00\x00\x00\xf0?\x00\x00\x00\x00\x00\x00\xf0?\x00\x00\x00\x00\x00\x00\xf0?\x00\x00\x00\x00\x00\x00\xf0?\x00\x00\x00\x00\x00\x00\xf0?\x00\x00\x00\x00\x00\x00\xf0?\x00\x00\x00\x00\x00\x00\xf0?\x00\x00\x00\x00\x00\x00\xf0?\x00\x00\x00\x00\x00\x00\xf0?\x00\x00\x00\x00\x00\x00\xf0?\x00\x00\x00\x00\x00\x00\xf0?\x00\x00\x00\x00\x00\x00\xf0?\x00\x00\x00\x00\x00\x00\xf0?\x00\x00\x00\x00\x00\x00\xf0?\x00\x00\x00\x00\x00\x00\xf0?\x00\x00\x00\x00\x00\x00\xf0?\x00\x00\x00\x00\x00\x00\xf0?\x00\x00\x00\x00\x00\x00\xf0?\x00\x00\x00\x00\x00\x00\xf0?\x00\x00\x00\x00\x00\x00\xf0?\x00\x00\x00\x00\x00\x00\xf0?\x00\x00\x00\x00\x00\x00\xf0?\x00\x00\x00\x00\x00\x00\xf0?\x00\x00\x00\x00\x00\x00\xf0?\x00\x00\x00\x00\x00\x00\xf0?\x00\x00\x00\x00\x00\x00\xf0?\x00\x00\x00\x00\x00\x00\xf0?\x00\x00\x00\x00\x00\x00\xf0?\x00\x00\x00\x00\x00\x00\xf0?\x00\x00\x00\x00\x00\x00\xf0?\x00\x00\x00\x00\x00\x00\xf0?\x00\x00\x00\x00\x00\x00\xf0?\x00\x00\x00\x00\x00\x00\xf0?\x00\x00\x00\x00\x00\x00\xf0?\x00\x00\x00\x00\x00\x00\xf0?\x00\x00\x00\x00\x00\x00\xf0?\x00\x00\x00\x00\x00\x00\xf0?\x00\x00\x00\x00\x00\x00\xf0?\x00\x00\x00\x00\x00\x00\xf0?\x00\x00\x00\x00\x00\x00\xf0?\x00\x00\x00\x00\x00\x00\xf0?\x00\x00\x00\x00\x00\x00\xf0?\x00\x00\x00\x00\x00\x00\xf0?\x00\x00\x00\x00\x00\x00\xf0?\x00\x00\x00\x00\x00\x00\xf0?\x00\x00\x00\x00\x00\x00\xf0?\x00\x00\x00\x00\x00\x00\xf0?\x00\x00\x00\x00\x00\x00\xf0?\x00\x00\x00\x00\x00\x00\xf0?\x00\x00\x00\x00\x00\x00\xf0?\x00\x00\x00\x00\x00\x00\xf0?\x00\x00\x00\x00\x00\x00\xf0?\x00\x00\x00\x00\x00\x00\xf0?\x00\x00\x00\x00\x00\x00\xf0?\x00\x00\x00\x00\x00\x00\xf0?\x00\x00\x00\x00\x00\x00\xf0?\x00\x00\x00\x00\x00\x00\xf0?\x00\x00\x00\x00\x00\x00\xf0?\x00\x00\x00\x00\x00\x00\xf0?\x00\x00\x00\x00\x00\x00\xf0?\x00\x00\x00\x00\x00\x00\xf0?\x00\x00\x00\x00\x00\x00\xf0?\x00\x00\x00\x00\x00\x00\xf0?\x00\x00\x00\x00\x00\x00\xf0?\x00\x00\x00\x00\x00\x00\xf0?\x00\x00\x00\x00\x00\x00\xf0?\x00\x00\x00\x00\x00\x00\xf0?\x00\x00\x00\x00\x00\x00\xf0?\x00\x00\x00\x00\x00\x00\xf0?\x00\x00\x00\x00\x00\x00\xf0?\x00\x00\x00\x00\x00\x00\xf0?\x00\x00\x00\x00\x00\x00\xf0?\x00\x00\x00\x00\x00\x00\xf0?\x00\x00\x00\x00\x00\x00\xf0?\x00\x00\x00\x00\x00\x00\xf0?\x00\x00\x00\x00\x00\x00\xf0?\x00\x00\x00\x00\x00\x00\xf0?\x00\x00\x00\x00\x00\x00\xf0?\x00\x00\x00\x00\x00\x00\xf0?\x00\x00\x00\x00\x00\x00\xf0?\x00\x00\x00\x00\x00\x00\xf0?\x00\x00\x00\x00\x00\x00\xf0?\x00\x00\x00\x00\x00\x00\xf0?\x00\x00\x00\x00\x00\x00\xf0?'
tbsS'_Hypergraph__edge_set'
p114
(lp115
c__builtin__
set
p116
((lp117
I0
aI1
aI2
aI3
aI4
aI5
aI6
aI7
aI8
aI9
aI10
aI11
aI12
aI13
aI14
aI15
aI16
aI17
aI18
aI19
aI20
aI21
aI22
aI23
aI24
aI25
aI26
aI27
aI28
aI29
aI30
aI31
aI32
aI33
aI34
aI35
aI36
aI37
aI38
aI39
aI40
aI41
aI42
aI43
aI44
aI45
aI46
aI47
aI48
aI49
atRp118
ag116
((lp119
I0
aI473
aI474
aI416
aI289
aI475
aI52
aI53
aI183
aI186
aI447
aI326
aI200
aI332
aI466
aI470
aI471
aI472
aI345
aI90
aI91
aI476
aI477
aI478
aI479
aI480
aI481
aI482
aI483
aI484
aI485
aI486
aI487
aI488
aI105
aI234
aI491
aI492
aI493
aI494
aI495
aI496
aI497
aI498
aI499
aI374
aI489
aI379
aI490
aI254
atRp120
ag116
((lp121
I0
aI516
aI812
aI650
aI145
aI19
aI23
aI24
aI667
aI669
aI800
aI801
aI802
aI803
aI804
aI805
aI806
aI807
aI808
aI809
aI810
aI811
aI684
aI813
aI814
aI815
aI176
aI689
aI818
aI819
aI820
aI821
aI822
aI823
aI824
aI825
aI570
aI827
aI828
aI829
aI816
aI334
aI727
aI603
aI348
aI817
aI610
aI356
aI826
aI500
atRp122
ag116
((lp123
I1
aI262
aI129
aI300
aI14
aI276
aI29
aI290
aI291
aI292
aI293
aI294
aI295
aI40
aI297
aI298
aI299
aI172
aI301
aI302
aI303
aI304
aI305
aI306
aI51
aI308
aI309
aI310
aI311
aI312
aI313
aI314
aI315
aI316
aI317
aI318
aI319
aI197
aI70
aI211
aI84
aI88
aI223
aI307
aI109
aI238
aI296
aI243
aI116
aI254
atRp124
ag116
((lp125
I1
aI363
aI260
aI7
aI17
aI19
aI27
aI32
aI33
aI298
aI49
aI372
aI194
aI197
aI70
aI331
aI78
aI83
aI377
aI91
aI350
aI351
aI352
aI353
aI354
aI355
aI356
aI357
aI358
aI359
aI360
aI361
aI362
aI235
aI364
aI365
aI366
aI367
aI368
aI369
aI370
aI371
aI116
aI373
aI374
aI375
aI376
aI249
aI378
aI379
atRp126
ag116
((lp127
I1280
aI1
aI1282
aI683
aI1284
aI1285
aI1286
aI1281
aI1288
aI1289
aI1290
aI1287
aI1292
aI1293
aI1294
aI1295
aI1296
aI1297
aI1298
aI1283
aI1300
aI661
aI1302
aI1303
aI1304
aI1305
aI154
aI1307
aI1308
aI1306
aI670
aI1063
aI1067
aI1309
aI304
aI180
aI1083
aI573
aI834
aI1291
aI71
aI585
aI83
aI1241
aI1120
aI571
aI492
aI1299
aI761
aI1301
atRp128
ag116
((lp129
I1
aI1323
aI518
aI1289
aI906
aI139
aI786
aI1043
aI795
aI1310
aI1311
aI1312
aI1313
aI1314
aI1315
aI1316
aI1317
aI1318
aI1319
aI1320
aI1321
aI1322
aI583
aI1324
aI1325
aI1326
aI1327
aI304
aI1329
aI1330
aI1331
aI1332
aI1333
aI1334
aI311
aI312
aI1337
aI1338
aI1339
aI199
aI1335
aI716
aI1328
aI1336
aI214
aI855
aI1240
aI741
aI1255
aI749
atRp130
ag116
((lp131
I2
aI3
aI4
aI8
aI9
aI11
aI13
aI14
aI18
aI22
aI27
aI28
aI31
aI32
aI42
aI43
aI44
aI45
aI47
aI48
aI50
aI51
aI52
aI53
aI54
aI55
aI56
aI57
aI58
aI59
aI60
aI61
aI62
aI63
aI64
aI65
aI66
aI67
aI68
aI69
aI70
aI71
aI72
aI73
aI74
aI75
aI76
aI77
aI78
aI79
atRp132
ag116
((lp133
I2
aI133
aI396
aI429
aI273
aI403
aI410
aI411
aI412
aI413
aI414
aI415
aI416
aI417
aI418
aI419
aI420
aI421
aI422
aI423
aI424
aI425
aI426
aI427
aI428
aI173
aI430
aI431
aI432
aI433
aI434
aI435
aI436
aI437
aI182
aI55
aI56
aI188
aI438
aI202
aI439
aI204
aI81
aI342
aI94
aI100
aI233
aI110
aI367
aI241
atRp134
ag116
((lp135
I2
aI900
aI1368
aI1300
aI1007
aI1309
aI1187
aI36
aI1323
aI222
aI824
aI1340
aI1341
aI1342
aI1343
aI1344
aI1345
aI1346
aI1347
aI1348
aI1349
aI1350
aI1351
aI1352
aI1353
aI1354
aI1355
aI1356
aI1357
aI1358
aI1359
aI1360
aI1361
aI1362
aI1363
aI1364
aI1365
aI1366
aI1367
aI88
aI1369
aI349
aI734
aI736
aI98
aI1259
aI1262
aI623
aI758
aI377
atRp136
ag116
((lp137
I386
aI3
aI1964
aI1037
aI1940
aI1941
aI1942
aI1943
aI1944
aI1945
aI1946
aI1947
aI1948
aI1949
aI1950
aI1951
aI1696
aI1953
aI162
aI1955
aI1956
aI1957
aI38
aI1959
aI1960
aI1961
aI1962
aI1963
aI300
aI1965
aI1966
aI477
aI1968
aI1969
aI1958
aI1952
aI323
aI1967
aI1954
aI1108
aI725
aI220
aI1757
aI224
aI1125
aI742
aI1271
aI632
aI1916
aI1877
atRp138
ag116
((lp139
I3
aI2476
aI2468
aI2450
aI2451
aI2452
aI2453
aI2454
aI2455
aI2456
aI2457
aI2458
aI2459
aI2460
aI2461
aI2462
aI1221
aI2464
aI2465
aI2466
aI2467
aI1060
aI2469
aI2470
aI2471
aI2472
aI2473
aI2474
aI2475
aI2092
aI2477
aI2478
aI2479
aI2358
aI2463
aI316
aI1854
aI1858
aI1219
aI1732
aI197
aI205
aI1618
aI595
aI1881
aI2148
aI102
aI1898
aI108
aI2425
atRp140
ag116
((lp141
I128
aI129
aI130
aI131
aI4
aI133
aI134
aI135
aI136
aI137
aI138
aI11
aI15
aI17
aI22
aI132
aI27
aI31
aI33
aI34
aI40
aI42
aI48
aI52
aI63
aI65
aI139
aI85
aI87
aI90
aI91
aI94
aI110
aI111
aI112
aI113
aI114
aI115
aI116
aI117
aI118
aI119
aI120
aI121
aI122
aI123
aI124
aI125
aI126
aI127
atRp142
ag116
((lp143
I5
aI8
aI9
aI11
aI17
aI21
aI22
aI26
aI29
aI46
aI50
aI52
aI54
aI56
aI58
aI64
aI67
aI73
aI75
aI77
aI80
aI81
aI82
aI83
aI84
aI85
aI86
aI87
aI88
aI89
aI90
aI91
aI92
aI93
aI94
aI95
aI96
aI97
aI98
aI99
aI100
aI101
aI102
aI103
aI104
aI105
aI106
aI107
aI108
aI109
atRp144
ag116
((lp145
I537
aI5
aI536
aI530
aI531
aI404
aI533
aI534
aI535
aI24
aI153
aI538
aI539
aI540
aI541
aI542
aI543
aI544
aI545
aI546
aI547
aI548
aI549
aI550
aI551
aI40
aI297
aI554
aI555
aI556
aI557
aI558
aI559
aI49
aI451
aI460
aI203
aI76
aI468
aI343
aI224
aI227
aI486
aI103
aI361
aI235
aI552
aI553
aI532
aI254
atRp146
ag116
((lp147
I7
aI140
aI13
aI142
aI143
aI16
aI145
aI146
aI147
aI148
aI149
aI150
aI151
aI152
aI153
aI26
aI155
aI156
aI154
aI158
aI159
aI160
aI33
aI162
aI163
aI164
aI165
aI166
aI167
aI168
aI41
aI135
aI45
aI47
aI49
aI57
aI66
aI161
aI141
aI95
aI144
aI102
aI103
aI107
aI111
aI157
aI117
aI169
aI124
aI126
atRp148
ag116
((lp149
I192
aI179
aI8
aI137
aI10
aI11
aI141
aI143
aI152
aI175
aI161
aI164
aI198
aI170
aI171
aI172
aI173
aI174
aI47
aI176
aI177
aI178
aI51
aI180
aI181
aI182
aI183
aI184
aI185
aI186
aI187
aI188
aI189
aI190
aI191
aI64
aI193
aI194
aI195
aI196
aI197
aI70
aI199
aI86
aI96
aI100
aI106
aI107
aI123
aI124
atRp150
ag116
((lp151
I131
aI132
aI8
aI11
aI140
aI145
aI23
aI24
aI219
aI38
aI180
aI202
aI63
aI228
aI198
aI225
aI200
aI201
aI74
aI203
aI204
aI205
aI206
aI79
aI208
aI209
aI210
aI83
aI212
aI213
aI214
aI215
aI216
aI217
aI218
aI207
aI220
aI221
aI222
aI223
aI224
aI97
aI226
aI227
aI100
aI229
aI103
aI105
aI211
aI126
atRp152
ag116
((lp153
I2690
aI2691
aI1284
aI2693
aI2694
aI2695
aI8
aI2697
aI2698
aI2699
aI2700
aI2701
aI2702
aI15
aI2704
aI2705
aI2706
aI2067
aI2708
aI2709
aI2710
aI2711
aI2712
aI1305
aI2714
aI2331
aI2716
aI2717
aI2718
aI2335
aI2715
aI296
aI426
aI1964
aI2696
aI1975
aI1083
aI2713
aI1227
aI465
aI2692
aI1110
aI2703
aI1003
aI936
aI2707
aI2036
aI2299
aI2719
aI765
atRp154
ag116
((lp155
I129
aI9
aI469
aI139
aI147
aI406
aI25
aI416
aI166
aI307
aI439
aI440
aI441
aI186
aI443
aI444
aI445
aI446
aI447
aI448
aI449
aI450
aI451
aI452
aI453
aI454
aI455
aI456
aI457
aI458
aI459
aI460
aI461
aI462
aI463
aI464
aI465
aI466
aI467
aI468
aI85
aI442
aI225
aI237
aI239
aI369
aI370
aI116
aI248
aI341
atRp156
ag116
((lp157
I619
aI260
aI150
aI9
aI142
aI17
aI278
aI601
aI27
aI554
aI45
aI49
aI64
aI460
aI610
aI590
aI591
aI592
aI209
aI594
aI595
aI596
aI597
aI598
aI599
aI600
aI345
aI602
aI603
aI604
aI605
aI606
aI607
aI608
aI609
aI482
aI611
aI612
aI613
aI614
aI593
aI488
aI105
aI618
aI615
aI236
aI616
aI371
aI617
aI121
atRp158
ag116
((lp159
I516
aI982
aI264
aI1004
aI10
aI140
aI1005
aI996
aI35
aI1009
aI1000
aI43
aI989
aI817
aI59
aI323
aI849
aI594
aI980
aI981
aI726
aI983
aI984
aI985
aI986
aI987
aI988
aI733
aI990
aI991
aI992
aI993
aI994
aI995
aI484
aI741
aI998
aI999
aI997
aI1001
aI1002
aI1003
aI876
aI493
aI1006
aI1007
aI1008
aI625
aI635
aI124
atRp160
ag116
((lp161
I2923
aI2056
aI10
aI1041
aI1050
aI2927
aI2907
aI171
aI2904
aI817
aI1339
aI1469
aI832
aI712
aI2763
aI1871
aI2900
aI2901
aI2902
aI2903
aI216
aI2905
aI2906
aI859
aI2908
aI2909
aI2910
aI2911
aI2912
aI2913
aI2914
aI2915
aI2916
aI2917
aI2918
aI2151
aI2920
aI2281
aI2922
aI2919
aI2924
aI2925
aI2926
aI893
aI2928
aI2929
aI2034
aI2921
aI122
aI2557
atRp162
ag116
((lp163
I128
aI1152
aI1154
aI1155
aI1156
aI1157
aI1158
aI1153
aI11
aI272
aI795
aI797
aI414
aI1159
aI556
aI49
aI565
aI321
aI1091
aI836
aI325
aI713
aI975
aI80
aI850
aI596
aI470
aI217
aI1130
aI1131
aI1132
aI1133
aI1134
aI1135
aI1136
aI1137
aI1138
aI1139
aI1140
aI1141
aI1142
aI1143
aI1144
aI1145
aI1146
aI1147
aI1148
aI1149
aI1150
aI1151
atRp164
ag116
((lp165
I642
aI1028
aI137
aI11
aI1045
aI1220
aI283
aI547
aI936
aI556
aI561
aI1204
aI1246
aI824
aI1226
aI1216
aI1248
aI964
aI1221
aI1222
aI1223
aI1224
aI1225
aI330
aI1227
aI1228
aI1229
aI1230
aI1231
aI1232
aI1233
aI1234
aI1235
aI1236
aI1237
aI1238
aI1239
aI1240
aI1241
aI1242
aI1243
aI1244
aI1245
aI990
aI1247
aI96
aI1249
aI233
aI1132
aI879
atRp166
ag116
((lp167
I258
aI771
aI132
aI261
aI774
aI519
aI648
aI777
aI778
aI779
aI780
aI13
aI782
aI783
aI784
aI785
aI786
aI787
aI788
aI149
aI150
aI23
aI792
aI772
aI794
aI795
aI796
aI797
aI798
aI773
aI781
aI775
aI791
aI304
aI776
aI790
aI54
aI799
aI189
aI65
aI323
aI332
aI525
aI336
aI642
aI770
aI501
aI793
aI382
aI789
atRp168
ag116
((lp169
I1282
aI1157
aI1031
aI1772
aI13
aI16
aI923
aI1565
aI1669
aI1696
aI167
aI426
aI1779
aI1789
aI1780
aI193
aI1763
aI472
aI1764
aI1502
aI1248
aI1761
aI1762
aI99
aI356
aI1765
aI1766
aI1767
aI1768
aI1769
aI1770
aI1771
aI1644
aI1773
aI1774
aI1775
aI1776
aI1777
aI1778
aI1139
aI884
aI1781
aI1782
aI1783
aI1784
aI1785
aI1786
aI1787
aI1788
aI1760
atRp170
ag116
((lp171
I1899
aI1285
aI14
aI271
aI657
aI1893
aI408
aI964
aI157
aI1883
aI808
aI1705
aI1450
aI1325
aI47
aI1328
aI1330
aI1894
aI68
aI1365
aI1880
aI1881
aI1882
aI1499
aI1884
aI1885
aI1886
aI1887
aI1888
aI1889
aI1890
aI1891
aI1892
aI1125
aI1254
aI1895
aI1896
aI1897
aI1898
aI306
aI1900
aI1901
aI1902
aI1903
aI1904
aI1905
aI1906
aI1907
aI1908
aI1909
atRp172
ag116
((lp173
I385
aI1030
aI393
aI1549
aI14
aI1167
aI1429
aI2116
aI2117
aI1699
aI1444
aI2090
aI2091
aI2092
aI1522
aI2094
aI2095
aI2096
aI2097
aI562
aI2099
aI2100
aI2101
aI2102
aI1545
aI2104
aI2105
aI2106
aI315
aI2108
aI2109
aI2110
aI2111
aI2112
aI2113
aI2114
aI2115
aI2093
aI709
aI2118
aI2119
aI2103
aI1484
aI206
aI1366
aI1119
aI2107
aI2098
aI626
aI635
atRp174
ag116
((lp175
I130
aI282
aI260
aI261
aI262
aI263
aI264
aI265
aI266
aI267
aI268
aI269
aI270
aI271
aI144
aI273
aI274
aI275
aI276
aI277
aI278
aI279
aI24
aI281
aI154
aI27
aI284
aI26
aI286
aI31
aI288
aI289
aI283
aI38
aI285
aI51
aI53
aI287
aI69
aI73
aI90
aI280
aI16
aI100
aI166
aI107
aI272
aI120
aI122
aI124
atRp176
ag116
((lp177
I2176
aI2177
aI2178
aI2179
aI1549
aI17
aI531
aI2159
aI549
aI124
aI947
aI954
aI572
aI2165
aI2174
aI711
aI2167
aI2172
aI980
aI470
aI2169
aI1752
aI226
aI99
aI2150
aI2151
aI2152
aI617
aI2154
aI2155
aI2156
aI2157
aI2158
aI239
aI2160
aI2161
aI2162
aI2163
aI2164
aI1397
aI2166
aI2153
aI2168
aI1748
aI2170
aI2171
aI1916
aI2173
aI1534
aI2175
atRp178
ag116
((lp179
I427
aI388
aI136
aI685
aI18
aI288
aI734
aI419
aI168
aI171
aI301
aI432
aI562
aI94
aI735
aI715
aI68
aI710
aI711
aI712
aI713
aI714
aI75
aI716
aI717
aI718
aI719
aI720
aI721
aI722
aI723
aI724
aI725
aI726
aI727
aI728
aI729
aI730
aI731
aI732
aI733
aI350
aI479
aI736
aI737
aI738
aI739
aI104
aI371
aI508
atRp180
ag116
((lp181
I512
aI513
aI514
aI515
aI516
aI517
aI518
aI519
aI264
aI521
aI522
aI523
aI524
aI525
aI526
aI527
aI528
aI529
aI20
aI22
aI26
aI30
aI163
aI303
aI520
aI54
aI446
aI194
aI467
aI87
aI88
aI473
aI224
aI507
aI230
aI233
aI362
aI108
aI500
aI501
aI502
aI503
aI504
aI505
aI506
aI251
aI508
aI509
aI510
aI511
atRp182
ag116
((lp183
I128
aI384
aI577
aI265
aI141
aI579
aI21
aI278
aI409
aI167
aI41
aI560
aI561
aI562
aI563
aI564
aI565
aI566
aI567
aI568
aI185
aI570
aI571
aI572
aI573
aI318
aI575
aI576
aI449
aI578
aI195
aI580
aI581
aI582
aI583
aI584
aI585
aI586
aI587
aI588
aI589
aI463
aI80
aI569
aI90
aI232
aI372
aI574
aI378
aI253
atRp184
ag116
((lp185
I22
aI1159
aI1388
aI1040
aI790
aI801
aI1371
aI554
aI1394
aI560
aI690
aI691
aI1396
aI571
aI1397
aI1377
aI590
aI1104
aI977
aI1370
aI1243
aI1372
aI1373
aI1374
aI1375
aI1376
aI1249
aI1378
aI1379
aI1380
aI1381
aI1382
aI1383
aI1384
aI1385
aI1386
aI1387
aI236
aI1389
aI1390
aI1391
aI1392
aI1393
aI498
aI1395
aI628
aI245
aI1398
aI1399
aI255
atRp186
ag116
((lp187
I640
aI641
aI642
aI643
aI644
aI517
aI646
aI647
aI136
aI265
aI394
aI23
aI540
aI645
aI551
aI40
aI559
aI433
aI178
aI648
aI181
aI649
aI313
aI67
aI208
aI213
aI342
aI219
aI348
aI228
aI620
aI621
aI622
aI623
aI624
aI625
aI626
aI627
aI628
aI629
aI630
aI631
aI632
aI633
aI634
aI635
aI636
aI637
aI638
aI639
atRp188
ag116
((lp189
I768
aI769
aI427
aI398
aI749
aI146
aI24
aI70
aI747
aI296
aI553
aI43
aI557
aI575
aI704
aI710
aI714
aI759
aI465
aI222
aI766
aI227
aI740
aI741
aI742
aI231
aI744
aI745
aI746
aI743
aI748
aI365
aI750
aI751
aI752
aI753
aI754
aI755
aI756
aI757
aI758
aI375
aI760
aI761
aI762
aI763
aI764
aI765
aI510
aI767
atRp190
ag116
((lp191
I385
aI299
aI1217
aI1032
aI527
aI771
aI536
aI25
aI30
aI805
aI1190
aI1191
aI1192
aI1193
aI1194
aI683
aI1196
aI1197
aI1198
aI1199
aI1200
aI1201
aI1202
aI1203
aI1204
aI1195
aI54
aI1207
aI1208
aI1209
aI1210
aI1211
aI1212
aI1213
aI1086
aI1205
aI1216
aI961
aI1218
aI1219
aI1206
aI586
aI844
aI1123
aI997
aI1214
aI115
aI757
aI1215
aI1022
atRp192
ag116
((lp193
I256
aI2021
aI779
aI2029
aI914
aI25
aI410
aI2019
aI49
aI2012
aI1579
aI1457
aI306
aI2016
aI2017
aI971
aI2018
aI206
aI2000
aI2001
aI2002
aI2003
aI2004
aI2005
aI2006
aI2007
aI2008
aI2009
aI2010
aI2011
aI1116
aI2013
aI2014
aI2015
aI1888
aI1121
aI1378
aI995
aI2020
aI1765
aI2022
aI2023
aI2024
aI2025
aI1002
aI2027
aI2028
aI621
aI501
aI2026
atRp194
ag116
((lp195
I771
aI1165
aI790
aI1305
aI26
aI1186
aI804
aI1500
aI431
aI1328
aI1203
aI1461
aI1208
aI186
aI1353
aI330
aI1506
aI1490
aI1491
aI1492
aI1493
aI1494
aI1495
aI1496
aI1497
aI1498
aI1499
aI604
aI1501
aI1502
aI1503
aI1504
aI1505
aI1378
aI1507
aI1508
aI1509
aI1510
aI1511
aI1512
aI1513
aI1130
aI1515
aI1516
aI1517
aI1518
aI1519
aI1270
aI1143
aI1514
atRp196
ag116
((lp197
I256
aI257
aI258
aI259
aI236
aI147
aI152
aI154
aI27
aI30
aI164
aI166
aI168
aI169
aI43
aI44
aI190
aI66
aI74
aI207
aI210
aI219
aI223
aI229
aI230
aI231
aI232
aI233
aI234
aI235
aI108
aI237
aI238
aI239
aI240
aI241
aI242
aI243
aI244
aI245
aI246
aI247
aI248
aI249
aI250
aI251
aI252
aI253
aI254
aI255
atRp198
ag116
((lp199
I129
aI263
aI138
aI141
aI146
aI147
aI333
aI27
aI347
aI38
aI48
aI308
aI314
aI266
aI63
aI320
aI321
aI322
aI323
aI324
aI325
aI326
aI327
aI328
aI329
aI330
aI331
aI332
aI77
aI334
aI269
aI336
aI337
aI338
aI339
aI340
aI341
aI342
aI343
aI344
aI345
aI346
aI335
aI348
aI349
aI226
aI229
aI233
aI242
aI249
atRp200
ag116
((lp201
I516
aI389
aI902
aI394
aI396
aI398
aI941
aI920
aI921
aI922
aI27
aI924
aI925
aI926
aI927
aI928
aI929
aI930
aI923
aI932
aI933
aI678
aI935
aI936
aI937
aI938
aI939
aI940
aI301
aI942
aI943
aI944
aI945
aI946
aI947
aI948
aI949
aI694
aI824
aI189
aI706
aI710
aI931
aI654
aI855
aI601
aI97
aI934
aI874
aI247
atRp202
ag116
((lp203
I2148
aI1673
aI1879
aI1933
aI1683
aI407
aI29
aI800
aI1059
aI1060
aI1835
aI818
aI1588
aI1592
aI2110
aI2120
aI2121
aI2122
aI2123
aI2124
aI2125
aI2126
aI2127
aI2128
aI2129
aI2130
aI2131
aI2132
aI2133
aI2134
aI2007
aI2136
aI2137
aI2138
aI2139
aI2140
aI2141
aI2142
aI2143
aI2144
aI2145
aI2146
aI2147
aI356
aI2149
aI231
aI1138
aI1397
aI2135
aI1662
atRp204
ag116
((lp205
I640
aI769
aI386
aI899
aI516
aI901
aI902
aI897
aI904
aI905
aI906
aI907
aI908
aI898
aI910
aI911
aI912
aI913
aI914
aI915
aI404
aI917
aI534
aI919
aI900
aI155
aI30
aI896
aI423
aI903
aI431
aI918
aI311
aI315
aI451
aI909
aI602
aI891
aI101
aI109
aI893
aI501
aI630
aI916
aI890
aI379
aI892
aI509
aI894
aI895
atRp206
ag116
((lp207
I384
aI385
aI386
aI387
aI388
aI389
aI390
aI391
aI392
aI393
aI394
aI395
aI396
aI397
aI398
aI399
aI400
aI401
aI402
aI403
aI404
aI366
aI406
aI407
aI408
aI409
aI156
aI286
aI160
aI294
aI39
aI405
aI298
aI175
aI176
aI205
aI337
aI338
aI90
aI380
aI236
aI238
aI367
aI368
aI117
aI377
aI124
aI381
aI382
aI383
atRp208
ag116
((lp209
I1579
aI905
aI1550
aI1551
aI1552
aI657
aI1554
aI1555
aI276
aI1557
aI1558
aI1559
aI1560
aI1561
aI1562
aI1563
aI1564
aI1565
aI1566
aI1567
aI1568
aI1569
aI1570
aI931
aI1572
aI1573
aI1574
aI39
aI1576
aI1577
aI1578
aI427
aI430
aI184
aI57
aI699
aI1349
aI590
aI975
aI1272
aI1571
aI1115
aI1378
aI1553
aI1575
aI754
aI1139
aI1399
aI888
aI1556
atRp210
ag116
((lp211
I1282
aI902
aI2073
aI1055
aI2993
aI2983
aI40
aI1580
aI2994
aI2990
aI2991
aI2992
aI1713
aI1842
aI2995
aI2996
aI2997
aI2998
aI2999
aI3000
aI3001
aI3002
aI287
aI3004
aI3005
aI3006
aI3007
aI3008
aI3009
aI3010
aI3011
aI3012
aI3013
aI3014
aI3015
aI3016
aI3017
aI3018
aI3019
aI206
aI1743
aI341
aI215
aI2397
aI2782
aI3003
aI489
aI620
aI1521
aI1151
atRp212
ag116
((lp213
I640
aI1024
aI1538
aI1283
aI1540
aI1541
aI1542
aI1537
aI1544
aI1545
aI1546
aI1547
aI1548
aI1549
aI1539
aI280
aI542
aI368
aI41
aI1543
aI818
aI1536
aI1524
aI1479
aI1096
aI329
aI1527
aI78
aI92
aI1534
aI356
aI1532
aI490
aI1132
aI1520
aI1521
aI1522
aI1523
aI1012
aI1525
aI1526
aI119
aI1528
aI1529
aI1530
aI1531
aI1404
aI1533
aI894
aI1535
atRp214
ag116
((lp215
I179
aI2860
aI2862
aI2840
aI2841
aI2842
aI2843
aI2844
aI2845
aI2846
aI1439
aI2848
aI2849
aI2850
aI291
aI2852
aI2853
aI2854
aI2727
aI2856
aI2857
aI2858
aI2859
aI300
aI2861
aI46
aI2863
aI48
aI2865
aI2866
aI2227
aI2868
aI2869
aI567
aI2847
aI2249
aI2771
aI215
aI2776
aI2867
aI347
aI2653
aI1251
aI2535
aI2855
aI1645
aI631
aI2851
aI2864
aI1919
atRp216
ag116
((lp217
I259
aI662
aI647
aI650
aI651
aI652
aI653
aI654
aI655
aI656
aI657
aI402
aI643
aI660
aI149
aI661
aI663
aI536
aI665
aI666
aI667
aI668
aI669
aI670
aI671
aI672
aI673
aI674
aI675
aI676
aI677
aI678
aI679
aI296
aI48
aI435
aI331
aI587
aI461
aI81
aI469
aI664
aI362
aI658
aI112
aI626
aI659
aI504
aI122
aI405
atRp218
ag116
((lp219
I1152
aI513
aI386
aI1259
aI266
aI917
aI154
aI1050
aI926
aI1254
aI164
aI297
aI50
aI1082
aI1219
aI1271
aI333
aI980
aI598
aI1115
aI1250
aI1251
aI1252
aI1253
aI614
aI743
aI1256
aI1257
aI1258
aI1255
aI1260
aI1261
aI1262
aI1263
aI1264
aI1265
aI1266
aI1267
aI1268
aI1269
aI1270
aI247
aI1272
aI1273
aI1274
aI1275
aI1276
aI1277
aI1278
aI1279
atRp220
ag116
((lp221
I771
aI1670
aI1671
aI1672
aI1673
aI1674
aI1675
aI1676
aI1037
aI1678
aI1679
aI1680
aI1681
aI1682
aI1683
aI788
aI1685
aI1686
aI1431
aI1688
aI1689
aI1050
aI1691
aI1692
aI1690
aI1694
aI1695
aI1696
aI1697
aI1698
aI1699
aI1393
aI680
aI1065
aI1693
aI50
aI1212
aI1341
aI706
aI452
aI1349
aI968
aI1677
aI1374
aI251
aI107
aI1687
aI1137
aI1684
aI763
atRp222
ag116
((lp223
I1282
aI526
aI1425
aI2195
aI2330
aI2331
aI2332
aI2333
aI2334
aI671
aI2336
aI2337
aI2338
aI163
aI2340
aI2341
aI166
aI2343
aI2344
aI2345
aI2346
aI2347
aI2348
aI2349
aI2350
aI1583
aI2352
aI2353
aI2226
aI2355
aI52
aI2357
aI54
aI2359
aI2356
aI2234
aI571
aI1854
aI2358
aI710
aI1479
aI2351
aI2339
aI2354
aI475
aI1119
aI100
aI2342
aI2335
aI2303
atRp224
ag116
((lp225
I647
aI268
aI273
aI403
aI687
aI676
aI168
aI169
aI298
aI683
aI684
aI685
aI686
aI559
aI688
aI689
aI690
aI691
aI692
aI693
aI694
aI695
aI696
aI441
aI698
aI699
aI700
aI701
aI702
aI703
aI704
aI705
aI706
aI707
aI708
aI709
aI198
aI697
aI202
aI76
aI82
aI598
aI57
aI496
aI680
aI681
aI506
aI508
aI682
aI383
atRp226
ag116
((lp227
I513
aI645
aI661
aI152
aI540
aI773
aI677
aI839
aI429
aI841
aI58
aI830
aI831
aI832
aI833
aI834
aI835
aI836
aI837
aI838
aI71
aI840
aI73
aI842
aI843
aI844
aI845
aI846
aI847
aI848
aI593
aI466
aI851
aI852
aI853
aI854
aI855
aI856
aI857
aI858
aI859
aI476
aI849
aI744
aI361
aI748
aI850
aI114
aI630
aI575
atRp228
ag116
((lp229
I1159
aI392
aI907
aI140
aI910
aI1040
aI2243
aI1820
aI2268
aI1585
aI2249
aI59
aI1599
aI2240
aI2241
aI2242
aI1987
aI2244
aI2245
aI2246
aI2247
aI2248
aI1097
aI2250
aI2251
aI2252
aI2253
aI2254
aI2255
aI2256
aI1873
aI2258
aI2259
aI596
aI2261
aI2262
aI2263
aI2264
aI2265
aI2266
aI2267
aI1884
aI2269
aI2143
aI97
aI1894
aI2257
aI745
aI502
aI2260
atRp230
ag116
((lp231
I964
aI346
aI926
aI546
aI977
aI954
aI173
aI93
aI950
aI951
aI312
aI953
aI570
aI955
aI956
aI957
aI62
aI959
aI960
aI961
aI962
aI963
aI196
aI965
aI966
aI967
aI968
aI969
aI970
aI971
aI972
aI717
aI974
aI973
aI976
aI952
aI978
aI979
aI84
aI218
aI91
aI698
aI735
aI229
aI975
aI359
aI879
aI372
aI958
aI758
atRp232
ag116
((lp233
I896
aI897
aI1026
aI1027
aI516
aI1029
aI1030
aI1025
aI1032
aI1033
aI394
aI1035
aI1036
aI1037
aI1038
aI1039
aI534
aI791
aI1028
aI155
aI413
aI751
aI1024
aI424
aI1031
aI189
aI439
aI829
aI63
aI326
aI1034
aI89
aI358
aI746
aI238
aI239
aI1010
aI1011
aI1012
aI1013
aI1014
aI1015
aI1016
aI1017
aI1018
aI1019
aI1020
aI1021
aI1022
aI1023
atRp234
ag116
((lp235
I881
aI861
aI520
aI662
aI884
aI113
aI93
aI184
aI756
aI186
aI66
aI74
aI866
aI846
aI872
aI867
aI854
aI347
aI860
aI733
aI862
aI863
aI864
aI865
aI354
aI355
aI868
aI869
aI870
aI871
aI488
aI873
aI874
aI875
aI876
aI877
aI878
aI879
aI880
aI497
aI882
aI883
aI372
aI885
aI886
aI887
aI888
aI889
aI123
aI254
atRp236
ag116
((lp237
I2944
aI2945
aI2946
aI1923
aI2948
aI2949
aI2950
aI2951
aI2952
aI2953
aI1418
aI2955
aI2956
aI2957
aI2958
aI2959
aI2940
aI530
aI2947
aI2933
aI283
aI412
aI2722
aI1705
aI2230
aI2873
aI2954
aI2165
aI67
aI965
aI1095
aI205
aI857
aI2537
aI1133
aI1521
aI2930
aI2931
aI2932
aI373
aI2934
aI2935
aI2936
aI2937
aI2938
aI2939
aI1276
aI2941
aI2942
aI2943
atRp238
ag116
((lp239
I2176
aI2483
aI1799
aI1675
aI2498
aI2319
aI917
aI2502
aI1756
aI1326
aI2480
aI2481
aI2482
aI1075
aI2484
aI2485
aI2486
aI2487
aI824
aI2489
aI2490
aI2491
aI2492
aI2493
aI2494
aI2495
aI2496
aI2497
aI450
aI2499
aI2500
aI2501
aI70
aI2503
aI2504
aI2505
aI2506
aI2507
aI2508
aI1229
aI846
aI2509
aI2488
aI598
aI216
aI2268
aI96
aI1511
aI2294
aI2431
atRp240
ag116
((lp241
I1154
aI1739
aI1751
aI1735
aI1684
aI1174
aI670
aI1755
aI809
aI711
aI684
aI1587
aI1758
aI1759
aI1730
aI1731
aI1732
aI1733
aI1734
aI71
aI1736
aI1737
aI1738
aI587
aI1740
aI589
aI1742
aI1741
aI1744
aI1745
aI1746
aI1747
aI1748
aI1749
aI1750
aI215
aI1752
aI1753
aI1754
aI1743
aI1756
aI1757
aI862
aI1247
aI1001
aI1646
aI497
aI1523
aI169
aI378
atRp242
ag116
((lp243
I2795
aI775
aI1933
aI783
aI2799
aI2802
aI2789
aI2782
aI951
aI244
aI2235
aI2805
aI71
aI1865
aI2807
aI2804
aI1229
aI2128
aI2809
aI2780
aI2781
aI990
aI2143
aI2784
aI2785
aI2786
aI2787
aI2788
aI229
aI2790
aI871
aI2792
aI1897
aI2794
aI1511
aI2796
aI2797
aI2798
aI2791
aI2800
aI2801
aI1522
aI2803
aI500
aI885
aI2806
aI2793
aI2808
aI2783
aI1790
atRp244
ag116
((lp245
I524
aI405
aI539
aI156
aI1861
aI1442
aI679
aI1864
aI1850
aI1851
aI572
aI1853
aI1854
aI1855
aI1856
aI1857
aI1858
aI1859
aI1860
aI1349
aI1862
aI1863
aI328
aI1865
aI74
aI1867
aI1868
aI1698
aI1870
aI1869
aI1872
aI1873
aI1874
aI1107
aI724
aI1877
aI1878
aI1879
aI89
aI1242
aI1871
aI95
aI1124
aI1852
aI1866
aI1875
aI1876
aI1788
aI1021
aI1023
atRp246
ag116
((lp247
I2283
aI136
aI526
aI656
aI543
aI160
aI2226
aI309
aI1974
aI2282
aI202
aI74
aI2295
aI972
aI1357
aI2131
aI596
aI601
aI1373
aI2270
aI2271
aI2272
aI2273
aI2274
aI2275
aI2276
aI2277
aI2278
aI1255
aI2280
aI1001
aI234
aI2279
aI2284
aI2285
aI2286
aI2287
aI2288
aI2289
aI2290
aI2291
aI2292
aI2293
aI2294
aI2281
aI2296
aI2297
aI2298
aI2299
aI893
atRp248
ag116
((lp249
I1545
aI2442
aI2647
aI652
aI2648
aI1554
aI2455
aI804
aI2630
aI2632
aI2657
aI447
aI2112
aI321
aI2635
aI1222
aI2631
aI1096
aI2633
aI2634
aI75
aI2636
aI2637
aI2638
aI2639
aI336
aI2641
aI2642
aI2643
aI852
aI2645
aI2646
aI2391
aI1880
aI2649
aI2650
aI2651
aI2652
aI2653
aI2654
aI2655
aI2656
aI2640
aI2658
aI2659
aI748
aI2165
aI2644
aI1275
aI764
atRp250
ag116
((lp251
I262
aI264
aI267
aI781
aI1039
aI1040
aI1041
aI1042
aI1043
aI1044
aI1045
aI1046
aI1047
aI1048
aI1049
aI154
aI1051
aI1052
aI1050
aI1054
aI1055
aI1056
aI1057
aI162
aI1058
aI1060
aI293
aI806
aI1063
aI1064
aI1065
aI1066
aI1067
aI1068
aI1069
aI1053
aI438
aI845
aI973
aI77
aI848
aI1059
aI121
aI856
aI1061
aI1062
aI486
aI871
aI113
aI761
atRp252
ag116
((lp253
I1637
aI652
aI655
aI785
aI1298
aI1625
aI1616
aI1183
aI1635
aI1573
aI297
aI1457
aI1634
aI1631
aI1473
aI1346
aI1633
aI1610
aI1611
aI1612
aI1613
aI1614
aI1615
aI1360
aI1617
aI1618
aI1619
aI1620
aI1621
aI1622
aI1623
aI1624
aI729
aI1626
aI1627
aI1628
aI1629
aI1630
aI869
aI1632
aI993
aI994
aI1507
aI996
aI357
aI1638
aI1639
aI80
aI1636
aI1400
atRp254
ag116
((lp255
I257
aI1160
aI777
aI1162
aI1163
aI652
aI1165
aI1166
aI1167
aI1168
aI1169
aI402
aI1171
aI1172
aI1173
aI1174
aI1175
aI1176
aI1177
aI154
aI155
aI1180
aI1178
aI1182
aI1183
aI1184
aI1185
aI1186
aI1179
aI1188
aI1189
aI551
aI680
aI812
aI1181
aI1161
aI587
aI1170
aI1164
aI843
aI82
aI1187
aI601
aI1124
aI869
aI1000
aI850
aI750
aI241
aI501
atRp256
ag116
((lp257
I2688
aI2689
aI2667
aI265
aI751
aI1437
aI2591
aI800
aI1447
aI2088
aI2687
aI1090
aI328
aI2121
aI82
aI1240
aI2660
aI2671
aI2661
aI1632
aI2529
aI2683
aI1252
aI2405
aI2662
aI1383
aI2664
aI2665
aI2666
aI2663
aI2668
aI2669
aI2670
aI623
aI2672
aI2673
aI2674
aI2675
aI2676
aI2677
aI2678
aI2679
aI2680
aI2681
aI2682
aI379
aI2684
aI2685
aI2686
aI639
atRp258
ag116
((lp259
I1792
aI652
aI2061
aI2062
aI2063
aI2064
aI2065
aI2066
aI403
aI532
aI2069
aI2070
aI2071
aI2072
aI2073
aI2074
aI2075
aI2076
aI2077
aI2078
aI2079
aI544
aI2081
aI2082
aI2083
aI2084
aI2085
aI2086
aI2087
aI2088
aI809
aI562
aI946
aI183
aI1721
aI314
aI2080
aI2060
aI1867
aI84
aI1370
aI1117
aI606
aI996
aI1001
aI1387
aI2067
aI2089
aI2068
aI2046
atRp260
ag116
((lp261
I1293
aI1169
aI914
aI1430
aI1431
aI1432
aI1433
aI1434
aI667
aI1436
aI1437
aI1438
aI1439
aI1440
aI496
aI802
aI1435
aI1444
aI1445
aI1446
aI1447
aI1448
aI1449
aI1322
aI1451
aI1452
aI1453
aI1454
aI1455
aI1456
aI1457
aI1458
aI1459
aI437
aI572
aI1087
aI1441
aI1442
aI1443
aI341
aI90
aI360
aI316
aI752
aI625
aI377
aI507
aI252
aI1450
aI1279
atRp262
ag116
((lp263
I1031
aI144
aI1170
aI1990
aI1970
aI1326
aI818
aI1971
aI1972
aI1973
aI1974
aI1975
aI1464
aI1652
aI1978
aI479
aI1980
aI1981
aI574
aI1983
aI1984
aI1140
aI1986
aI1987
aI1988
aI1989
aI582
aI1991
aI1992
aI1993
aI1994
aI1995
aI1996
aI1997
aI1998
aI1999
aI440
aI1976
aI1977
aI94
aI351
aI1985
aI1979
aI1766
aI1255
aI489
aI628
aI1982
aI251
aI1279
atRp264
ag116
((lp265
I1920
aI2306
aI2625
aI1965
aI2628
aI924
aI2605
aI417
aI2600
aI2601
aI2602
aI2603
aI2604
aI1453
aI2606
aI2607
aI2608
aI2609
aI2610
aI2611
aI1460
aI2613
aI2614
aI2615
aI2616
aI2612
aI2618
aI955
aI828
aI2621
aI2622
aI1343
aI2624
aI1089
aI2626
aI2627
aI324
aI2629
aI1360
aI2258
aI2617
aI1245
aI97
aI2619
aI2620
aI1388
aI2286
aI2623
aI2429
aI639
atRp266
ag116
((lp267
I784
aI791
aI664
aI286
aI837
aI549
aI170
aI427
aI561
aI755
aI1122
aI444
aI1091
aI374
aI966
aI1121
aI1100
aI1101
aI1102
aI1103
aI336
aI1105
aI1106
aI1107
aI1108
aI1109
aI1110
aI1111
aI1112
aI1113
aI1114
aI1115
aI1116
aI1117
aI1118
aI1119
aI1120
aI1104
aI98
aI1123
aI1124
aI1125
aI1126
aI1127
aI1128
aI1129
aI748
aI371
aI885
aI502
atRp268
ag116
((lp269
I513
aI1154
aI1412
aI392
aI2062
aI2417
aI2326
aI2393
aI1055
aI2416
aI805
aI2405
aI556
aI1332
aI1474
aI2406
aI1097
aI2252
aI980
aI2390
aI2391
aI2392
aI2009
aI2394
aI2395
aI2396
aI2397
aI2398
aI2399
aI2400
aI2401
aI2402
aI2403
aI2404
aI1509
aI102
aI2407
aI1128
aI1257
aI2410
aI2411
aI2412
aI2413
aI2414
aI2415
aI2160
aI2408
aI2418
aI2419
aI2409
atRp270
ag116
((lp271
I896
aI2536
aI391
aI1928
aI621
aI2511
aI2522
aI2523
aI297
aI2533
aI812
aI2487
aI1723
aI190
aI2243
aI1734
aI2510
aI2255
aI2512
aI2513
aI2514
aI2515
aI2516
aI2517
aI2518
aI2519
aI2520
aI2521
aI1498
aI1807
aI2524
aI2525
aI2526
aI863
aI2528
aI2529
aI2530
aI2531
aI2532
aI613
aI2534
aI2535
aI104
aI2409
aI2538
aI2539
aI2029
aI625
aI2527
aI2537
atRp272
ag116
((lp273
I1282
aI1288
aI655
aI401
aI2734
aI151
aI285
aI2720
aI2721
aI2722
aI2723
aI2724
aI2725
aI2726
aI2727
aI2728
aI2729
aI2346
aI2731
aI2732
aI2733
aI1454
aI2735
aI2736
aI2737
aI2738
aI2739
aI2740
aI2741
aI2742
aI2743
aI2744
aI2745
aI2746
aI2747
aI2748
aI2109
aI1214
aI2165
aI1763
aI616
aI2540
aI109
aI2749
aI2161
aI190
aI2152
aI2043
aI2684
aI2730
atRp274
ag116
((lp275
I2560
aI2561
aI2562
aI2563
aI2564
aI2565
aI1286
aI2567
aI2568
aI2569
aI1549
aI1645
aI1810
aI1698
aI676
aI2566
aI2472
aI2480
aI1352
aI2547
aI2271
aI2236
aI1989
aI2247
aI456
aI971
aI728
aI2141
aI2527
aI1381
aI2540
aI2541
aI2542
aI2543
aI2544
aI2545
aI2546
aI115
aI2548
aI2549
aI2550
aI2551
aI2552
aI2553
aI2554
aI2555
aI2556
aI2557
aI2558
aI2559
atRp276
ag116
((lp277
I772
aI647
aI268
aI399
aI2207
aI2210
aI2211
aI2212
aI2213
aI2214
aI2215
aI2216
aI1244
aI2218
aI2219
aI2220
aI2221
aI2222
aI2223
aI2224
aI2225
aI2226
aI2227
aI2228
aI1461
aI2230
aI2231
aI2232
aI2233
aI2234
aI1211
aI2236
aI2235
aI2238
aI2229
aI454
aI1994
aI204
aI1105
aI598
aI346
aI1243
aI604
aI1635
aI1126
aI2237
aI116
aI1526
aI2217
aI2239
atRp278
ag116
((lp279
I1088
aI1089
aI392
aI1034
aI140
aI784
aI1048
aI281
aI156
aI1093
aI935
aI1070
aI1071
aI1072
aI1073
aI1074
aI1075
aI1076
aI1077
aI694
aI1079
aI1080
aI313
aI1082
aI187
aI1084
aI1085
aI1086
aI1087
aI320
aI833
aI1090
aI1091
aI1092
aI1078
aI1094
aI1095
aI328
aI1097
aI1098
aI1099
aI597
aI1081
aI1083
aI1000
aI753
aI117
aI121
aI1096
aI635
atRp280
ag116
((lp281
I130
aI1284
aI262
aI1601
aI1546
aI523
aI145
aI1583
aI1605
aI1192
aI1580
aI1581
aI1582
aI1455
aI1584
aI1585
aI1586
aI1587
aI1588
aI1589
aI1590
aI1207
aI1592
aI1593
aI1594
aI1595
aI1596
aI1597
aI1598
aI1599
aI1600
aI193
aI1602
aI1603
aI1604
aI1477
aI1606
aI1607
aI1608
aI969
aI1591
aI463
aI1501
aI1609
aI1121
aI866
aI1252
aI1261
aI372
aI1022
atRp282
ag116
((lp283
I2566
aI138
aI269
aI2960
aI2961
aI2962
aI2963
aI2964
aI2965
aI2966
aI2967
aI2968
aI2969
aI2970
aI2971
aI2972
aI218
aI1694
aI2975
aI2976
aI2977
aI2978
aI2979
aI2980
aI2981
aI2982
aI2983
aI2984
aI2985
aI2986
aI2987
aI2988
aI2989
aI2973
aI2974
aI2360
aI1851
aI703
aI1859
aI1732
aI1349
aI1607
aI1480
aI202
aI2391
aI730
aI475
aI1885
aI735
aI756
atRp284
ag116
((lp285
I264
aI1422
aI143
aI918
aI664
aI1477
aI1463
aI806
aI173
aI687
aI1460
aI1461
aI1462
aI311
aI1464
aI1465
aI1466
aI1467
aI1468
aI1469
aI1470
aI1471
aI1472
aI1473
aI1474
aI1475
aI1476
aI837
aI1478
aI1479
aI1480
aI1481
aI1482
aI1099
aI1484
aI1485
aI1486
aI1487
aI1488
aI1489
aI601
aI222
aI1125
aI1257
aI1011
aI1269
aI377
aI763
aI1404
aI1483
atRp286
ag116
((lp287
I2050
aI2774
aI2753
aI1291
aI2775
aI146
aI2777
aI1983
aI1574
aI1326
aI2760
aI2772
aI951
aI696
aI2750
aI2751
aI2752
aI2369
aI2754
aI2755
aI2756
aI2757
aI2758
aI2759
aI2120
aI2761
aI2762
aI2763
aI2764
aI2765
aI2766
aI2767
aI464
aI2769
aI2770
aI2771
aI340
aI2773
aI982
aI215
aI2776
aI217
aI2778
aI2779
aI2768
aI2156
aI1647
aI2545
aI2553
aI891
atRp288
ag116
((lp289
I1920
aI1537
aI770
aI1923
aI1924
aI1925
aI1926
aI1921
aI1288
aI1929
aI394
aI1931
aI1932
aI1922
aI1934
aI1935
aI1936
aI1937
aI1938
aI1939
aI1927
aI149
aI1832
aI939
aI1928
aI735
aI1930
aI1504
aI502
aI1933
aI333
aI1741
aI1625
aI860
aI863
aI736
aI740
aI1910
aI1138
aI885
aI1398
aI1911
aI1912
aI1913
aI1914
aI1915
aI1916
aI1917
aI1918
aI1919
atRp290
ag116
((lp291
I1408
aI1409
aI1410
aI1411
aI1412
aI150
aI1414
aI1159
aI1416
aI649
aI1418
aI267
aI1420
aI1421
aI1422
aI1423
aI1424
aI1425
aI1426
aI1427
aI1428
aI1429
aI1174
aI986
aI798
aI1413
aI1415
aI309
aI1417
aI1341
aI1077
aI1217
aI1419
aI709
aI329
aI761
aI1232
aI599
aI856
aI602
aI742
aI1404
aI1400
aI1401
aI1402
aI1403
aI1276
aI1405
aI1406
aI1407
atRp292
ag116
((lp293
I1664
aI1665
aI1282
aI1667
aI1668
aI1669
aI1345
aI1293
aI1294
aI1297
aI667
aI668
aI542
aI155
aI1575
aI1652
aI1467
aI321
aI1654
aI1660
aI458
aI1655
aI1666
aI1473
aI225
aI1382
aI1640
aI1641
aI1642
aI1643
aI1644
aI1645
aI1646
aI1647
aI1648
aI1649
aI1650
aI1651
aI372
aI1653
aI630
aI1001
aI1656
aI1657
aI1658
aI1659
aI380
aI1661
aI1662
aI1663
atRp294
ag116
((lp295
I1795
aI1156
aI902
aI1415
aI1805
aI270
aI785
aI1839
aI1820
aI1821
aI1822
aI1823
aI1824
aI1825
aI1826
aI1827
aI1828
aI1829
aI1830
aI1831
aI1832
aI1833
aI1834
aI683
aI1836
aI1837
aI1838
aI943
aI176
aI1841
aI1842
aI1843
aI1844
aI1845
aI1846
aI1847
aI1848
aI1721
aI193
aI1346
aI328
aI1835
aI336
aI469
aI1337
aI1624
aI1840
aI1255
aI1849
aI763
atRp296
ag116
((lp297
I2816
aI2817
aI2818
aI2819
aI2820
aI2821
aI2822
aI2823
aI2824
aI2825
aI1546
aI2827
aI2828
aI2829
aI2830
aI1167
aI2832
aI2449
aI1554
aI2835
aI2836
aI2837
aI2838
aI2839
aI1818
aI2831
aI2721
aI2092
aI2350
aI1583
aI179
aI1460
aI2826
aI841
aI1105
aI2131
aI1752
aI1295
aI2530
aI2833
aI360
aI620
aI2834
aI1396
aI2810
aI2811
aI2812
aI2813
aI2814
aI2815
atRp298
ag116
((lp299
I2304
aI2305
aI1538
aI1795
aI2308
aI2309
aI2310
aI2311
aI2312
aI2313
aI2314
aI1419
aI2316
aI2306
aI1294
aI2319
aI2320
aI2321
aI2322
aI2307
aI2324
aI2325
aI2326
aI2071
aI2328
aI2329
aI1435
aI412
aI2323
aI1591
aI1210
aI957
aI2315
aI714
aI183
aI2317
aI2327
aI2318
aI216
aI314
aI1759
aI1508
aI230
aI1267
aI2302
aI247
aI2300
aI2301
aI1790
aI2303
atRp300
ag116
((lp301
I2180
aI645
aI774
aI2183
aI2184
aI2185
aI2186
aI2187
aI2188
aI2189
aI2190
aI2191
aI2192
aI2193
aI2194
aI2195
aI2196
aI2197
aI2198
aI535
aI2200
aI2201
aI2202
aI2203
aI2204
aI2205
aI2206
aI2181
aI2208
aI2209
aI675
aI1188
aI1926
aI425
aI1196
aI311
aI185
aI2207
aI1085
aI1472
aI1217
aI1862
aI1227
aI599
aI732
aI1798
aI2038
aI1705
aI2199
aI2182
atRp302
ag116
((lp303
I2432
aI2433
aI2434
aI2307
aI2436
aI2437
aI2054
aI2439
aI2440
aI2441
aI2442
aI2443
aI1676
aI2445
aI2446
aI2447
aI2448
aI2449
aI2435
aI1697
aI2438
aI554
aI1323
aI2094
aI687
aI2431
aI2444
aI197
aI1734
aI1097
aI1999
aI214
aI730
aI613
aI865
aI1252
aI2277
aI2428
aI2420
aI2421
aI2422
aI2423
aI2424
aI2425
aI2426
aI2427
aI892
aI2429
aI2430
aI2303
atRp304
ag116
((lp305
I392
aI1290
aI2370
aI1811
aI1303
aI624
aI1187
aI2089
aI299
aI303
aI1586
aI1118
aI2360
aI825
aI2362
aI2363
aI2364
aI2365
aI2366
aI2367
aI2368
aI2369
aI2242
aI2371
aI2372
aI2373
aI2374
aI2375
aI2376
aI2377
aI2378
aI2379
aI2380
aI2381
aI2382
aI2383
aI2384
aI2385
aI2386
aI2387
aI2388
aI2389
aI214
aI2361
aI1625
aI1246
aI2155
aI880
aI891
aI2009
atRp306
ag116
((lp307
I1792
aI385
aI1794
aI1795
aI1668
aI1029
aI1798
aI1793
aI1800
aI649
aI1802
aI1803
aI1804
aI1805
aI1806
aI1807
aI1808
aI1553
aI1810
aI1811
aI1812
aI1813
aI1814
aI1815
aI1816
aI1796
aI1818
aI1819
aI1797
aI1264
aI805
aI1799
aI1817
aI686
aI564
aI496
aI1801
aI837
aI969
aI842
aI598
aI222
aI1503
aI1809
aI880
aI510
aI1530
aI1791
aI1790
aI1023
atRp308
ag116
((lp309
I2048
aI2049
aI2050
aI1155
aI2052
aI2053
aI2054
aI2055
aI904
aI1196
aI2058
aI2059
aI400
aI2051
aI1304
aI2047
aI808
aI1833
aI1066
aI1964
aI814
aI2046
aI2056
aI2057
aI829
aI721
aI724
aI2041
aI1112
aI229
aI1894
aI1768
aI2030
aI2031
aI2032
aI2033
aI2034
aI2035
aI2036
aI2037
aI2038
aI2039
aI2040
aI761
aI2042
aI2043
aI2044
aI2045
aI1278
aI1663
atRp310
ag116
((lp311
I897
aI1287
aI1038
aI1554
aI1045
aI284
aI1700
aI1701
aI1702
aI1703
aI1704
aI1705
aI1706
aI1707
aI1708
aI1709
aI1710
aI1711
aI1712
aI1713
aI1714
aI1715
aI1716
aI821
aI1718
aI1719
aI1720
aI1721
aI1722
aI1211
aI1724
aI1725
aI1726
aI1717
aI448
aI1729
aI834
aI1347
aI1723
aI1106
aI723
aI606
aI1507
aI1728
aI1006
aI496
aI241
aI886
aI504
aI1727
atRp312
ag116
((lp313
I2438
aI2186
aI2571
aI2572
aI1805
aI2574
aI1807
aI2576
aI2577
aI2578
aI2579
aI2580
aI2581
aI2582
aI2583
aI2584
aI2585
aI2586
aI2587
aI2588
aI1949
aI2590
aI2591
aI2592
aI2593
aI1186
aI2595
aI2596
aI549
aI2598
aI2599
aI1961
aI1198
aI2589
aI1588
aI1590
aI2359
aI954
aI699
aI2570
aI2250
aI2594
aI1358
aI2573
aI2575
aI2597
aI357
aI2150
aI317
aI762
atRp314
ag116
((lp315
I1033
aI1933
aI1043
aI1815
aI1775
aI2082
aI1446
aI2891
aI1202
aI1969
aI1586
aI2870
aI695
aI2872
aI2873
aI2874
aI2875
aI2876
aI2877
aI2878
aI1343
aI2880
aI2881
aI2882
aI2883
aI2884
aI2885
aI2886
aI2887
aI2888
aI2889
aI2890
aI2871
aI2892
aI2893
aI2894
aI2895
aI2896
aI2897
aI2898
aI2899
aI1242
aI2269
aI2526
aI2399
aI2402
aI495
aI1652
aI2879
aI1789
atRp316
asS'_Hypergraph__vertex_to_edge'
p317
(dp318
I0
g116
((lp319
I0
aI1
aI2
atRp320
sI1
g116
((lp321
I0
aI3
aI4
aI5
aI6
atRp322
sI2
g116
((lp323
I0
aI8
aI9
aI7
atRp324
sI3
g116
((lp325
I0
aI10
aI11
aI7
atRp326
sI4
g116
((lp327
I0
aI12
aI7
atRp328
sI5
g116
((lp329
I0
aI13
aI14
atRp330
sI6
g116
((lp331
I0
atRp332
sI7
g116
((lp333
I0
aI4
aI15
atRp334
sI8
g116
((lp335
I0
aI7
aI13
aI16
aI17
aI18
atRp336
sI9
g116
((lp337
I0
aI19
aI20
aI13
aI7
atRp338
sI10
g116
((lp339
I0
aI16
aI21
aI22
atRp340
sI11
g116
((lp341
I0
aI7
aI12
aI13
aI16
aI17
aI23
aI24
atRp342
sI12
g116
((lp343
I0
atRp344
sI13
g116
((lp345
I0
aI25
aI26
aI15
aI7
atRp346
sI14
g116
((lp347
I0
aI27
aI3
aI28
aI7
atRp348
sI15
g116
((lp349
I0
aI18
aI12
atRp350
sI16
g116
((lp351
I0
aI26
aI29
aI15
atRp352
sI17
g116
((lp353
I0
aI4
aI12
aI13
aI20
aI30
atRp354
sI18
g116
((lp355
I0
aI31
aI7
atRp356
sI19
g116
((lp357
I0
aI2
aI4
atRp358
sI20
g116
((lp359
I0
aI32
atRp360
sI21
g116
((lp361
I0
aI33
aI13
atRp362
sI22
g116
((lp363
I0
aI32
aI34
aI7
aI12
aI13
atRp364
sI23
g116
((lp365
I0
aI17
aI2
aI35
aI25
atRp366
sI24
g116
((lp367
I0
aI2
aI36
aI14
aI17
aI29
atRp368
sI25
g116
((lp369
I0
aI19
aI37
aI38
atRp370
sI26
g116
((lp371
I0
aI32
aI39
aI13
aI15
aI29
atRp372
sI27
g116
((lp373
I0
aI4
aI7
aI40
aI41
aI42
aI12
aI20
aI29
atRp374
sI28
g116
((lp375
I0
aI7
atRp376
sI29
g116
((lp377
I0
aI43
aI3
aI13
atRp378
sI30
g116
((lp379
I0
aI40
aI44
aI37
aI32
atRp380
sI31
g116
((lp381
I0
aI12
aI29
aI7
atRp382
sI32
g116
((lp383
I0
aI4
aI7
atRp384
sI33
g116
((lp385
I0
aI4
aI12
aI15
atRp386
sI34
g116
((lp387
I0
aI12
atRp388
sI35
g116
((lp389
I0
aI21
atRp390
sI36
g116
((lp391
I0
aI9
atRp392
sI37
g116
((lp393
I0
atRp394
sI38
g116
((lp395
I0
aI17
aI10
aI29
aI41
atRp396
sI39
g116
((lp397
I0
aI45
aI46
atRp398
sI40
g116
((lp399
I0
aI35
aI12
aI14
aI47
aI3
atRp400
sI41
g116
((lp401
I0
aI33
aI48
aI15
atRp402
sI42
g116
((lp403
I0
aI12
aI7
atRp404
sI43
g116
((lp405
I0
aI40
aI36
aI21
aI7
atRp406
sI44
g116
((lp407
I0
aI40
aI7
atRp408
sI45
g116
((lp409
I0
aI15
aI20
aI7
atRp410
sI46
g116
((lp411
I0
aI49
aI13
atRp412
sI47
g116
((lp413
I0
aI16
aI15
aI27
aI7
atRp414
sI48
g116
((lp415
I0
aI7
aI41
aI12
aI49
aI50
atRp416
sI49
g116
((lp417
I0
aI4
aI38
aI14
aI15
aI20
aI23
atRp418
sI50
g116
((lp419
I51
aI52
aI13
aI7
atRp420
sI51
g116
((lp421
I16
aI3
aI29
aI7
atRp422
sI52
g116
((lp423
I1
aI53
aI12
aI13
aI7
atRp424
sI53
g116
((lp425
I1
aI29
aI7
atRp426
sI54
g116
((lp427
I32
aI37
aI7
aI13
aI53
aI25
atRp428
sI55
g116
((lp429
I8
aI7
atRp430
sI56
g116
((lp431
I8
aI13
aI7
atRp432
sI57
g116
((lp433
I15
aI46
aI54
aI7
atRp434
sI58
g116
((lp435
I55
aI13
aI7
atRp436
sI59
g116
((lp437
I56
aI21
aI7
atRp438
sI60
g116
((lp439
I7
atRp440
sI61
g116
((lp441
I7
atRp442
sI62
g116
((lp443
I57
aI7
atRp444
sI63
g116
((lp445
I17
aI58
aI12
aI41
aI7
atRp446
sI64
g116
((lp447
I16
aI20
aI13
aI7
atRp448
sI65
g116
((lp449
I25
aI12
aI7
atRp450
sI66
g116
((lp451
I40
aI59
aI15
aI7
atRp452
sI67
g116
((lp453
I35
aI60
aI13
aI7
atRp454
sI68
g116
((lp455
I27
aI31
aI7
atRp456
sI69
g116
((lp457
I29
aI7
atRp458
sI70
g116
((lp459
I3
aI36
aI7
aI16
aI4
aI61
atRp460
sI71
g116
((lp461
I63
aI55
aI5
aI62
aI7
atRp462
sI72
g116
((lp463
I7
atRp464
sI73
g116
((lp465
I55
aI29
aI13
aI7
atRp466
sI74
g116
((lp467
I64
aI65
aI7
aI40
aI17
aI59
atRp468
sI75
g116
((lp469
I66
aI31
aI13
aI7
atRp470
sI76
g116
((lp471
I54
aI14
aI7
atRp472
sI77
g116
((lp473
I41
aI67
aI13
aI7
atRp474
sI78
g116
((lp475
I48
aI4
aI7
atRp476
sI79
g116
((lp477
I17
aI7
atRp478
sI80
g116
((lp479
I33
aI68
aI13
aI23
atRp480
sI81
g116
((lp481
I8
aI50
aI13
atRp482
sI82
g116
((lp483
I70
aI13
aI54
aI69
atRp484
sI83
g116
((lp485
I17
aI4
aI13
aI5
atRp486
sI84
g116
((lp487
I57
aI3
aI13
aI71
atRp488
sI85
g116
((lp489
I19
aI12
aI13
atRp490
sI86
g116
((lp491
I16
aI13
atRp492
sI87
g116
((lp493
I32
aI12
aI13
atRp494
sI88
g116
((lp495
I32
aI9
aI3
aI13
atRp496
sI89
g116
((lp497
I64
aI58
aI13
atRp498
sI90
g116
((lp499
I1
aI33
aI72
aI12
aI45
aI13
aI29
atRp500
sI91
g116
((lp501
I4
aI57
aI12
aI13
aI1
atRp502
sI92
g116
((lp503
I48
aI13
atRp504
sI93
g116
((lp505
I57
aI59
aI13
atRp506
sI94
g116
((lp507
I8
aI73
aI12
aI13
aI31
atRp508
sI95
g116
((lp509
I64
aI13
aI15
atRp510
sI96
g116
((lp511
I16
aI24
aI13
aI61
atRp512
sI97
g116
((lp513
I56
aI17
aI42
aI74
aI13
atRp514
sI98
g116
((lp515
I9
aI75
aI13
atRp516
sI99
g116
((lp517
I26
aI13
aI30
atRp518
sI100
g116
((lp519
I8
aI13
aI16
aI17
aI53
aI29
atRp520
sI101
g116
((lp521
I44
aI13
atRp522
sI102
g116
((lp523
I11
aI76
aI13
aI15
atRp524
sI103
g116
((lp525
I17
aI13
aI14
aI15
atRp526
sI104
g116
((lp527
I13
aI77
aI31
atRp528
sI105
g116
((lp529
I17
aI20
aI13
aI1
atRp530
sI106
g116
((lp531
I16
aI13
atRp532
sI107
g116
((lp533
I16
aI52
aI29
aI13
aI15
atRp534
sI108
g116
((lp535
I40
aI32
aI11
aI13
atRp536
sI109
g116
((lp537
I3
aI44
aI13
aI78
atRp538
sI110
g116
((lp539
I8
aI12
atRp540
sI111
g116
((lp541
I12
aI15
atRp542
sI112
g116
((lp543
I50
aI12
atRp544
sI113
g116
((lp545
I67
aI59
aI12
atRp546
sI114
g116
((lp547
I12
aI55
atRp548
sI115
g116
((lp549
I12
aI37
aI79
atRp550
sI116
g116
((lp551
I19
aI4
aI3
aI12
aI80
atRp552
sI117
g116
((lp553
I81
aI12
aI45
aI15
atRp554
sI118
g116
((lp555
I12
atRp556
sI119
g116
((lp557
I48
aI12
atRp558
sI120
g116
((lp559
I12
aI29
atRp560
sI121
g116
((lp561
I20
aI67
aI12
aI81
atRp562
sI122
g116
((lp563
I50
aI12
aI29
aI22
atRp564
sI123
g116
((lp565
I16
aI59
aI12
atRp566
sI124
g116
((lp567
I12
aI45
aI15
aI16
aI21
aI29
aI30
atRp568
sI125
g116
((lp569
I12
atRp570
sI126
g116
((lp571
I17
aI12
aI15
atRp572
sI127
g116
((lp573
I12
atRp574
sI128
g116
((lp575
I33
aI12
aI23
atRp576
sI129
g116
((lp577
I19
aI41
aI3
aI12
atRp578
sI130
g116
((lp579
I82
aI12
aI29
atRp580
sI131
g116
((lp581
I17
aI12
atRp582
sI132
g116
((lp583
I17
aI12
aI25
atRp584
sI133
g116
((lp585
I8
aI12
atRp586
sI134
g116
((lp587
I12
atRp588
sI135
g116
((lp589
I12
aI15
atRp590
sI136
g116
((lp591
I65
aI35
aI12
aI31
atRp592
sI137
g116
((lp593
I16
aI24
aI12
atRp594
sI138
g116
((lp595
I41
aI83
aI12
atRp596
sI139
g116
((lp597
I19
aI12
aI6
atRp598
sI140
g116
((lp599
I56
aI17
aI21
aI81
aI15
atRp600
sI141
g116
((lp601
I16
aI41
aI33
aI15
atRp602
sI142
g116
((lp603
I20
aI15
atRp604
sI143
g116
((lp605
I16
aI84
aI15
atRp606
sI144
g116
((lp607
I73
aI29
aI15
atRp608
sI145
g116
((lp609
I17
aI2
aI82
aI15
atRp610
sI146
g116
((lp611
I41
aI36
aI85
aI15
atRp612
sI147
g116
((lp613
I40
aI41
aI19
aI15
atRp614
sI148
g116
((lp615
I15
atRp616
sI149
g116
((lp617
I25
aI50
aI86
aI15
atRp618
sI150
g116
((lp619
I25
aI87
aI20
aI15
atRp620
sI151
g116
((lp621
I78
aI15
atRp622
sI152
g116
((lp623
I16
aI40
aI55
aI15
atRp624
sI153
g116
((lp625
I14
aI15
atRp626
sI154
g116
((lp627
I67
aI69
aI40
aI15
aI51
aI29
aI5
atRp628
sI155
g116
((lp629
I88
aI58
aI44
aI69
aI15
atRp630
sI156
g116
((lp631
I64
aI81
aI45
aI15
atRp632
sI157
g116
((lp633
I27
aI15
atRp634
sI158
g116
((lp635
I15
atRp636
sI159
g116
((lp637
I15
atRp638
sI160
g116
((lp639
I65
aI45
aI15
atRp640
sI161
g116
((lp641
I16
aI15
atRp642
sI162
g116
((lp643
I10
aI67
aI15
atRp644
sI163
g116
((lp645
I32
aI53
aI15
atRp646
sI164
g116
((lp647
I16
aI40
aI51
aI15
atRp648
sI165
g116
((lp649
I15
atRp650
sI166
g116
((lp651
I40
aI53
aI19
aI29
aI15
atRp652
sI167
g116
((lp653
I33
aI26
aI15
atRp654
sI168
g116
((lp655
I40
aI31
aI54
aI15
atRp656
sI169
g116
((lp657
I40
aI62
aI54
aI15
atRp658
sI170
g116
((lp659
I16
aI75
atRp660
sI171
g116
((lp661
I16
aI22
aI31
atRp662
sI172
g116
((lp663
I16
aI3
atRp664
sI173
g116
((lp665
I16
aI8
aI84
aI57
atRp666
sI174
g116
((lp667
I16
atRp668
sI175
g116
((lp669
I16
aI45
atRp670
sI176
g116
((lp671
I16
aI89
aI2
aI45
atRp672
sI177
g116
((lp673
I16
atRp674
sI178
g116
((lp675
I16
aI35
atRp676
sI179
g116
((lp677
I16
aI49
aI90
atRp678
sI180
g116
((lp679
I16
aI17
aI5
atRp680
sI181
g116
((lp681
I16
aI35
atRp682
sI182
g116
((lp683
I16
aI8
atRp684
sI183
g116
((lp685
I16
aI1
aI91
aI71
atRp686
sI184
g116
((lp687
I16
aI59
aI46
atRp688
sI185
g116
((lp689
I16
aI33
aI92
atRp690
sI186
g116
((lp691
I16
aI1
aI19
aI59
aI39
atRp692
sI187
g116
((lp693
I16
aI81
atRp694
sI188
g116
((lp695
I16
aI8
atRp696
sI189
g116
((lp697
I16
aI25
aI42
aI58
atRp698
sI190
g116
((lp699
I16
aI40
aI77
aI78
atRp700
sI191
g116
((lp701
I16
atRp702
sI192
g116
((lp703
I16
atRp704
sI193
g116
((lp705
I16
aI89
aI82
aI26
atRp706
sI194
g116
((lp707
I16
aI32
aI4
atRp708
sI195
g116
((lp709
I16
aI33
atRp710
sI196
g116
((lp711
I16
aI57
atRp712
sI197
g116
((lp713
I16
aI11
aI3
aI4
aI93
atRp714
sI198
g116
((lp715
I16
aI17
aI54
atRp716
sI199
g116
((lp717
I16
aI6
atRp718
sI200
g116
((lp719
I17
aI1
atRp720
sI201
g116
((lp721
I17
atRp722
sI202
g116
((lp723
I8
aI17
aI83
aI54
aI65
atRp724
sI203
g116
((lp725
I17
aI14
atRp726
sI204
g116
((lp727
I8
aI17
aI80
atRp728
sI205
g116
((lp729
I17
aI11
aI60
aI45
atRp730
sI206
g116
((lp731
I17
aI28
aI38
aI47
atRp732
sI207
g116
((lp733
I40
aI17
atRp734
sI208
g116
((lp735
I17
aI35
atRp736
sI209
g116
((lp737
I17
aI20
atRp738
sI210
g116
((lp739
I40
aI17
atRp740
sI211
g116
((lp741
I17
aI3
atRp742
sI212
g116
((lp743
I17
atRp744
sI213
g116
((lp745
I17
aI35
atRp746
sI214
g116
((lp747
I17
aI94
aI6
aI93
atRp748
sI215
g116
((lp749
I17
aI47
aI85
aI62
aI49
atRp750
sI216
g116
((lp751
I17
aI91
aI61
aI22
atRp752
sI217
g116
((lp753
I17
aI85
aI23
atRp754
sI218
g116
((lp755
I17
aI83
aI57
atRp756
sI219
g116
((lp757
I40
aI17
aI35
atRp758
sI220
g116
((lp759
I17
aI10
atRp760
sI221
g116
((lp761
I17
atRp762
sI222
g116
((lp763
I84
aI17
aI95
aI36
aI9
atRp764
sI223
g116
((lp765
I40
aI17
aI3
atRp766
sI224
g116
((lp767
I32
aI17
aI10
aI14
atRp768
sI225
g116
((lp769
I88
aI17
aI19
atRp770
sI226
g116
((lp771
I17
aI30
aI41
atRp772
sI227
g116
((lp773
I17
aI36
aI14
atRp774
sI228
g116
((lp775
I17
aI35
atRp776
sI229
g116
((lp777
I96
aI40
aI41
aI17
aI57
aI63
atRp778
sI230
g116
((lp779
I40
aI32
aI91
atRp780
sI231
g116
((lp781
I40
aI43
aI36
atRp782
sI232
g116
((lp783
I40
aI33
atRp784
sI233
g116
((lp785
I40
aI41
aI24
aI8
aI32
atRp786
sI234
g116
((lp787
I40
aI1
aI65
atRp788
sI235
g116
((lp789
I40
aI4
aI14
atRp790
sI236
g116
((lp791
I40
aI34
aI20
aI45
atRp792
sI237
g116
((lp793
I40
aI19
atRp794
sI238
g116
((lp795
I40
aI58
aI3
aI45
atRp796
sI239
g116
((lp797
I40
aI58
aI19
aI30
atRp798
sI240
g116
((lp799
I40
atRp800
sI241
g116
((lp801
I40
aI8
aI69
aI97
atRp802
sI242
g116
((lp803
I40
aI41
atRp804
sI243
g116
((lp805
I40
aI3
atRp806
sI244
g116
((lp807
I40
aI63
atRp808
sI245
g116
((lp809
I40
aI34
atRp810
sI246
g116
((lp811
I40
atRp812
sI247
g116
((lp813
I40
aI91
aI42
aI51
atRp814
sI248
g116
((lp815
I40
aI19
atRp816
sI249
g116
((lp817
I40
aI41
aI4
atRp818
sI250
g116
((lp819
I40
atRp820
sI251
g116
((lp821
I40
aI32
aI52
aI73
atRp822
sI252
g116
((lp823
I40
aI72
atRp824
sI253
g116
((lp825
I40
aI33
atRp826
sI254
g116
((lp827
I40
aI1
aI3
aI14
aI59
atRp828
sI255
g116
((lp829
I40
aI34
atRp830
sI256
g116
((lp831
I40
aI38
atRp832
sI257
g116
((lp833
I40
aI69
atRp834
sI258
g116
((lp835
I40
aI25
atRp836
sI259
g116
((lp837
I40
aI50
atRp838
sI260
g116
((lp839
I20
aI4
aI29
atRp840
sI261
g116
((lp841
I25
aI29
atRp842
sI262
g116
((lp843
I67
aI3
aI82
aI29
atRp844
sI263
g116
((lp845
I41
aI29
atRp846
sI264
g116
((lp847
I32
aI67
aI84
aI29
aI21
atRp848
sI265
g116
((lp849
I33
aI35
aI29
aI70
atRp850
sI266
g116
((lp851
I41
aI51
aI29
atRp852
sI267
g116
((lp853
I67
aI29
aI87
atRp854
sI268
g116
((lp855
I80
aI29
aI54
atRp856
sI269
g116
((lp857
I41
aI83
aI29
atRp858
sI270
g116
((lp859
I89
aI29
atRp860
sI271
g116
((lp861
I27
aI29
atRp862
sI272
g116
((lp863
I29
aI23
atRp864
sI273
g116
((lp865
I8
aI29
aI54
atRp866
sI274
g116
((lp867
I29
atRp868
sI275
g116
((lp869
I29
atRp870
sI276
g116
((lp871
I3
aI29
aI46
atRp872
sI277
g116
((lp873
I29
atRp874
sI278
g116
((lp875
I33
aI20
aI29
atRp876
sI279
g116
((lp877
I29
atRp878
sI280
g116
((lp879
I48
aI29
atRp880
sI281
g116
((lp881
I81
aI29
atRp882
sI282
g116
((lp883
I29
atRp884
sI283
g116
((lp885
I24
aI60
aI29
atRp886
sI284
g116
((lp887
I97
aI29
atRp888
sI285
g116
((lp889
I29
aI78
atRp890
sI286
g116
((lp891
I75
aI29
aI45
atRp892
sI287
g116
((lp893
I29
aI47
atRp894
sI288
g116
((lp895
I29
aI31
atRp896
sI289
g116
((lp897
I1
aI29
atRp898
sI290
g116
((lp899
I3
atRp900
sI291
g116
((lp901
I49
aI3
atRp902
sI292
g116
((lp903
I3
atRp904
sI293
g116
((lp905
I67
aI3
atRp906
sI294
g116
((lp907
I3
aI45
atRp908
sI295
g116
((lp909
I3
atRp910
sI296
g116
((lp911
I50
aI3
aI36
aI18
atRp912
sI297
g116
((lp913
I51
aI3
aI68
aI77
aI14
atRp914
sI298
g116
((lp915
I3
aI4
aI45
aI54
atRp916
sI299
g116
((lp917
I3
aI37
aI94
atRp918
sI300
g116
((lp919
I49
aI10
aI3
atRp920
sI301
g116
((lp921
I42
aI3
aI31
atRp922
sI302
g116
((lp923
I3
atRp924
sI303
g116
((lp925
I32
aI3
aI94
atRp926
sI304
g116
((lp927
I25
aI3
aI5
aI6
atRp928
sI305
g116
((lp929
I3
atRp930
sI306
g116
((lp931
I27
aI3
aI38
atRp932
sI307
g116
((lp933
I19
aI3
atRp934
sI308
g116
((lp935
I41
aI3
atRp936
sI309
g116
((lp937
I65
aI3
aI87
atRp938
sI310
g116
((lp939
I3
atRp940
sI311
g116
((lp941
I92
aI84
aI3
aI44
aI6
atRp942
sI312
g116
((lp943
I57
aI3
aI6
atRp944
sI313
g116
((lp945
I35
aI3
aI81
atRp946
sI314
g116
((lp947
I41
aI91
aI3
aI71
atRp948
sI315
g116
((lp949
I28
aI3
aI44
atRp950
sI316
g116
((lp951
I72
aI11
aI3
atRp952
sI317
g116
((lp953
I98
aI3
atRp954
sI318
g116
((lp955
I33
aI3
atRp956
sI319
g116
((lp957
I3
atRp958
sI320
g116
((lp959
I41
aI81
atRp960
sI321
g116
((lp961
I88
aI41
aI66
aI23
atRp962
sI322
g116
((lp963
I41
atRp964
sI323
g116
((lp965
I41
aI10
aI21
aI25
atRp966
sI324
g116
((lp967
I41
aI74
atRp968
sI325
g116
((lp969
I41
aI23
atRp970
sI326
g116
((lp971
I41
aI58
aI1
atRp972
sI327
g116
((lp973
I41
atRp974
sI328
g116
((lp975
I64
aI41
aI70
aI89
aI81
atRp976
sI329
g116
((lp977
I48
aI41
aI87
atRp978
sI330
g116
((lp979
I24
aI41
aI39
atRp980
sI331
g116
((lp981
I41
aI50
aI4
atRp982
sI332
g116
((lp983
I41
aI25
aI1
atRp984
sI333
g116
((lp985
I41
aI51
aI86
atRp986
sI334
g116
((lp987
I41
aI2
atRp988
sI335
g116
((lp989
I41
atRp990
sI336
g116
((lp991
I41
aI66
aI75
aI89
aI25
atRp992
sI337
g116
((lp993
I41
aI45
atRp994
sI338
g116
((lp995
I41
aI45
atRp996
sI339
g116
((lp997
I41
atRp998
sI340
g116
((lp999
I41
aI85
atRp1000
sI341
g116
((lp1001
I72
aI41
aI19
aI47
atRp1002
sI342
g116
((lp1003
I8
aI41
aI35
atRp1004
sI343
g116
((lp1005
I41
aI14
atRp1006
sI344
g116
((lp1007
I41
atRp1008
sI345
g116
((lp1009
I41
aI20
aI1
atRp1010
sI346
g116
((lp1011
I80
aI41
aI57
atRp1012
sI347
g116
((lp1013
I41
aI59
aI49
atRp1014
sI348
g116
((lp1015
I41
aI2
aI35
atRp1016
sI349
g116
((lp1017
I41
aI9
atRp1018
sI350
g116
((lp1019
I4
aI31
atRp1020
sI351
g116
((lp1021
I73
aI4
atRp1022
sI352
g116
((lp1023
I4
atRp1024
sI353
g116
((lp1025
I4
atRp1026
sI354
g116
((lp1027
I59
aI4
atRp1028
sI355
g116
((lp1029
I59
aI4
atRp1030
sI356
g116
((lp1031
I48
aI2
aI43
aI4
aI26
atRp1032
sI357
g116
((lp1033
I68
aI98
aI4
atRp1034
sI358
g116
((lp1035
I58
aI4
atRp1036
sI359
g116
((lp1037
I57
aI4
atRp1038
sI360
g116
((lp1039
I72
aI90
aI4
atRp1040
sI361
g116
((lp1041
I4
aI14
aI55
atRp1042
sI362
g116
((lp1043
I32
aI50
aI4
atRp1044
sI363
g116
((lp1045
I4
atRp1046
sI364
g116
((lp1047
I4
atRp1048
sI365
g116
((lp1049
I36
aI4
atRp1050
sI366
g116
((lp1051
I4
aI45
atRp1052
sI367
g116
((lp1053
I8
aI4
aI45
atRp1054
sI368
g116
((lp1055
I48
aI4
aI45
atRp1056
sI369
g116
((lp1057
I19
aI4
atRp1058
sI370
g116
((lp1059
I19
aI4
atRp1060
sI371
g116
((lp1061
I20
aI75
aI4
aI31
atRp1062
sI372
g116
((lp1063
I33
aI4
aI82
aI88
aI57
aI59
atRp1064
sI373
g116
((lp1065
I60
aI4
atRp1066
sI374
g116
((lp1067
I1
aI75
aI4
atRp1068
sI375
g116
((lp1069
I36
aI4
atRp1070
sI376
g116
((lp1071
I4
atRp1072
sI377
g116
((lp1073
I72
aI9
aI4
aI45
aI84
atRp1074
sI378
g116
((lp1075
I33
aI4
aI62
atRp1076
sI379
g116
((lp1077
I1
aI4
aI70
aI44
atRp1078
sI380
g116
((lp1079
I88
aI45
atRp1080
sI381
g116
((lp1081
I45
atRp1082
sI382
g116
((lp1083
I25
aI45
atRp1084
sI383
g116
((lp1085
I45
aI54
atRp1086
sI384
g116
((lp1087
I33
aI45
atRp1088
sI385
g116
((lp1089
I95
aI28
aI45
aI37
atRp1090
sI386
g116
((lp1091
I10
aI51
aI44
aI45
atRp1092
sI387
g116
((lp1093
I45
atRp1094
sI388
g116
((lp1095
I45
aI31
atRp1096
sI389
g116
((lp1097
I42
aI45
atRp1098
sI390
g116
((lp1099
I45
atRp1100
sI391
g116
((lp1101
I45
aI77
atRp1102
sI392
g116
((lp1103
I56
aI81
aI76
aI45
aI94
atRp1104
sI393
g116
((lp1105
I28
aI45
atRp1106
sI394
g116
((lp1107
I58
aI42
aI35
aI45
aI86
atRp1108
sI395
g116
((lp1109
I45
atRp1110
sI396
g116
((lp1111
I8
aI42
aI45
atRp1112
sI397
g116
((lp1113
I45
atRp1114
sI398
g116
((lp1115
I42
aI36
aI45
atRp1116
sI399
g116
((lp1117
I80
aI45
atRp1118
sI400
g116
((lp1119
I96
aI45
atRp1120
sI401
g116
((lp1121
I45
aI78
atRp1122
sI402
g116
((lp1123
I50
aI45
aI69
atRp1124
sI403
g116
((lp1125
I8
aI45
aI54
aI71
atRp1126
sI404
g116
((lp1127
I44
aI45
aI14
atRp1128
sI405
g116
((lp1129
I64
aI50
aI45
atRp1130
sI406
g116
((lp1131
I19
aI45
atRp1132
sI407
g116
((lp1133
I43
aI45
atRp1134
sI408
g116
((lp1135
I27
aI45
atRp1136
sI409
g116
((lp1137
I33
aI45
atRp1138
sI410
g116
((lp1139
I8
aI38
atRp1140
sI411
g116
((lp1141
I8
atRp1142
sI412
g116
((lp1143
I8
aI91
aI60
atRp1144
sI413
g116
((lp1145
I8
aI58
atRp1146
sI414
g116
((lp1147
I8
aI23
atRp1148
sI415
g116
((lp1149
I8
atRp1150
sI416
g116
((lp1151
I8
aI1
aI19
atRp1152
sI417
g116
((lp1153
I8
aI74
atRp1154
sI418
g116
((lp1155
I8
atRp1156
sI419
g116
((lp1157
I8
aI31
atRp1158
sI420
g116
((lp1159
I8
atRp1160
sI421
g116
((lp1161
I8
atRp1162
sI422
g116
((lp1163
I8
atRp1164
sI423
g116
((lp1165
I8
aI44
atRp1166
sI424
g116
((lp1167
I8
aI58
atRp1168
sI425
g116
((lp1169
I8
aI92
atRp1170
sI426
g116
((lp1171
I8
aI26
aI18
atRp1172
sI427
g116
((lp1173
I8
aI75
aI36
aI46
aI31
atRp1174
sI428
g116
((lp1175
I8
atRp1176
sI429
g116
((lp1177
I8
aI55
atRp1178
sI430
g116
((lp1179
I8
aI46
atRp1180
sI431
g116
((lp1181
I8
aI44
aI39
atRp1182
sI432
g116
((lp1183
I8
aI31
atRp1184
sI433
g116
((lp1185
I8
aI35
atRp1186
sI434
g116
((lp1187
I8
atRp1188
sI435
g116
((lp1189
I8
aI50
atRp1190
sI436
g116
((lp1191
I8
atRp1192
sI437
g116
((lp1193
I8
aI72
atRp1194
sI438
g116
((lp1195
I8
aI67
atRp1196
sI439
g116
((lp1197
I8
aI58
aI19
atRp1198
sI440
g116
((lp1199
I73
aI19
atRp1200
sI441
g116
((lp1201
I19
aI54
atRp1202
sI442
g116
((lp1203
I19
atRp1204
sI443
g116
((lp1205
I19
atRp1206
sI444
g116
((lp1207
I75
aI19
atRp1208
sI445
g116
((lp1209
I19
atRp1210
sI446
g116
((lp1211
I32
aI19
atRp1212
sI447
g116
((lp1213
I1
aI66
aI19
atRp1214
sI448
g116
((lp1215
I97
aI19
atRp1216
sI449
g116
((lp1217
I33
aI19
atRp1218
sI450
g116
((lp1219
I19
aI61
atRp1220
sI451
g116
((lp1221
I19
aI44
aI14
atRp1222
sI452
g116
((lp1223
I19
aI52
atRp1224
sI453
g116
((lp1225
I19
atRp1226
sI454
g116
((lp1227
I80
aI19
atRp1228
sI455
g116
((lp1229
I19
atRp1230
sI456
g116
((lp1231
I19
aI79
atRp1232
sI457
g116
((lp1233
I19
atRp1234
sI458
g116
((lp1235
I88
aI19
atRp1236
sI459
g116
((lp1237
I19
atRp1238
sI460
g116
((lp1239
I19
aI20
aI14
atRp1240
sI461
g116
((lp1241
I50
aI19
atRp1242
sI462
g116
((lp1243
I19
atRp1244
sI463
g116
((lp1245
I33
aI82
aI19
atRp1246
sI464
g116
((lp1247
I19
aI85
atRp1248
sI465
g116
((lp1249
I18
aI19
aI36
atRp1250
sI466
g116
((lp1251
I1
aI19
aI55
atRp1252
sI467
g116
((lp1253
I32
aI19
atRp1254
sI468
g116
((lp1255
I19
aI14
atRp1256
sI469
g116
((lp1257
I89
aI50
aI19
atRp1258
sI470
g116
((lp1259
I1
aI30
aI23
atRp1260
sI471
g116
((lp1261
I1
atRp1262
sI472
g116
((lp1263
I1
aI26
atRp1264
sI473
g116
((lp1265
I32
aI1
atRp1266
sI474
g116
((lp1267
I1
atRp1268
sI475
g116
((lp1269
I1
aI83
aI53
atRp1270
sI476
g116
((lp1271
I1
aI55
atRp1272
sI477
g116
((lp1273
I1
aI10
atRp1274
sI478
g116
((lp1275
I1
atRp1276
sI479
g116
((lp1277
I1
aI73
aI31
atRp1278
sI480
g116
((lp1279
I1
atRp1280
sI481
g116
((lp1281
I1
atRp1282
sI482
g116
((lp1283
I1
aI20
atRp1284
sI483
g116
((lp1285
I1
atRp1286
sI484
g116
((lp1287
I1
aI21
atRp1288
sI485
g116
((lp1289
I1
atRp1290
sI486
g116
((lp1291
I1
aI67
aI14
atRp1292
sI487
g116
((lp1293
I1
atRp1294
sI488
g116
((lp1295
I1
aI59
aI20
atRp1296
sI489
g116
((lp1297
I1
aI47
aI73
atRp1298
sI490
g116
((lp1299
I48
aI1
atRp1300
sI491
g116
((lp1301
I1
atRp1302
sI492
g116
((lp1303
I1
aI5
atRp1304
sI493
g116
((lp1305
I1
aI21
atRp1306
sI494
g116
((lp1307
I1
atRp1308
sI495
g116
((lp1309
I1
aI99
atRp1310
sI496
g116
((lp1311
I72
aI1
aI95
aI54
aI97
atRp1312
sI497
g116
((lp1313
I1
aI59
aI62
atRp1314
sI498
g116
((lp1315
I1
aI34
atRp1316
sI499
g116
((lp1317
I1
atRp1318
sI500
g116
((lp1319
I32
aI2
aI63
atRp1320
sI501
g116
((lp1321
I32
aI25
aI44
aI69
aI38
atRp1322
sI502
g116
((lp1323
I32
aI56
aI75
aI86
atRp1324
sI503
g116
((lp1325
I32
atRp1326
sI504
g116
((lp1327
I32
aI97
aI50
atRp1328
sI505
g116
((lp1329
I32
atRp1330
sI506
g116
((lp1331
I32
aI54
atRp1332
sI507
g116
((lp1333
I32
aI72
atRp1334
sI508
g116
((lp1335
I32
aI54
aI31
atRp1336
sI509
g116
((lp1337
I32
aI44
atRp1338
sI510
g116
((lp1339
I32
aI36
aI95
atRp1340
sI511
g116
((lp1341
I32
atRp1342
sI512
g116
((lp1343
I32
atRp1344
sI513
g116
((lp1345
I32
aI51
aI76
aI55
atRp1346
sI514
g116
((lp1347
I32
atRp1348
sI515
g116
((lp1349
I32
atRp1350
sI516
g116
((lp1351
I32
aI2
aI42
aI44
aI21
aI58
atRp1352
sI517
g116
((lp1353
I32
aI35
atRp1354
sI518
g116
((lp1355
I32
aI6
atRp1356
sI519
g116
((lp1357
I32
aI25
atRp1358
sI520
g116
((lp1359
I32
aI59
atRp1360
sI521
g116
((lp1361
I32
atRp1362
sI522
g116
((lp1363
I32
atRp1364
sI523
g116
((lp1365
I32
aI82
atRp1366
sI524
g116
((lp1367
I32
aI64
atRp1368
sI525
g116
((lp1369
I32
aI25
atRp1370
sI526
g116
((lp1371
I32
aI65
aI53
atRp1372
sI527
g116
((lp1373
I32
aI37
atRp1374
sI528
g116
((lp1375
I32
atRp1376
sI529
g116
((lp1377
I32
atRp1378
sI530
g116
((lp1379
I60
aI14
atRp1380
sI531
g116
((lp1381
I30
aI14
atRp1382
sI532
g116
((lp1383
I14
aI71
atRp1384
sI533
g116
((lp1385
I14
atRp1386
sI534
g116
((lp1387
I58
aI44
aI14
atRp1388
sI535
g116
((lp1389
I92
aI14
atRp1390
sI536
g116
((lp1391
I50
aI37
aI14
atRp1392
sI537
g116
((lp1393
I14
atRp1394
sI538
g116
((lp1395
I14
atRp1396
sI539
g116
((lp1397
I64
aI14
atRp1398
sI540
g116
((lp1399
I35
aI14
aI55
atRp1400
sI541
g116
((lp1401
I14
atRp1402
sI542
g116
((lp1403
I48
aI88
aI14
atRp1404
sI543
g116
((lp1405
I65
aI14
atRp1406
sI544
g116
((lp1407
I14
aI71
atRp1408
sI545
g116
((lp1409
I14
atRp1410
sI546
g116
((lp1411
I57
aI14
atRp1412
sI547
g116
((lp1413
I24
aI14
atRp1414
sI548
g116
((lp1415
I14
atRp1416
sI549
g116
((lp1417
I98
aI75
aI30
aI14
atRp1418
sI550
g116
((lp1419
I14
atRp1420
sI551
g116
((lp1421
I35
aI69
aI14
atRp1422
sI552
g116
((lp1423
I14
atRp1424
sI553
g116
((lp1425
I36
aI14
atRp1426
sI554
g116
((lp1427
I34
aI20
aI93
aI14
atRp1428
sI555
g116
((lp1429
I14
atRp1430
sI556
g116
((lp1431
I24
aI76
aI14
aI23
atRp1432
sI557
g116
((lp1433
I36
aI14
atRp1434
sI558
g116
((lp1435
I14
atRp1436
sI559
g116
((lp1437
I35
aI54
aI14
atRp1438
sI560
g116
((lp1439
I33
aI34
atRp1440
sI561
g116
((lp1441
I24
aI33
aI75
atRp1442
sI562
g116
((lp1443
I33
aI71
aI28
aI31
atRp1444
sI563
g116
((lp1445
I33
atRp1446
sI564
g116
((lp1447
I33
aI95
atRp1448
sI565
g116
((lp1449
I33
aI23
atRp1450
sI566
g116
((lp1451
I33
atRp1452
sI567
g116
((lp1453
I33
aI49
atRp1454
sI568
g116
((lp1455
I33
atRp1456
sI569
g116
((lp1457
I33
atRp1458
sI570
g116
((lp1459
I33
aI2
aI57
atRp1460
sI571
g116
((lp1461
I33
aI34
aI5
aI53
atRp1462
sI572
g116
((lp1463
I72
aI33
aI30
aI64
atRp1464
sI573
g116
((lp1465
I33
aI5
atRp1466
sI574
g116
((lp1467
I33
aI73
atRp1468
sI575
g116
((lp1469
I33
aI36
aI55
atRp1470
sI576
g116
((lp1471
I33
atRp1472
sI577
g116
((lp1473
I33
atRp1474
sI578
g116
((lp1475
I33
atRp1476
sI579
g116
((lp1477
I33
atRp1478
sI580
g116
((lp1479
I33
atRp1480
sI581
g116
((lp1481
I33
atRp1482
sI582
g116
((lp1483
I33
aI73
atRp1484
sI583
g116
((lp1485
I33
aI6
atRp1486
sI584
g116
((lp1487
I33
atRp1488
sI585
g116
((lp1489
I33
aI5
atRp1490
sI586
g116
((lp1491
I33
aI37
atRp1492
sI587
g116
((lp1493
I33
aI50
aI69
aI62
atRp1494
sI588
g116
((lp1495
I33
atRp1496
sI589
g116
((lp1497
I33
aI62
atRp1498
sI590
g116
((lp1499
I34
aI20
aI46
atRp1500
sI591
g116
((lp1501
I20
atRp1502
sI592
g116
((lp1503
I20
atRp1504
sI593
g116
((lp1505
I20
aI55
atRp1506
sI594
g116
((lp1507
I20
aI21
atRp1508
sI595
g116
((lp1509
I11
aI20
atRp1510
sI596
g116
((lp1511
I56
aI65
aI20
aI23
atRp1512
sI597
g116
((lp1513
I81
aI20
atRp1514
sI598
g116
((lp1515
I80
aI51
aI20
aI54
aI61
aI95
atRp1516
sI599
g116
((lp1517
I92
aI20
aI87
atRp1518
sI600
g116
((lp1519
I20
atRp1520
sI601
g116
((lp1521
I84
aI42
aI20
aI69
aI65
atRp1522
sI602
g116
((lp1523
I44
aI20
aI87
atRp1524
sI603
g116
((lp1525
I2
aI20
atRp1526
sI604
g116
((lp1527
I80
aI20
aI39
atRp1528
sI605
g116
((lp1529
I20
atRp1530
sI606
g116
((lp1531
I97
aI20
aI71
atRp1532
sI607
g116
((lp1533
I20
atRp1534
sI608
g116
((lp1535
I20
atRp1536
sI609
g116
((lp1537
I20
atRp1538
sI610
g116
((lp1539
I2
aI20
atRp1540
sI611
g116
((lp1541
I20
atRp1542
sI612
g116
((lp1543
I20
atRp1544
sI613
g116
((lp1545
I20
aI93
aI77
atRp1546
sI614
g116
((lp1547
I51
aI20
atRp1548
sI615
g116
((lp1549
I20
atRp1550
sI616
g116
((lp1551
I20
aI78
atRp1552
sI617
g116
((lp1553
I20
aI30
atRp1554
sI618
g116
((lp1555
I20
atRp1556
sI619
g116
((lp1557
I20
atRp1558
sI620
g116
((lp1559
I90
aI35
aI47
atRp1560
sI621
g116
((lp1561
I35
aI77
aI38
atRp1562
sI622
g116
((lp1563
I35
atRp1564
sI623
g116
((lp1565
I9
aI35
aI70
atRp1566
sI624
g116
((lp1567
I35
aI94
atRp1568
sI625
g116
((lp1569
I72
aI35
aI21
aI77
atRp1570
sI626
g116
((lp1571
I50
aI35
aI28
atRp1572
sI627
g116
((lp1573
I35
atRp1574
sI628
g116
((lp1575
I73
aI34
aI35
atRp1576
sI629
g116
((lp1577
I35
atRp1578
sI630
g116
((lp1579
I88
aI35
aI44
aI55
atRp1580
sI631
g116
((lp1581
I49
aI35
atRp1582
sI632
g116
((lp1583
I10
aI35
atRp1584
sI633
g116
((lp1585
I35
atRp1586
sI634
g116
((lp1587
I35
atRp1588
sI635
g116
((lp1589
I81
aI35
aI28
aI21
atRp1590
sI636
g116
((lp1591
I35
atRp1592
sI637
g116
((lp1593
I35
atRp1594
sI638
g116
((lp1595
I35
atRp1596
sI639
g116
((lp1597
I74
aI35
aI70
atRp1598
sI640
g116
((lp1599
I48
aI35
aI44
atRp1600
sI641
g116
((lp1601
I35
atRp1602
sI642
g116
((lp1603
I24
aI25
aI35
atRp1604
sI643
g116
((lp1605
I50
aI35
atRp1606
sI644
g116
((lp1607
I35
atRp1608
sI645
g116
((lp1609
I35
aI92
aI55
atRp1610
sI646
g116
((lp1611
I35
atRp1612
sI647
g116
((lp1613
I80
aI50
aI35
aI54
atRp1614
sI648
g116
((lp1615
I25
aI35
atRp1616
sI649
g116
((lp1617
I95
aI35
aI87
atRp1618
sI650
g116
((lp1619
I50
aI2
atRp1620
sI651
g116
((lp1621
I50
atRp1622
sI652
g116
((lp1623
I50
aI66
aI68
aI69
aI71
atRp1624
sI653
g116
((lp1625
I50
atRp1626
sI654
g116
((lp1627
I50
aI42
atRp1628
sI655
g116
((lp1629
I50
aI68
aI78
atRp1630
sI656
g116
((lp1631
I65
aI50
atRp1632
sI657
g116
((lp1633
I50
aI27
aI46
atRp1634
sI658
g116
((lp1635
I50
atRp1636
sI659
g116
((lp1637
I50
atRp1638
sI660
g116
((lp1639
I50
atRp1640
sI661
g116
((lp1641
I50
aI5
aI55
atRp1642
sI662
g116
((lp1643
I50
aI59
atRp1644
sI663
g116
((lp1645
I50
atRp1646
sI664
g116
((lp1647
I50
aI75
aI84
atRp1648
sI665
g116
((lp1649
I50
atRp1650
sI666
g116
((lp1651
I50
atRp1652
sI667
g116
((lp1653
I72
aI88
aI50
aI2
atRp1654
sI668
g116
((lp1655
I88
aI50
atRp1656
sI669
g116
((lp1657
I50
aI2
atRp1658
sI670
g116
((lp1659
I50
aI5
aI62
atRp1660
sI671
g116
((lp1661
I50
aI53
atRp1662
sI672
g116
((lp1663
I50
atRp1664
sI673
g116
((lp1665
I50
atRp1666
sI674
g116
((lp1667
I50
atRp1668
sI675
g116
((lp1669
I50
aI92
atRp1670
sI676
g116
((lp1671
I50
aI54
aI79
atRp1672
sI677
g116
((lp1673
I50
aI55
atRp1674
sI678
g116
((lp1675
I50
aI42
atRp1676
sI679
g116
((lp1677
I64
aI50
atRp1678
sI680
g116
((lp1679
I52
aI69
aI54
atRp1680
sI681
g116
((lp1681
I54
atRp1682
sI682
g116
((lp1683
I54
atRp1684
sI683
g116
((lp1685
I89
aI37
aI54
aI5
atRp1686
sI684
g116
((lp1687
I2
aI62
aI54
atRp1688
sI685
g116
((lp1689
I54
aI31
atRp1690
sI686
g116
((lp1691
I54
aI95
atRp1692
sI687
g116
((lp1693
I84
aI93
aI54
atRp1694
sI688
g116
((lp1695
I54
atRp1696
sI689
g116
((lp1697
I2
aI54
atRp1698
sI690
g116
((lp1699
I34
aI54
atRp1700
sI691
g116
((lp1701
I34
aI54
atRp1702
sI692
g116
((lp1703
I54
atRp1704
sI693
g116
((lp1705
I54
atRp1706
sI694
g116
((lp1707
I81
aI42
aI54
atRp1708
sI695
g116
((lp1709
I99
aI54
atRp1710
sI696
g116
((lp1711
I85
aI54
atRp1712
sI697
g116
((lp1713
I54
atRp1714
sI698
g116
((lp1715
I57
aI54
atRp1716
sI699
g116
((lp1717
I98
aI46
aI54
atRp1718
sI700
g116
((lp1719
I54
atRp1720
sI701
g116
((lp1721
I54
atRp1722
sI702
g116
((lp1723
I54
atRp1724
sI703
g116
((lp1725
I83
aI54
atRp1726
sI704
g116
((lp1727
I36
aI54
atRp1728
sI705
g116
((lp1729
I54
atRp1730
sI706
g116
((lp1731
I42
aI52
aI54
atRp1732
sI707
g116
((lp1733
I54
atRp1734
sI708
g116
((lp1735
I54
atRp1736
sI709
g116
((lp1737
I28
aI54
aI87
atRp1738
sI710
g116
((lp1739
I42
aI36
aI53
aI31
atRp1740
sI711
g116
((lp1741
I30
aI62
aI31
atRp1742
sI712
g116
((lp1743
I22
aI31
atRp1744
sI713
g116
((lp1745
I23
aI31
atRp1746
sI714
g116
((lp1747
I91
aI36
aI31
atRp1748
sI715
g116
((lp1749
I31
atRp1750
sI716
g116
((lp1751
I6
aI31
atRp1752
sI717
g116
((lp1753
I57
aI31
atRp1754
sI718
g116
((lp1755
I31
atRp1756
sI719
g116
((lp1757
I31
atRp1758
sI720
g116
((lp1759
I31
atRp1760
sI721
g116
((lp1761
I96
aI31
atRp1762
sI722
g116
((lp1763
I31
atRp1764
sI723
g116
((lp1765
I97
aI31
atRp1766
sI724
g116
((lp1767
I64
aI96
aI31
atRp1768
sI725
g116
((lp1769
I10
aI31
atRp1770
sI726
g116
((lp1771
I21
aI31
atRp1772
sI727
g116
((lp1773
I2
aI31
atRp1774
sI728
g116
((lp1775
I79
aI31
atRp1776
sI729
g116
((lp1777
I68
aI31
atRp1778
sI730
g116
((lp1779
I83
aI93
aI31
atRp1780
sI731
g116
((lp1781
I31
atRp1782
sI732
g116
((lp1783
I92
aI31
atRp1784
sI733
g116
((lp1785
I59
aI21
aI31
atRp1786
sI734
g116
((lp1787
I9
aI31
atRp1788
sI735
g116
((lp1789
I57
aI83
aI86
aI31
atRp1790
sI736
g116
((lp1791
I9
aI86
aI31
atRp1792
sI737
g116
((lp1793
I31
atRp1794
sI738
g116
((lp1795
I31
atRp1796
sI739
g116
((lp1797
I31
atRp1798
sI740
g116
((lp1799
I36
aI86
atRp1800
sI741
g116
((lp1801
I36
aI21
aI6
atRp1802
sI742
g116
((lp1803
I10
aI36
aI87
atRp1804
sI743
g116
((lp1805
I51
aI36
atRp1806
sI744
g116
((lp1807
I36
aI55
atRp1808
sI745
g116
((lp1809
I56
aI36
atRp1810
sI746
g116
((lp1811
I58
aI36
atRp1812
sI747
g116
((lp1813
I36
atRp1814
sI748
g116
((lp1815
I66
aI75
aI36
aI55
atRp1816
sI749
g116
((lp1817
I36
aI6
atRp1818
sI750
g116
((lp1819
I36
aI69
atRp1820
sI751
g116
((lp1821
I58
aI36
aI70
atRp1822
sI752
g116
((lp1823
I72
aI36
atRp1824
sI753
g116
((lp1825
I81
aI36
atRp1826
sI754
g116
((lp1827
I36
aI46
atRp1828
sI755
g116
((lp1829
I75
aI36
atRp1830
sI756
g116
((lp1831
I83
aI59
aI36
atRp1832
sI757
g116
((lp1833
I36
aI37
atRp1834
sI758
g116
((lp1835
I57
aI36
aI9
atRp1836
sI759
g116
((lp1837
I36
atRp1838
sI760
g116
((lp1839
I36
atRp1840
sI761
g116
((lp1841
I96
aI67
aI36
aI5
aI87
atRp1842
sI762
g116
((lp1843
I98
aI36
atRp1844
sI763
g116
((lp1845
I84
aI36
aI89
aI52
atRp1846
sI764
g116
((lp1847
I66
aI36
atRp1848
sI765
g116
((lp1849
I18
aI36
atRp1850
sI766
g116
((lp1851
I36
atRp1852
sI767
g116
((lp1853
I36
atRp1854
sI768
g116
((lp1855
I36
atRp1856
sI769
g116
((lp1857
I44
aI36
atRp1858
sI770
g116
((lp1859
I25
aI86
atRp1860
sI771
g116
((lp1861
I25
aI52
aI37
aI39
atRp1862
sI772
g116
((lp1863
I80
aI25
atRp1864
sI773
g116
((lp1865
I25
aI55
atRp1866
sI774
g116
((lp1867
I25
aI92
atRp1868
sI775
g116
((lp1869
I25
aI63
atRp1870
sI776
g116
((lp1871
I25
atRp1872
sI777
g116
((lp1873
I25
aI69
atRp1874
sI778
g116
((lp1875
I25
atRp1876
sI779
g116
((lp1877
I25
aI38
atRp1878
sI780
g116
((lp1879
I25
atRp1880
sI781
g116
((lp1881
I25
aI67
atRp1882
sI782
g116
((lp1883
I25
atRp1884
sI783
g116
((lp1885
I25
aI63
atRp1886
sI784
g116
((lp1887
I25
aI75
aI81
atRp1888
sI785
g116
((lp1889
I25
aI68
aI89
atRp1890
sI786
g116
((lp1891
I25
aI6
atRp1892
sI787
g116
((lp1893
I25
atRp1894
sI788
g116
((lp1895
I25
aI52
atRp1896
sI789
g116
((lp1897
I25
atRp1898
sI790
g116
((lp1899
I25
aI34
aI39
atRp1900
sI791
g116
((lp1901
I25
aI58
aI75
atRp1902
sI792
g116
((lp1903
I25
atRp1904
sI793
g116
((lp1905
I25
atRp1906
sI794
g116
((lp1907
I25
atRp1908
sI795
g116
((lp1909
I25
aI6
aI23
atRp1910
sI796
g116
((lp1911
I25
atRp1912
sI797
g116
((lp1913
I25
aI23
atRp1914
sI798
g116
((lp1915
I25
aI87
atRp1916
sI799
g116
((lp1917
I25
atRp1918
sI800
g116
((lp1919
I2
aI43
aI70
atRp1920
sI801
g116
((lp1921
I2
aI34
atRp1922
sI802
g116
((lp1923
I72
aI2
atRp1924
sI803
g116
((lp1925
I2
atRp1926
sI804
g116
((lp1927
I2
aI66
aI39
atRp1928
sI805
g116
((lp1929
I2
aI76
aI37
aI95
atRp1930
sI806
g116
((lp1931
I2
aI67
aI84
atRp1932
sI807
g116
((lp1933
I2
atRp1934
sI808
g116
((lp1935
I96
aI2
aI27
atRp1936
sI809
g116
((lp1937
I2
aI62
aI71
atRp1938
sI810
g116
((lp1939
I2
atRp1940
sI811
g116
((lp1941
I2
atRp1942
sI812
g116
((lp1943
I2
aI69
aI77
atRp1944
sI813
g116
((lp1945
I2
atRp1946
sI814
g116
((lp1947
I96
aI2
atRp1948
sI815
g116
((lp1949
I2
atRp1950
sI816
g116
((lp1951
I2
atRp1952
sI817
g116
((lp1953
I2
aI21
aI22
atRp1954
sI818
g116
((lp1955
I48
aI73
aI2
aI43
atRp1956
sI819
g116
((lp1957
I2
atRp1958
sI820
g116
((lp1959
I2
atRp1960
sI821
g116
((lp1961
I97
aI2
atRp1962
sI822
g116
((lp1963
I2
atRp1964
sI823
g116
((lp1965
I2
atRp1966
sI824
g116
((lp1967
I24
aI9
aI2
aI42
aI61
atRp1968
sI825
g116
((lp1969
I2
aI94
atRp1970
sI826
g116
((lp1971
I2
atRp1972
sI827
g116
((lp1973
I2
atRp1974
sI828
g116
((lp1975
I2
aI74
atRp1976
sI829
g116
((lp1977
I96
aI2
aI58
atRp1978
sI830
g116
((lp1979
I55
atRp1980
sI831
g116
((lp1981
I55
atRp1982
sI832
g116
((lp1983
I22
aI55
atRp1984
sI833
g116
((lp1985
I81
aI55
atRp1986
sI834
g116
((lp1987
I97
aI5
aI55
atRp1988
sI835
g116
((lp1989
I55
atRp1990
sI836
g116
((lp1991
I23
aI55
atRp1992
sI837
g116
((lp1993
I95
aI75
aI84
aI55
atRp1994
sI838
g116
((lp1995
I55
atRp1996
sI839
g116
((lp1997
I55
atRp1998
sI840
g116
((lp1999
I55
atRp2000
sI841
g116
((lp2001
I90
aI55
atRp2002
sI842
g116
((lp2003
I95
aI55
atRp2004
sI843
g116
((lp2005
I69
aI55
atRp2006
sI844
g116
((lp2007
I37
aI55
atRp2008
sI845
g116
((lp2009
I67
aI55
atRp2010
sI846
g116
((lp2011
I59
aI61
aI55
atRp2012
sI847
g116
((lp2013
I55
atRp2014
sI848
g116
((lp2015
I67
aI55
atRp2016
sI849
g116
((lp2017
I21
aI55
atRp2018
sI850
g116
((lp2019
I23
aI69
aI55
atRp2020
sI851
g116
((lp2021
I55
atRp2022
sI852
g116
((lp2023
I66
aI55
atRp2024
sI853
g116
((lp2025
I55
atRp2026
sI854
g116
((lp2027
I59
aI55
atRp2028
sI855
g116
((lp2029
I42
aI6
aI55
atRp2030
sI856
g116
((lp2031
I87
aI67
aI55
atRp2032
sI857
g116
((lp2033
I60
aI55
atRp2034
sI858
g116
((lp2035
I55
atRp2036
sI859
g116
((lp2037
I22
aI55
atRp2038
sI860
g116
((lp2039
I59
aI86
atRp2040
sI861
g116
((lp2041
I59
atRp2042
sI862
g116
((lp2043
I59
aI62
atRp2044
sI863
g116
((lp2045
I59
aI77
aI86
atRp2046
sI864
g116
((lp2047
I59
atRp2048
sI865
g116
((lp2049
I59
aI93
atRp2050
sI866
g116
((lp2051
I82
aI59
atRp2052
sI867
g116
((lp2053
I59
atRp2054
sI868
g116
((lp2055
I59
atRp2056
sI869
g116
((lp2057
I59
aI68
aI69
atRp2058
sI870
g116
((lp2059
I59
atRp2060
sI871
g116
((lp2061
I67
aI59
aI63
atRp2062
sI872
g116
((lp2063
I59
atRp2064
sI873
g116
((lp2065
I59
atRp2066
sI874
g116
((lp2067
I42
aI59
atRp2068
sI875
g116
((lp2069
I59
atRp2070
sI876
g116
((lp2071
I59
aI21
atRp2072
sI877
g116
((lp2073
I59
atRp2074
sI878
g116
((lp2075
I59
atRp2076
sI879
g116
((lp2077
I24
aI57
aI59
atRp2078
sI880
g116
((lp2079
I59
aI94
aI95
atRp2080
sI881
g116
((lp2081
I59
atRp2082
sI882
g116
((lp2083
I59
atRp2084
sI883
g116
((lp2085
I59
atRp2086
sI884
g116
((lp2087
I26
aI59
atRp2088
sI885
g116
((lp2089
I75
aI59
aI86
aI63
atRp2090
sI886
g116
((lp2091
I97
aI59
atRp2092
sI887
g116
((lp2093
I59
atRp2094
sI888
g116
((lp2095
I59
aI46
atRp2096
sI889
g116
((lp2097
I59
atRp2098
sI890
g116
((lp2099
I44
atRp2100
sI891
g116
((lp2101
I44
aI85
aI94
atRp2102
sI892
g116
((lp2103
I44
aI93
atRp2104
sI893
g116
((lp2105
I65
aI44
aI22
atRp2106
sI894
g116
((lp2107
I48
aI44
atRp2108
sI895
g116
((lp2109
I44
atRp2110
sI896
g116
((lp2111
I58
aI44
aI77
atRp2112
sI897
g116
((lp2113
I97
aI58
aI44
atRp2114
sI898
g116
((lp2115
I44
atRp2116
sI899
g116
((lp2117
I44
atRp2118
sI900
g116
((lp2119
I9
aI44
atRp2120
sI901
g116
((lp2121
I44
atRp2122
sI902
g116
((lp2123
I89
aI42
aI44
aI47
atRp2124
sI903
g116
((lp2125
I44
atRp2126
sI904
g116
((lp2127
I96
aI44
atRp2128
sI905
g116
((lp2129
I44
aI46
atRp2130
sI906
g116
((lp2131
I44
aI6
atRp2132
sI907
g116
((lp2133
I56
aI44
atRp2134
sI908
g116
((lp2135
I44
atRp2136
sI909
g116
((lp2137
I44
atRp2138
sI910
g116
((lp2139
I56
aI44
atRp2140
sI911
g116
((lp2141
I44
atRp2142
sI912
g116
((lp2143
I44
atRp2144
sI913
g116
((lp2145
I44
atRp2146
sI914
g116
((lp2147
I72
aI44
aI38
atRp2148
sI915
g116
((lp2149
I44
atRp2150
sI916
g116
((lp2151
I44
atRp2152
sI917
g116
((lp2153
I51
aI44
aI61
atRp2154
sI918
g116
((lp2155
I84
aI44
atRp2156
sI919
g116
((lp2157
I44
atRp2158
sI920
g116
((lp2159
I42
atRp2160
sI921
g116
((lp2161
I42
atRp2162
sI922
g116
((lp2163
I42
atRp2164
sI923
g116
((lp2165
I42
aI26
atRp2166
sI924
g116
((lp2167
I42
aI74
atRp2168
sI925
g116
((lp2169
I42
atRp2170
sI926
g116
((lp2171
I57
aI42
aI51
atRp2172
sI927
g116
((lp2173
I42
atRp2174
sI928
g116
((lp2175
I42
atRp2176
sI929
g116
((lp2177
I42
atRp2178
sI930
g116
((lp2179
I42
atRp2180
sI931
g116
((lp2181
I42
aI46
atRp2182
sI932
g116
((lp2183
I42
atRp2184
sI933
g116
((lp2185
I42
atRp2186
sI934
g116
((lp2187
I42
atRp2188
sI935
g116
((lp2189
I81
aI42
atRp2190
sI936
g116
((lp2191
I24
aI42
aI18
atRp2192
sI937
g116
((lp2193
I42
atRp2194
sI938
g116
((lp2195
I42
atRp2196
sI939
g116
((lp2197
I42
aI86
atRp2198
sI940
g116
((lp2199
I42
atRp2200
sI941
g116
((lp2201
I42
atRp2202
sI942
g116
((lp2203
I42
atRp2204
sI943
g116
((lp2205
I89
aI42
atRp2206
sI944
g116
((lp2207
I42
atRp2208
sI945
g116
((lp2209
I42
atRp2210
sI946
g116
((lp2211
I42
aI71
atRp2212
sI947
g116
((lp2213
I42
aI30
atRp2214
sI948
g116
((lp2215
I42
atRp2216
sI949
g116
((lp2217
I42
atRp2218
sI950
g116
((lp2219
I57
atRp2220
sI951
g116
((lp2221
I57
aI85
aI63
atRp2222
sI952
g116
((lp2223
I57
atRp2224
sI953
g116
((lp2225
I57
atRp2226
sI954
g116
((lp2227
I57
aI98
aI30
atRp2228
sI955
g116
((lp2229
I57
aI74
atRp2230
sI956
g116
((lp2231
I57
atRp2232
sI957
g116
((lp2233
I57
aI91
atRp2234
sI958
g116
((lp2235
I57
atRp2236
sI959
g116
((lp2237
I57
atRp2238
sI960
g116
((lp2239
I57
atRp2240
sI961
g116
((lp2241
I57
aI37
atRp2242
sI962
g116
((lp2243
I57
atRp2244
sI963
g116
((lp2245
I57
atRp2246
sI964
g116
((lp2247
I24
aI57
aI27
atRp2248
sI965
g116
((lp2249
I57
aI60
atRp2250
sI966
g116
((lp2251
I57
aI75
atRp2252
sI967
g116
((lp2253
I57
atRp2254
sI968
g116
((lp2255
I57
aI52
atRp2256
sI969
g116
((lp2257
I57
aI82
aI95
atRp2258
sI970
g116
((lp2259
I57
atRp2260
sI971
g116
((lp2261
I57
aI38
aI79
atRp2262
sI972
g116
((lp2263
I57
aI65
atRp2264
sI973
g116
((lp2265
I57
aI67
atRp2266
sI974
g116
((lp2267
I57
atRp2268
sI975
g116
((lp2269
I57
aI46
aI23
atRp2270
sI976
g116
((lp2271
I57
atRp2272
sI977
g116
((lp2273
I57
aI34
atRp2274
sI978
g116
((lp2275
I57
atRp2276
sI979
g116
((lp2277
I57
atRp2278
sI980
g116
((lp2279
I51
aI76
aI21
aI30
atRp2280
sI981
g116
((lp2281
I21
atRp2282
sI982
g116
((lp2283
I21
aI85
atRp2284
sI983
g116
((lp2285
I21
atRp2286
sI984
g116
((lp2287
I21
atRp2288
sI985
g116
((lp2289
I21
atRp2290
sI986
g116
((lp2291
I21
aI87
atRp2292
sI987
g116
((lp2293
I21
atRp2294
sI988
g116
((lp2295
I21
atRp2296
sI989
g116
((lp2297
I21
atRp2298
sI990
g116
((lp2299
I24
aI21
aI63
atRp2300
sI991
g116
((lp2301
I21
atRp2302
sI992
g116
((lp2303
I21
atRp2304
sI993
g116
((lp2305
I68
aI21
atRp2306
sI994
g116
((lp2307
I68
aI21
atRp2308
sI995
g116
((lp2309
I21
aI38
atRp2310
sI996
g116
((lp2311
I68
aI21
aI71
atRp2312
sI997
g116
((lp2313
I21
aI37
atRp2314
sI998
g116
((lp2315
I21
atRp2316
sI999
g116
((lp2317
I21
atRp2318
sI1000
g116
((lp2319
I81
aI21
aI69
atRp2320
sI1001
g116
((lp2321
I88
aI65
aI21
aI62
aI71
atRp2322
sI1002
g116
((lp2323
I21
aI38
atRp2324
sI1003
g116
((lp2325
I18
aI21
atRp2326
sI1004
g116
((lp2327
I21
atRp2328
sI1005
g116
((lp2329
I21
atRp2330
sI1006
g116
((lp2331
I97
aI21
atRp2332
sI1007
g116
((lp2333
I9
aI21
atRp2334
sI1008
g116
((lp2335
I21
atRp2336
sI1009
g116
((lp2337
I21
atRp2338
sI1010
g116
((lp2339
I58
atRp2340
sI1011
g116
((lp2341
I58
aI84
atRp2342
sI1012
g116
((lp2343
I48
aI58
atRp2344
sI1013
g116
((lp2345
I58
atRp2346
sI1014
g116
((lp2347
I58
atRp2348
sI1015
g116
((lp2349
I58
atRp2350
sI1016
g116
((lp2351
I58
atRp2352
sI1017
g116
((lp2353
I58
atRp2354
sI1018
g116
((lp2355
I58
atRp2356
sI1019
g116
((lp2357
I58
atRp2358
sI1020
g116
((lp2359
I58
atRp2360
sI1021
g116
((lp2361
I64
aI58
atRp2362
sI1022
g116
((lp2363
I58
aI82
aI37
atRp2364
sI1023
g116
((lp2365
I64
aI58
aI95
atRp2366
sI1024
g116
((lp2367
I48
aI58
atRp2368
sI1025
g116
((lp2369
I58
atRp2370
sI1026
g116
((lp2371
I58
atRp2372
sI1027
g116
((lp2373
I58
atRp2374
sI1028
g116
((lp2375
I24
aI58
atRp2376
sI1029
g116
((lp2377
I58
aI95
atRp2378
sI1030
g116
((lp2379
I58
aI28
atRp2380
sI1031
g116
((lp2381
I73
aI58
aI26
atRp2382
sI1032
g116
((lp2383
I58
aI37
atRp2384
sI1033
g116
((lp2385
I58
aI99
atRp2386
sI1034
g116
((lp2387
I81
aI58
atRp2388
sI1035
g116
((lp2389
I58
atRp2390
sI1036
g116
((lp2391
I58
atRp2392
sI1037
g116
((lp2393
I58
aI52
aI10
atRp2394
sI1038
g116
((lp2395
I97
aI58
atRp2396
sI1039
g116
((lp2397
I58
aI67
atRp2398
sI1040
g116
((lp2399
I56
aI34
aI67
atRp2400
sI1041
g116
((lp2401
I67
aI22
atRp2402
sI1042
g116
((lp2403
I67
atRp2404
sI1043
g116
((lp2405
I99
aI67
aI6
atRp2406
sI1044
g116
((lp2407
I67
atRp2408
sI1045
g116
((lp2409
I24
aI97
aI67
atRp2410
sI1046
g116
((lp2411
I67
atRp2412
sI1047
g116
((lp2413
I67
atRp2414
sI1048
g116
((lp2415
I81
aI67
atRp2416
sI1049
g116
((lp2417
I67
atRp2418
sI1050
g116
((lp2419
I51
aI67
aI52
aI22
atRp2420
sI1051
g116
((lp2421
I67
atRp2422
sI1052
g116
((lp2423
I67
atRp2424
sI1053
g116
((lp2425
I67
atRp2426
sI1054
g116
((lp2427
I67
atRp2428
sI1055
g116
((lp2429
I67
aI76
aI47
atRp2430
sI1056
g116
((lp2431
I67
atRp2432
sI1057
g116
((lp2433
I67
atRp2434
sI1058
g116
((lp2435
I67
atRp2436
sI1059
g116
((lp2437
I43
aI67
atRp2438
sI1060
g116
((lp2439
I11
aI43
aI67
atRp2440
sI1061
g116
((lp2441
I67
atRp2442
sI1062
g116
((lp2443
I67
atRp2444
sI1063
g116
((lp2445
I67
aI5
atRp2446
sI1064
g116
((lp2447
I67
atRp2448
sI1065
g116
((lp2449
I67
aI52
atRp2450
sI1066
g116
((lp2451
I96
aI67
atRp2452
sI1067
g116
((lp2453
I67
aI5
atRp2454
sI1068
g116
((lp2455
I67
atRp2456
sI1069
g116
((lp2457
I67
atRp2458
sI1070
g116
((lp2459
I81
atRp2460
sI1071
g116
((lp2461
I81
atRp2462
sI1072
g116
((lp2463
I81
atRp2464
sI1073
g116
((lp2465
I81
atRp2466
sI1074
g116
((lp2467
I81
atRp2468
sI1075
g116
((lp2469
I81
aI61
atRp2470
sI1076
g116
((lp2471
I81
atRp2472
sI1077
g116
((lp2473
I81
aI87
atRp2474
sI1078
g116
((lp2475
I81
atRp2476
sI1079
g116
((lp2477
I81
atRp2478
sI1080
g116
((lp2479
I81
atRp2480
sI1081
g116
((lp2481
I81
atRp2482
sI1082
g116
((lp2483
I81
aI51
atRp2484
sI1083
g116
((lp2485
I81
aI18
aI5
atRp2486
sI1084
g116
((lp2487
I81
atRp2488
sI1085
g116
((lp2489
I81
aI92
atRp2490
sI1086
g116
((lp2491
I81
aI37
atRp2492
sI1087
g116
((lp2493
I72
aI81
atRp2494
sI1088
g116
((lp2495
I81
atRp2496
sI1089
g116
((lp2497
I81
aI74
atRp2498
sI1090
g116
((lp2499
I81
aI70
atRp2500
sI1091
g116
((lp2501
I81
aI75
aI23
atRp2502
sI1092
g116
((lp2503
I81
atRp2504
sI1093
g116
((lp2505
I81
atRp2506
sI1094
g116
((lp2507
I81
atRp2508
sI1095
g116
((lp2509
I81
aI60
atRp2510
sI1096
g116
((lp2511
I48
aI81
aI66
atRp2512
sI1097
g116
((lp2513
I56
aI81
aI76
aI93
atRp2514
sI1098
g116
((lp2515
I81
atRp2516
sI1099
g116
((lp2517
I81
aI84
atRp2518
sI1100
g116
((lp2519
I75
atRp2520
sI1101
g116
((lp2521
I75
atRp2522
sI1102
g116
((lp2523
I75
atRp2524
sI1103
g116
((lp2525
I75
atRp2526
sI1104
g116
((lp2527
I34
aI75
atRp2528
sI1105
g116
((lp2529
I80
aI90
aI75
atRp2530
sI1106
g116
((lp2531
I97
aI75
atRp2532
sI1107
g116
((lp2533
I64
aI75
atRp2534
sI1108
g116
((lp2535
I10
aI75
atRp2536
sI1109
g116
((lp2537
I75
atRp2538
sI1110
g116
((lp2539
I18
aI75
atRp2540
sI1111
g116
((lp2541
I75
atRp2542
sI1112
g116
((lp2543
I96
aI75
atRp2544
sI1113
g116
((lp2545
I75
atRp2546
sI1114
g116
((lp2547
I75
atRp2548
sI1115
g116
((lp2549
I51
aI75
aI46
atRp2550
sI1116
g116
((lp2551
I75
aI38
atRp2552
sI1117
g116
((lp2553
I75
aI71
atRp2554
sI1118
g116
((lp2555
I75
aI94
atRp2556
sI1119
g116
((lp2557
I75
aI28
aI53
atRp2558
sI1120
g116
((lp2559
I75
aI5
atRp2560
sI1121
g116
((lp2561
I82
aI75
aI38
atRp2562
sI1122
g116
((lp2563
I75
atRp2564
sI1123
g116
((lp2565
I75
aI37
atRp2566
sI1124
g116
((lp2567
I64
aI75
aI69
atRp2568
sI1125
g116
((lp2569
I27
aI10
aI75
aI84
atRp2570
sI1126
g116
((lp2571
I80
aI75
atRp2572
sI1127
g116
((lp2573
I75
atRp2574
sI1128
g116
((lp2575
I75
aI76
atRp2576
sI1129
g116
((lp2577
I75
atRp2578
sI1130
g116
((lp2579
I39
aI23
atRp2580
sI1131
g116
((lp2581
I23
atRp2582
sI1132
g116
((lp2583
I24
aI48
aI23
atRp2584
sI1133
g116
((lp2585
I60
aI23
atRp2586
sI1134
g116
((lp2587
I23
atRp2588
sI1135
g116
((lp2589
I23
atRp2590
sI1136
g116
((lp2591
I23
atRp2592
sI1137
g116
((lp2593
I52
aI23
atRp2594
sI1138
g116
((lp2595
I43
aI86
aI23
atRp2596
sI1139
g116
((lp2597
I26
aI46
aI23
atRp2598
sI1140
g116
((lp2599
I73
aI23
atRp2600
sI1141
g116
((lp2601
I23
atRp2602
sI1142
g116
((lp2603
I23
atRp2604
sI1143
g116
((lp2605
I39
aI23
atRp2606
sI1144
g116
((lp2607
I23
atRp2608
sI1145
g116
((lp2609
I23
atRp2610
sI1146
g116
((lp2611
I23
atRp2612
sI1147
g116
((lp2613
I23
atRp2614
sI1148
g116
((lp2615
I23
atRp2616
sI1149
g116
((lp2617
I23
atRp2618
sI1150
g116
((lp2619
I23
atRp2620
sI1151
g116
((lp2621
I47
aI23
atRp2622
sI1152
g116
((lp2623
I51
aI23
atRp2624
sI1153
g116
((lp2625
I23
atRp2626
sI1154
g116
((lp2627
I76
aI62
aI23
atRp2628
sI1155
g116
((lp2629
I96
aI23
atRp2630
sI1156
g116
((lp2631
I89
aI23
atRp2632
sI1157
g116
((lp2633
I26
aI23
atRp2634
sI1158
g116
((lp2635
I23
atRp2636
sI1159
g116
((lp2637
I56
aI34
aI87
aI23
atRp2638
sI1160
g116
((lp2639
I69
atRp2640
sI1161
g116
((lp2641
I69
atRp2642
sI1162
g116
((lp2643
I69
atRp2644
sI1163
g116
((lp2645
I69
atRp2646
sI1164
g116
((lp2647
I69
atRp2648
sI1165
g116
((lp2649
I69
aI39
atRp2650
sI1166
g116
((lp2651
I69
atRp2652
sI1167
g116
((lp2653
I90
aI28
aI69
atRp2654
sI1168
g116
((lp2655
I69
atRp2656
sI1169
g116
((lp2657
I72
aI69
atRp2658
sI1170
g116
((lp2659
I73
aI69
atRp2660
sI1171
g116
((lp2661
I69
atRp2662
sI1172
g116
((lp2663
I69
atRp2664
sI1173
g116
((lp2665
I69
atRp2666
sI1174
g116
((lp2667
I69
aI62
aI87
atRp2668
sI1175
g116
((lp2669
I69
atRp2670
sI1176
g116
((lp2671
I69
atRp2672
sI1177
g116
((lp2673
I69
atRp2674
sI1178
g116
((lp2675
I69
atRp2676
sI1179
g116
((lp2677
I69
atRp2678
sI1180
g116
((lp2679
I69
atRp2680
sI1181
g116
((lp2681
I69
atRp2682
sI1182
g116
((lp2683
I69
atRp2684
sI1183
g116
((lp2685
I68
aI69
atRp2686
sI1184
g116
((lp2687
I69
atRp2688
sI1185
g116
((lp2689
I69
atRp2690
sI1186
g116
((lp2691
I98
aI69
aI39
atRp2692
sI1187
g116
((lp2693
I9
aI69
aI94
atRp2694
sI1188
g116
((lp2695
I92
aI69
atRp2696
sI1189
g116
((lp2697
I69
atRp2698
sI1190
g116
((lp2699
I37
atRp2700
sI1191
g116
((lp2701
I37
atRp2702
sI1192
g116
((lp2703
I82
aI37
atRp2704
sI1193
g116
((lp2705
I37
atRp2706
sI1194
g116
((lp2707
I37
atRp2708
sI1195
g116
((lp2709
I37
atRp2710
sI1196
g116
((lp2711
I96
aI92
aI37
atRp2712
sI1197
g116
((lp2713
I37
atRp2714
sI1198
g116
((lp2715
I98
aI37
atRp2716
sI1199
g116
((lp2717
I37
atRp2718
sI1200
g116
((lp2719
I37
atRp2720
sI1201
g116
((lp2721
I37
atRp2722
sI1202
g116
((lp2723
I99
aI37
atRp2724
sI1203
g116
((lp2725
I37
aI39
atRp2726
sI1204
g116
((lp2727
I24
aI37
atRp2728
sI1205
g116
((lp2729
I37
atRp2730
sI1206
g116
((lp2731
I37
atRp2732
sI1207
g116
((lp2733
I82
aI37
atRp2734
sI1208
g116
((lp2735
I37
aI39
atRp2736
sI1209
g116
((lp2737
I37
atRp2738
sI1210
g116
((lp2739
I91
aI37
atRp2740
sI1211
g116
((lp2741
I80
aI97
aI37
atRp2742
sI1212
g116
((lp2743
I52
aI37
atRp2744
sI1213
g116
((lp2745
I37
atRp2746
sI1214
g116
((lp2747
I37
aI78
atRp2748
sI1215
g116
((lp2749
I37
atRp2750
sI1216
g116
((lp2751
I24
aI37
atRp2752
sI1217
g116
((lp2753
I92
aI37
aI87
atRp2754
sI1218
g116
((lp2755
I37
atRp2756
sI1219
g116
((lp2757
I11
aI51
aI37
atRp2758
sI1220
g116
((lp2759
I24
atRp2760
sI1221
g116
((lp2761
I24
aI11
atRp2762
sI1222
g116
((lp2763
I24
aI66
atRp2764
sI1223
g116
((lp2765
I24
atRp2766
sI1224
g116
((lp2767
I24
atRp2768
sI1225
g116
((lp2769
I24
atRp2770
sI1226
g116
((lp2771
I24
atRp2772
sI1227
g116
((lp2773
I24
aI18
aI92
atRp2774
sI1228
g116
((lp2775
I24
atRp2776
sI1229
g116
((lp2777
I24
aI61
aI63
atRp2778
sI1230
g116
((lp2779
I24
atRp2780
sI1231
g116
((lp2781
I24
atRp2782
sI1232
g116
((lp2783
I24
aI87
atRp2784
sI1233
g116
((lp2785
I24
atRp2786
sI1234
g116
((lp2787
I24
atRp2788
sI1235
g116
((lp2789
I24
atRp2790
sI1236
g116
((lp2791
I24
atRp2792
sI1237
g116
((lp2793
I24
atRp2794
sI1238
g116
((lp2795
I24
atRp2796
sI1239
g116
((lp2797
I24
atRp2798
sI1240
g116
((lp2799
I24
aI70
aI6
atRp2800
sI1241
g116
((lp2801
I24
aI5
atRp2802
sI1242
g116
((lp2803
I24
aI64
aI99
atRp2804
sI1243
g116
((lp2805
I24
aI80
aI34
atRp2806
sI1244
g116
((lp2807
I24
aI80
atRp2808
sI1245
g116
((lp2809
I24
aI74
atRp2810
sI1246
g116
((lp2811
I24
aI94
atRp2812
sI1247
g116
((lp2813
I24
aI62
atRp2814
sI1248
g116
((lp2815
I24
aI26
atRp2816
sI1249
g116
((lp2817
I24
aI34
atRp2818
sI1250
g116
((lp2819
I51
atRp2820
sI1251
g116
((lp2821
I49
aI51
atRp2822
sI1252
g116
((lp2823
I82
aI51
aI93
aI70
atRp2824
sI1253
g116
((lp2825
I51
atRp2826
sI1254
g116
((lp2827
I27
aI51
atRp2828
sI1255
g116
((lp2829
I89
aI51
aI65
aI6
aI73
atRp2830
sI1256
g116
((lp2831
I51
atRp2832
sI1257
g116
((lp2833
I76
aI51
aI84
atRp2834
sI1258
g116
((lp2835
I51
atRp2836
sI1259
g116
((lp2837
I9
aI51
atRp2838
sI1260
g116
((lp2839
I51
atRp2840
sI1261
g116
((lp2841
I82
aI51
atRp2842
sI1262
g116
((lp2843
I9
aI51
atRp2844
sI1263
g116
((lp2845
I51
atRp2846
sI1264
g116
((lp2847
I51
aI95
atRp2848
sI1265
g116
((lp2849
I51
atRp2850
sI1266
g116
((lp2851
I51
atRp2852
sI1267
g116
((lp2853
I91
aI51
atRp2854
sI1268
g116
((lp2855
I51
atRp2856
sI1269
g116
((lp2857
I51
aI84
atRp2858
sI1270
g116
((lp2859
I51
aI39
atRp2860
sI1271
g116
((lp2861
I10
aI51
atRp2862
sI1272
g116
((lp2863
I51
aI46
atRp2864
sI1273
g116
((lp2865
I51
atRp2866
sI1274
g116
((lp2867
I51
atRp2868
sI1275
g116
((lp2869
I66
aI51
atRp2870
sI1276
g116
((lp2871
I51
aI60
aI87
atRp2872
sI1277
g116
((lp2873
I51
atRp2874
sI1278
g116
((lp2875
I96
aI51
atRp2876
sI1279
g116
((lp2877
I72
aI73
aI51
atRp2878
sI1280
g116
((lp2879
I5
atRp2880
sI1281
g116
((lp2881
I5
atRp2882
sI1282
g116
((lp2883
I5
aI78
aI47
aI53
aI88
aI26
atRp2884
sI1283
g116
((lp2885
I48
aI5
atRp2886
sI1284
g116
((lp2887
I82
aI18
aI5
atRp2888
sI1285
g116
((lp2889
I27
aI5
atRp2890
sI1286
g116
((lp2891
I5
aI79
atRp2892
sI1287
g116
((lp2893
I97
aI5
atRp2894
sI1288
g116
((lp2895
I78
aI5
aI86
atRp2896
sI1289
g116
((lp2897
I5
aI6
atRp2898
sI1290
g116
((lp2899
I5
aI94
atRp2900
sI1291
g116
((lp2901
I5
aI85
atRp2902
sI1292
g116
((lp2903
I5
atRp2904
sI1293
g116
((lp2905
I72
aI88
aI5
atRp2906
sI1294
g116
((lp2907
I88
aI91
aI5
atRp2908
sI1295
g116
((lp2909
I90
aI5
atRp2910
sI1296
g116
((lp2911
I5
atRp2912
sI1297
g116
((lp2913
I88
aI5
atRp2914
sI1298
g116
((lp2915
I68
aI5
atRp2916
sI1299
g116
((lp2917
I5
atRp2918
sI1300
g116
((lp2919
I9
aI5
atRp2920
sI1301
g116
((lp2921
I5
atRp2922
sI1302
g116
((lp2923
I5
atRp2924
sI1303
g116
((lp2925
I5
aI94
atRp2926
sI1304
g116
((lp2927
I96
aI5
atRp2928
sI1305
g116
((lp2929
I18
aI5
aI39
atRp2930
sI1306
g116
((lp2931
I5
atRp2932
sI1307
g116
((lp2933
I5
atRp2934
sI1308
g116
((lp2935
I5
atRp2936
sI1309
g116
((lp2937
I9
aI5
atRp2938
sI1310
g116
((lp2939
I6
atRp2940
sI1311
g116
((lp2941
I6
atRp2942
sI1312
g116
((lp2943
I6
atRp2944
sI1313
g116
((lp2945
I6
atRp2946
sI1314
g116
((lp2947
I6
atRp2948
sI1315
g116
((lp2949
I6
atRp2950
sI1316
g116
((lp2951
I6
atRp2952
sI1317
g116
((lp2953
I6
atRp2954
sI1318
g116
((lp2955
I6
atRp2956
sI1319
g116
((lp2957
I6
atRp2958
sI1320
g116
((lp2959
I6
atRp2960
sI1321
g116
((lp2961
I6
atRp2962
sI1322
g116
((lp2963
I72
aI6
atRp2964
sI1323
g116
((lp2965
I9
aI93
aI6
atRp2966
sI1324
g116
((lp2967
I6
atRp2968
sI1325
g116
((lp2969
I27
aI6
atRp2970
sI1326
g116
((lp2971
I73
aI61
aI6
aI85
atRp2972
sI1327
g116
((lp2973
I6
atRp2974
sI1328
g116
((lp2975
I27
aI6
aI39
atRp2976
sI1329
g116
((lp2977
I6
atRp2978
sI1330
g116
((lp2979
I27
aI6
atRp2980
sI1331
g116
((lp2981
I6
atRp2982
sI1332
g116
((lp2983
I76
aI6
atRp2984
sI1333
g116
((lp2985
I6
atRp2986
sI1334
g116
((lp2987
I6
atRp2988
sI1335
g116
((lp2989
I6
atRp2990
sI1336
g116
((lp2991
I6
atRp2992
sI1337
g116
((lp2993
I89
aI6
atRp2994
sI1338
g116
((lp2995
I6
atRp2996
sI1339
g116
((lp2997
I22
aI6
atRp2998
sI1340
g116
((lp2999
I9
atRp3000
sI1341
g116
((lp3001
I9
aI52
aI87
atRp3002
sI1342
g116
((lp3003
I9
atRp3004
sI1343
g116
((lp3005
I9
aI74
aI99
atRp3006
sI1344
g116
((lp3007
I9
atRp3008
sI1345
g116
((lp3009
I88
aI9
atRp3010
sI1346
g116
((lp3011
I9
aI68
aI89
atRp3012
sI1347
g116
((lp3013
I9
aI97
atRp3014
sI1348
g116
((lp3015
I9
atRp3016
sI1349
g116
((lp3017
I64
aI9
aI83
aI52
aI46
atRp3018
sI1350
g116
((lp3019
I9
atRp3020
sI1351
g116
((lp3021
I9
atRp3022
sI1352
g116
((lp3023
I9
aI79
atRp3024
sI1353
g116
((lp3025
I9
aI39
atRp3026
sI1354
g116
((lp3027
I9
atRp3028
sI1355
g116
((lp3029
I9
atRp3030
sI1356
g116
((lp3031
I9
atRp3032
sI1357
g116
((lp3033
I9
aI65
atRp3034
sI1358
g116
((lp3035
I9
aI98
atRp3036
sI1359
g116
((lp3037
I9
atRp3038
sI1360
g116
((lp3039
I9
aI74
aI68
atRp3040
sI1361
g116
((lp3041
I9
atRp3042
sI1362
g116
((lp3043
I9
atRp3044
sI1363
g116
((lp3045
I9
atRp3046
sI1364
g116
((lp3047
I9
atRp3048
sI1365
g116
((lp3049
I9
aI27
atRp3050
sI1366
g116
((lp3051
I9
aI28
atRp3052
sI1367
g116
((lp3053
I9
atRp3054
sI1368
g116
((lp3055
I9
atRp3056
sI1369
g116
((lp3057
I9
atRp3058
sI1370
g116
((lp3059
I34
aI71
atRp3060
sI1371
g116
((lp3061
I34
atRp3062
sI1372
g116
((lp3063
I34
atRp3064
sI1373
g116
((lp3065
I65
aI34
atRp3066
sI1374
g116
((lp3067
I34
aI52
atRp3068
sI1375
g116
((lp3069
I34
atRp3070
sI1376
g116
((lp3071
I34
atRp3072
sI1377
g116
((lp3073
I34
atRp3074
sI1378
g116
((lp3075
I34
aI38
aI46
aI39
atRp3076
sI1379
g116
((lp3077
I34
atRp3078
sI1380
g116
((lp3079
I34
atRp3080
sI1381
g116
((lp3081
I34
aI79
atRp3082
sI1382
g116
((lp3083
I88
aI34
atRp3084
sI1383
g116
((lp3085
I34
aI70
atRp3086
sI1384
g116
((lp3087
I34
atRp3088
sI1385
g116
((lp3089
I34
atRp3090
sI1386
g116
((lp3091
I34
atRp3092
sI1387
g116
((lp3093
I34
aI71
atRp3094
sI1388
g116
((lp3095
I34
aI74
atRp3096
sI1389
g116
((lp3097
I34
atRp3098
sI1390
g116
((lp3099
I34
atRp3100
sI1391
g116
((lp3101
I34
atRp3102
sI1392
g116
((lp3103
I34
atRp3104
sI1393
g116
((lp3105
I34
aI52
atRp3106
sI1394
g116
((lp3107
I34
atRp3108
sI1395
g116
((lp3109
I34
atRp3110
sI1396
g116
((lp3111
I34
aI90
atRp3112
sI1397
g116
((lp3113
I34
aI43
aI30
atRp3114
sI1398
g116
((lp3115
I34
aI86
atRp3116
sI1399
g116
((lp3117
I34
aI46
atRp3118
sI1400
g116
((lp3119
I68
aI87
atRp3120
sI1401
g116
((lp3121
I87
atRp3122
sI1402
g116
((lp3123
I87
atRp3124
sI1403
g116
((lp3125
I87
atRp3126
sI1404
g116
((lp3127
I48
aI84
aI87
atRp3128
sI1405
g116
((lp3129
I87
atRp3130
sI1406
g116
((lp3131
I87
atRp3132
sI1407
g116
((lp3133
I87
atRp3134
sI1408
g116
((lp3135
I87
atRp3136
sI1409
g116
((lp3137
I87
atRp3138
sI1410
g116
((lp3139
I87
atRp3140
sI1411
g116
((lp3141
I87
atRp3142
sI1412
g116
((lp3143
I76
aI87
atRp3144
sI1413
g116
((lp3145
I87
atRp3146
sI1414
g116
((lp3147
I87
atRp3148
sI1415
g116
((lp3149
I89
aI87
atRp3150
sI1416
g116
((lp3151
I87
atRp3152
sI1417
g116
((lp3153
I87
atRp3154
sI1418
g116
((lp3155
I60
aI87
atRp3156
sI1419
g116
((lp3157
I91
aI87
atRp3158
sI1420
g116
((lp3159
I87
atRp3160
sI1421
g116
((lp3161
I87
atRp3162
sI1422
g116
((lp3163
I84
aI87
atRp3164
sI1423
g116
((lp3165
I87
atRp3166
sI1424
g116
((lp3167
I87
atRp3168
sI1425
g116
((lp3169
I53
aI87
atRp3170
sI1426
g116
((lp3171
I87
atRp3172
sI1427
g116
((lp3173
I87
atRp3174
sI1428
g116
((lp3175
I87
atRp3176
sI1429
g116
((lp3177
I28
aI87
atRp3178
sI1430
g116
((lp3179
I72
atRp3180
sI1431
g116
((lp3181
I72
aI52
atRp3182
sI1432
g116
((lp3183
I72
atRp3184
sI1433
g116
((lp3185
I72
atRp3186
sI1434
g116
((lp3187
I72
atRp3188
sI1435
g116
((lp3189
I72
aI91
atRp3190
sI1436
g116
((lp3191
I72
atRp3192
sI1437
g116
((lp3193
I72
aI70
atRp3194
sI1438
g116
((lp3195
I72
atRp3196
sI1439
g116
((lp3197
I72
aI49
atRp3198
sI1440
g116
((lp3199
I72
atRp3200
sI1441
g116
((lp3201
I72
atRp3202
sI1442
g116
((lp3203
I72
aI64
atRp3204
sI1443
g116
((lp3205
I72
atRp3206
sI1444
g116
((lp3207
I72
aI28
atRp3208
sI1445
g116
((lp3209
I72
atRp3210
sI1446
g116
((lp3211
I72
aI99
atRp3212
sI1447
g116
((lp3213
I72
aI70
atRp3214
sI1448
g116
((lp3215
I72
atRp3216
sI1449
g116
((lp3217
I72
atRp3218
sI1450
g116
((lp3219
I72
aI27
atRp3220
sI1451
g116
((lp3221
I72
atRp3222
sI1452
g116
((lp3223
I72
atRp3224
sI1453
g116
((lp3225
I72
aI74
atRp3226
sI1454
g116
((lp3227
I72
aI78
atRp3228
sI1455
g116
((lp3229
I72
aI82
atRp3230
sI1456
g116
((lp3231
I72
atRp3232
sI1457
g116
((lp3233
I72
aI68
aI38
atRp3234
sI1458
g116
((lp3235
I72
atRp3236
sI1459
g116
((lp3237
I72
atRp3238
sI1460
g116
((lp3239
I74
aI84
aI90
atRp3240
sI1461
g116
((lp3241
I80
aI84
aI39
atRp3242
sI1462
g116
((lp3243
I84
atRp3244
sI1463
g116
((lp3245
I84
atRp3246
sI1464
g116
((lp3247
I73
aI84
atRp3248
sI1465
g116
((lp3249
I84
atRp3250
sI1466
g116
((lp3251
I84
atRp3252
sI1467
g116
((lp3253
I88
aI84
atRp3254
sI1468
g116
((lp3255
I84
atRp3256
sI1469
g116
((lp3257
I84
aI22
atRp3258
sI1470
g116
((lp3259
I84
atRp3260
sI1471
g116
((lp3261
I84
atRp3262
sI1472
g116
((lp3263
I92
aI84
atRp3264
sI1473
g116
((lp3265
I88
aI68
aI84
atRp3266
sI1474
g116
((lp3267
I76
aI84
atRp3268
sI1475
g116
((lp3269
I84
atRp3270
sI1476
g116
((lp3271
I84
atRp3272
sI1477
g116
((lp3273
I82
aI84
atRp3274
sI1478
g116
((lp3275
I84
atRp3276
sI1479
g116
((lp3277
I48
aI84
aI53
atRp3278
sI1480
g116
((lp3279
I83
aI84
atRp3280
sI1481
g116
((lp3281
I84
atRp3282
sI1482
g116
((lp3283
I84
atRp3284
sI1483
g116
((lp3285
I84
atRp3286
sI1484
g116
((lp3287
I28
aI84
atRp3288
sI1485
g116
((lp3289
I84
atRp3290
sI1486
g116
((lp3291
I84
atRp3292
sI1487
g116
((lp3293
I84
atRp3294
sI1488
g116
((lp3295
I84
atRp3296
sI1489
g116
((lp3297
I84
atRp3298
sI1490
g116
((lp3299
I39
atRp3300
sI1491
g116
((lp3301
I39
atRp3302
sI1492
g116
((lp3303
I39
atRp3304
sI1493
g116
((lp3305
I39
atRp3306
sI1494
g116
((lp3307
I39
atRp3308
sI1495
g116
((lp3309
I39
atRp3310
sI1496
g116
((lp3311
I39
atRp3312
sI1497
g116
((lp3313
I39
atRp3314
sI1498
g116
((lp3315
I77
aI39
atRp3316
sI1499
g116
((lp3317
I27
aI39
atRp3318
sI1500
g116
((lp3319
I39
atRp3320
sI1501
g116
((lp3321
I82
aI39
atRp3322
sI1502
g116
((lp3323
I26
aI39
atRp3324
sI1503
g116
((lp3325
I95
aI39
atRp3326
sI1504
g116
((lp3327
I86
aI39
atRp3328
sI1505
g116
((lp3329
I39
atRp3330
sI1506
g116
((lp3331
I39
atRp3332
sI1507
g116
((lp3333
I97
aI68
aI39
atRp3334
sI1508
g116
((lp3335
I91
aI39
atRp3336
sI1509
g116
((lp3337
I76
aI39
atRp3338
sI1510
g116
((lp3339
I39
atRp3340
sI1511
g116
((lp3341
I63
aI61
aI39
atRp3342
sI1512
g116
((lp3343
I39
atRp3344
sI1513
g116
((lp3345
I39
atRp3346
sI1514
g116
((lp3347
I39
atRp3348
sI1515
g116
((lp3349
I39
atRp3350
sI1516
g116
((lp3351
I39
atRp3352
sI1517
g116
((lp3353
I39
atRp3354
sI1518
g116
((lp3355
I39
atRp3356
sI1519
g116
((lp3357
I39
atRp3358
sI1520
g116
((lp3359
I48
atRp3360
sI1521
g116
((lp3361
I48
aI60
aI47
atRp3362
sI1522
g116
((lp3363
I48
aI28
aI63
atRp3364
sI1523
g116
((lp3365
I48
aI62
atRp3366
sI1524
g116
((lp3367
I48
atRp3368
sI1525
g116
((lp3369
I48
atRp3370
sI1526
g116
((lp3371
I48
aI80
atRp3372
sI1527
g116
((lp3373
I48
atRp3374
sI1528
g116
((lp3375
I48
atRp3376
sI1529
g116
((lp3377
I48
atRp3378
sI1530
g116
((lp3379
I48
aI95
atRp3380
sI1531
g116
((lp3381
I48
atRp3382
sI1532
g116
((lp3383
I48
atRp3384
sI1533
g116
((lp3385
I48
atRp3386
sI1534
g116
((lp3387
I48
aI30
atRp3388
sI1535
g116
((lp3389
I48
atRp3390
sI1536
g116
((lp3391
I48
atRp3392
sI1537
g116
((lp3393
I48
aI86
atRp3394
sI1538
g116
((lp3395
I48
aI91
atRp3396
sI1539
g116
((lp3397
I48
atRp3398
sI1540
g116
((lp3399
I48
atRp3400
sI1541
g116
((lp3401
I48
atRp3402
sI1542
g116
((lp3403
I48
atRp3404
sI1543
g116
((lp3405
I48
atRp3406
sI1544
g116
((lp3407
I48
atRp3408
sI1545
g116
((lp3409
I48
aI66
aI28
atRp3410
sI1546
g116
((lp3411
I48
aI82
aI90
atRp3412
sI1547
g116
((lp3413
I48
atRp3414
sI1548
g116
((lp3415
I48
atRp3416
sI1549
g116
((lp3417
I48
aI28
aI30
aI79
atRp3418
sI1550
g116
((lp3419
I46
atRp3420
sI1551
g116
((lp3421
I46
atRp3422
sI1552
g116
((lp3423
I46
atRp3424
sI1553
g116
((lp3425
I46
aI95
atRp3426
sI1554
g116
((lp3427
I97
aI66
aI90
aI46
atRp3428
sI1555
g116
((lp3429
I46
atRp3430
sI1556
g116
((lp3431
I46
atRp3432
sI1557
g116
((lp3433
I46
atRp3434
sI1558
g116
((lp3435
I46
atRp3436
sI1559
g116
((lp3437
I46
atRp3438
sI1560
g116
((lp3439
I46
atRp3440
sI1561
g116
((lp3441
I46
atRp3442
sI1562
g116
((lp3443
I46
atRp3444
sI1563
g116
((lp3445
I46
atRp3446
sI1564
g116
((lp3447
I46
atRp3448
sI1565
g116
((lp3449
I26
aI46
atRp3450
sI1566
g116
((lp3451
I46
atRp3452
sI1567
g116
((lp3453
I46
atRp3454
sI1568
g116
((lp3455
I46
atRp3456
sI1569
g116
((lp3457
I46
atRp3458
sI1570
g116
((lp3459
I46
atRp3460
sI1571
g116
((lp3461
I46
atRp3462
sI1572
g116
((lp3463
I46
atRp3464
sI1573
g116
((lp3465
I68
aI46
atRp3466
sI1574
g116
((lp3467
I85
aI46
atRp3468
sI1575
g116
((lp3469
I88
aI46
atRp3470
sI1576
g116
((lp3471
I46
atRp3472
sI1577
g116
((lp3473
I46
atRp3474
sI1578
g116
((lp3475
I46
atRp3476
sI1579
g116
((lp3477
I38
aI46
atRp3478
sI1580
g116
((lp3479
I82
aI47
atRp3480
sI1581
g116
((lp3481
I82
atRp3482
sI1582
g116
((lp3483
I82
atRp3484
sI1583
g116
((lp3485
I82
aI90
aI53
atRp3486
sI1584
g116
((lp3487
I82
atRp3488
sI1585
g116
((lp3489
I56
aI82
atRp3490
sI1586
g116
((lp3491
I82
aI99
aI94
atRp3492
sI1587
g116
((lp3493
I82
aI62
atRp3494
sI1588
g116
((lp3495
I82
aI43
aI98
atRp3496
sI1589
g116
((lp3497
I82
atRp3498
sI1590
g116
((lp3499
I82
aI98
atRp3500
sI1591
g116
((lp3501
I82
aI91
atRp3502
sI1592
g116
((lp3503
I82
aI43
atRp3504
sI1593
g116
((lp3505
I82
atRp3506
sI1594
g116
((lp3507
I82
atRp3508
sI1595
g116
((lp3509
I82
atRp3510
sI1596
g116
((lp3511
I82
atRp3512
sI1597
g116
((lp3513
I82
atRp3514
sI1598
g116
((lp3515
I82
atRp3516
sI1599
g116
((lp3517
I56
aI82
atRp3518
sI1600
g116
((lp3519
I82
atRp3520
sI1601
g116
((lp3521
I82
atRp3522
sI1602
g116
((lp3523
I82
atRp3524
sI1603
g116
((lp3525
I82
atRp3526
sI1604
g116
((lp3527
I82
atRp3528
sI1605
g116
((lp3529
I82
atRp3530
sI1606
g116
((lp3531
I82
atRp3532
sI1607
g116
((lp3533
I82
aI83
atRp3534
sI1608
g116
((lp3535
I82
atRp3536
sI1609
g116
((lp3537
I82
atRp3538
sI1610
g116
((lp3539
I68
atRp3540
sI1611
g116
((lp3541
I68
atRp3542
sI1612
g116
((lp3543
I68
atRp3544
sI1613
g116
((lp3545
I68
atRp3546
sI1614
g116
((lp3547
I68
atRp3548
sI1615
g116
((lp3549
I68
atRp3550
sI1616
g116
((lp3551
I68
atRp3552
sI1617
g116
((lp3553
I68
atRp3554
sI1618
g116
((lp3555
I11
aI68
atRp3556
sI1619
g116
((lp3557
I68
atRp3558
sI1620
g116
((lp3559
I68
atRp3560
sI1621
g116
((lp3561
I68
atRp3562
sI1622
g116
((lp3563
I68
atRp3564
sI1623
g116
((lp3565
I68
atRp3566
sI1624
g116
((lp3567
I89
aI68
atRp3568
sI1625
g116
((lp3569
I68
aI94
aI86
atRp3570
sI1626
g116
((lp3571
I68
atRp3572
sI1627
g116
((lp3573
I68
atRp3574
sI1628
g116
((lp3575
I68
atRp3576
sI1629
g116
((lp3577
I68
atRp3578
sI1630
g116
((lp3579
I68
atRp3580
sI1631
g116
((lp3581
I68
atRp3582
sI1632
g116
((lp3583
I68
aI70
atRp3584
sI1633
g116
((lp3585
I68
atRp3586
sI1634
g116
((lp3587
I68
atRp3588
sI1635
g116
((lp3589
I80
aI68
atRp3590
sI1636
g116
((lp3591
I68
atRp3592
sI1637
g116
((lp3593
I68
atRp3594
sI1638
g116
((lp3595
I68
atRp3596
sI1639
g116
((lp3597
I68
atRp3598
sI1640
g116
((lp3599
I88
atRp3600
sI1641
g116
((lp3601
I88
atRp3602
sI1642
g116
((lp3603
I88
atRp3604
sI1643
g116
((lp3605
I88
atRp3606
sI1644
g116
((lp3607
I88
aI26
atRp3608
sI1645
g116
((lp3609
I88
aI49
aI79
atRp3610
sI1646
g116
((lp3611
I88
aI62
atRp3612
sI1647
g116
((lp3613
I88
aI85
atRp3614
sI1648
g116
((lp3615
I88
atRp3616
sI1649
g116
((lp3617
I88
atRp3618
sI1650
g116
((lp3619
I88
atRp3620
sI1651
g116
((lp3621
I88
atRp3622
sI1652
g116
((lp3623
I88
aI73
aI99
atRp3624
sI1653
g116
((lp3625
I88
atRp3626
sI1654
g116
((lp3627
I88
atRp3628
sI1655
g116
((lp3629
I88
atRp3630
sI1656
g116
((lp3631
I88
atRp3632
sI1657
g116
((lp3633
I88
atRp3634
sI1658
g116
((lp3635
I88
atRp3636
sI1659
g116
((lp3637
I88
atRp3638
sI1660
g116
((lp3639
I88
atRp3640
sI1661
g116
((lp3641
I88
atRp3642
sI1662
g116
((lp3643
I88
aI43
atRp3644
sI1663
g116
((lp3645
I88
aI96
atRp3646
sI1664
g116
((lp3647
I88
atRp3648
sI1665
g116
((lp3649
I88
atRp3650
sI1666
g116
((lp3651
I88
atRp3652
sI1667
g116
((lp3653
I88
atRp3654
sI1668
g116
((lp3655
I88
aI95
atRp3656
sI1669
g116
((lp3657
I88
aI26
atRp3658
sI1670
g116
((lp3659
I52
atRp3660
sI1671
g116
((lp3661
I52
atRp3662
sI1672
g116
((lp3663
I52
atRp3664
sI1673
g116
((lp3665
I43
aI52
atRp3666
sI1674
g116
((lp3667
I52
atRp3668
sI1675
g116
((lp3669
I52
aI61
atRp3670
sI1676
g116
((lp3671
I52
aI93
atRp3672
sI1677
g116
((lp3673
I52
atRp3674
sI1678
g116
((lp3675
I52
atRp3676
sI1679
g116
((lp3677
I52
atRp3678
sI1680
g116
((lp3679
I52
atRp3680
sI1681
g116
((lp3681
I52
atRp3682
sI1682
g116
((lp3683
I52
atRp3684
sI1683
g116
((lp3685
I43
aI52
atRp3686
sI1684
g116
((lp3687
I52
aI62
atRp3688
sI1685
g116
((lp3689
I52
atRp3690
sI1686
g116
((lp3691
I52
atRp3692
sI1687
g116
((lp3693
I52
atRp3694
sI1688
g116
((lp3695
I52
atRp3696
sI1689
g116
((lp3697
I52
atRp3698
sI1690
g116
((lp3699
I52
atRp3700
sI1691
g116
((lp3701
I52
atRp3702
sI1692
g116
((lp3703
I52
atRp3704
sI1693
g116
((lp3705
I52
atRp3706
sI1694
g116
((lp3707
I83
aI52
atRp3708
sI1695
g116
((lp3709
I52
atRp3710
sI1696
g116
((lp3711
I26
aI52
aI10
atRp3712
sI1697
g116
((lp3713
I52
aI93
atRp3714
sI1698
g116
((lp3715
I64
aI52
aI79
atRp3716
sI1699
g116
((lp3717
I28
aI52
atRp3718
sI1700
g116
((lp3719
I97
atRp3720
sI1701
g116
((lp3721
I97
atRp3722
sI1702
g116
((lp3723
I97
atRp3724
sI1703
g116
((lp3725
I97
atRp3726
sI1704
g116
((lp3727
I97
atRp3728
sI1705
g116
((lp3729
I97
aI27
aI92
aI60
atRp3730
sI1706
g116
((lp3731
I97
atRp3732
sI1707
g116
((lp3733
I97
atRp3734
sI1708
g116
((lp3735
I97
atRp3736
sI1709
g116
((lp3737
I97
atRp3738
sI1710
g116
((lp3739
I97
atRp3740
sI1711
g116
((lp3741
I97
atRp3742
sI1712
g116
((lp3743
I97
atRp3744
sI1713
g116
((lp3745
I97
aI47
atRp3746
sI1714
g116
((lp3747
I97
atRp3748
sI1715
g116
((lp3749
I97
atRp3750
sI1716
g116
((lp3751
I97
atRp3752
sI1717
g116
((lp3753
I97
atRp3754
sI1718
g116
((lp3755
I97
atRp3756
sI1719
g116
((lp3757
I97
atRp3758
sI1720
g116
((lp3759
I97
atRp3760
sI1721
g116
((lp3761
I97
aI71
aI89
atRp3762
sI1722
g116
((lp3763
I97
atRp3764
sI1723
g116
((lp3765
I97
aI77
atRp3766
sI1724
g116
((lp3767
I97
atRp3768
sI1725
g116
((lp3769
I97
atRp3770
sI1726
g116
((lp3771
I97
atRp3772
sI1727
g116
((lp3773
I97
atRp3774
sI1728
g116
((lp3775
I97
atRp3776
sI1729
g116
((lp3777
I97
atRp3778
sI1730
g116
((lp3779
I62
atRp3780
sI1731
g116
((lp3781
I62
atRp3782
sI1732
g116
((lp3783
I83
aI11
aI62
atRp3784
sI1733
g116
((lp3785
I62
atRp3786
sI1734
g116
((lp3787
I93
aI62
aI77
atRp3788
sI1735
g116
((lp3789
I62
atRp3790
sI1736
g116
((lp3791
I62
atRp3792
sI1737
g116
((lp3793
I62
atRp3794
sI1738
g116
((lp3795
I62
atRp3796
sI1739
g116
((lp3797
I62
atRp3798
sI1740
g116
((lp3799
I62
atRp3800
sI1741
g116
((lp3801
I86
aI62
atRp3802
sI1742
g116
((lp3803
I62
atRp3804
sI1743
g116
((lp3805
I62
aI47
atRp3806
sI1744
g116
((lp3807
I62
atRp3808
sI1745
g116
((lp3809
I62
atRp3810
sI1746
g116
((lp3811
I62
atRp3812
sI1747
g116
((lp3813
I62
atRp3814
sI1748
g116
((lp3815
I30
aI62
atRp3816
sI1749
g116
((lp3817
I62
atRp3818
sI1750
g116
((lp3819
I62
atRp3820
sI1751
g116
((lp3821
I62
atRp3822
sI1752
g116
((lp3823
I90
aI30
aI62
atRp3824
sI1753
g116
((lp3825
I62
atRp3826
sI1754
g116
((lp3827
I62
atRp3828
sI1755
g116
((lp3829
I62
atRp3830
sI1756
g116
((lp3831
I61
aI62
atRp3832
sI1757
g116
((lp3833
I10
aI62
atRp3834
sI1758
g116
((lp3835
I62
atRp3836
sI1759
g116
((lp3837
I91
aI62
atRp3838
sI1760
g116
((lp3839
I26
atRp3840
sI1761
g116
((lp3841
I26
atRp3842
sI1762
g116
((lp3843
I26
atRp3844
sI1763
g116
((lp3845
I26
aI78
atRp3846
sI1764
g116
((lp3847
I26
atRp3848
sI1765
g116
((lp3849
I26
aI38
atRp3850
sI1766
g116
((lp3851
I73
aI26
atRp3852
sI1767
g116
((lp3853
I26
atRp3854
sI1768
g116
((lp3855
I96
aI26
atRp3856
sI1769
g116
((lp3857
I26
atRp3858
sI1770
g116
((lp3859
I26
atRp3860
sI1771
g116
((lp3861
I26
atRp3862
sI1772
g116
((lp3863
I26
atRp3864
sI1773
g116
((lp3865
I26
atRp3866
sI1774
g116
((lp3867
I26
atRp3868
sI1775
g116
((lp3869
I26
aI99
atRp3870
sI1776
g116
((lp3871
I26
atRp3872
sI1777
g116
((lp3873
I26
atRp3874
sI1778
g116
((lp3875
I26
atRp3876
sI1779
g116
((lp3877
I26
atRp3878
sI1780
g116
((lp3879
I26
atRp3880
sI1781
g116
((lp3881
I26
atRp3882
sI1782
g116
((lp3883
I26
atRp3884
sI1783
g116
((lp3885
I26
atRp3886
sI1784
g116
((lp3887
I26
atRp3888
sI1785
g116
((lp3889
I26
atRp3890
sI1786
g116
((lp3891
I26
atRp3892
sI1787
g116
((lp3893
I26
atRp3894
sI1788
g116
((lp3895
I64
aI26
atRp3896
sI1789
g116
((lp3897
I26
aI99
atRp3898
sI1790
g116
((lp3899
I63
aI91
aI95
atRp3900
sI1791
g116
((lp3901
I95
atRp3902
sI1792
g116
((lp3903
I71
aI95
atRp3904
sI1793
g116
((lp3905
I95
atRp3906
sI1794
g116
((lp3907
I95
atRp3908
sI1795
g116
((lp3909
I89
aI91
aI95
atRp3910
sI1796
g116
((lp3911
I95
atRp3912
sI1797
g116
((lp3913
I95
atRp3914
sI1798
g116
((lp3915
I92
aI95
atRp3916
sI1799
g116
((lp3917
I61
aI95
atRp3918
sI1800
g116
((lp3919
I95
atRp3920
sI1801
g116
((lp3921
I95
atRp3922
sI1802
g116
((lp3923
I95
atRp3924
sI1803
g116
((lp3925
I95
atRp3926
sI1804
g116
((lp3927
I95
atRp3928
sI1805
g116
((lp3929
I89
aI98
aI95
atRp3930
sI1806
g116
((lp3931
I95
atRp3932
sI1807
g116
((lp3933
I98
aI77
aI95
atRp3934
sI1808
g116
((lp3935
I95
atRp3936
sI1809
g116
((lp3937
I95
atRp3938
sI1810
g116
((lp3939
I79
aI95
atRp3940
sI1811
g116
((lp3941
I94
aI95
atRp3942
sI1812
g116
((lp3943
I95
atRp3944
sI1813
g116
((lp3945
I95
atRp3946
sI1814
g116
((lp3947
I95
atRp3948
sI1815
g116
((lp3949
I99
aI95
atRp3950
sI1816
g116
((lp3951
I95
atRp3952
sI1817
g116
((lp3953
I95
atRp3954
sI1818
g116
((lp3955
I90
aI95
atRp3956
sI1819
g116
((lp3957
I95
atRp3958
sI1820
g116
((lp3959
I56
aI89
atRp3960
sI1821
g116
((lp3961
I89
atRp3962
sI1822
g116
((lp3963
I89
atRp3964
sI1823
g116
((lp3965
I89
atRp3966
sI1824
g116
((lp3967
I89
atRp3968
sI1825
g116
((lp3969
I89
atRp3970
sI1826
g116
((lp3971
I89
atRp3972
sI1827
g116
((lp3973
I89
atRp3974
sI1828
g116
((lp3975
I89
atRp3976
sI1829
g116
((lp3977
I89
atRp3978
sI1830
g116
((lp3979
I89
atRp3980
sI1831
g116
((lp3981
I89
atRp3982
sI1832
g116
((lp3983
I89
aI86
atRp3984
sI1833
g116
((lp3985
I96
aI89
atRp3986
sI1834
g116
((lp3987
I89
atRp3988
sI1835
g116
((lp3989
I89
aI43
atRp3990
sI1836
g116
((lp3991
I89
atRp3992
sI1837
g116
((lp3993
I89
atRp3994
sI1838
g116
((lp3995
I89
atRp3996
sI1839
g116
((lp3997
I89
atRp3998
sI1840
g116
((lp3999
I89
atRp4000
sI1841
g116
((lp4001
I89
atRp4002
sI1842
g116
((lp4003
I89
aI47
atRp4004
sI1843
g116
((lp4005
I89
atRp4006
sI1844
g116
((lp4007
I89
atRp4008
sI1845
g116
((lp4009
I89
atRp4010
sI1846
g116
((lp4011
I89
atRp4012
sI1847
g116
((lp4013
I89
atRp4014
sI1848
g116
((lp4015
I89
atRp4016
sI1849
g116
((lp4017
I89
atRp4018
sI1850
g116
((lp4019
I64
atRp4020
sI1851
g116
((lp4021
I64
aI83
atRp4022
sI1852
g116
((lp4023
I64
atRp4024
sI1853
g116
((lp4025
I64
atRp4026
sI1854
g116
((lp4027
I64
aI11
aI53
atRp4028
sI1855
g116
((lp4029
I64
atRp4030
sI1856
g116
((lp4031
I64
atRp4032
sI1857
g116
((lp4033
I64
atRp4034
sI1858
g116
((lp4035
I64
aI11
atRp4036
sI1859
g116
((lp4037
I64
aI83
atRp4038
sI1860
g116
((lp4039
I64
atRp4040
sI1861
g116
((lp4041
I64
atRp4042
sI1862
g116
((lp4043
I64
aI92
atRp4044
sI1863
g116
((lp4045
I64
atRp4046
sI1864
g116
((lp4047
I64
atRp4048
sI1865
g116
((lp4049
I64
aI63
atRp4050
sI1866
g116
((lp4051
I64
atRp4052
sI1867
g116
((lp4053
I64
aI71
atRp4054
sI1868
g116
((lp4055
I64
atRp4056
sI1869
g116
((lp4057
I64
atRp4058
sI1870
g116
((lp4059
I64
atRp4060
sI1871
g116
((lp4061
I64
aI22
atRp4062
sI1872
g116
((lp4063
I64
atRp4064
sI1873
g116
((lp4065
I64
aI56
atRp4066
sI1874
g116
((lp4067
I64
atRp4068
sI1875
g116
((lp4069
I64
atRp4070
sI1876
g116
((lp4071
I64
atRp4072
sI1877
g116
((lp4073
I64
aI10
atRp4074
sI1878
g116
((lp4075
I64
atRp4076
sI1879
g116
((lp4077
I64
aI43
atRp4078
sI1880
g116
((lp4079
I66
aI27
atRp4080
sI1881
g116
((lp4081
I11
aI27
atRp4082
sI1882
g116
((lp4083
I27
atRp4084
sI1883
g116
((lp4085
I27
atRp4086
sI1884
g116
((lp4087
I56
aI27
atRp4088
sI1885
g116
((lp4089
I83
aI27
atRp4090
sI1886
g116
((lp4091
I27
atRp4092
sI1887
g116
((lp4093
I27
atRp4094
sI1888
g116
((lp4095
I27
aI38
atRp4096
sI1889
g116
((lp4097
I27
atRp4098
sI1890
g116
((lp4099
I27
atRp4100
sI1891
g116
((lp4101
I27
atRp4102
sI1892
g116
((lp4103
I27
atRp4104
sI1893
g116
((lp4105
I27
atRp4106
sI1894
g116
((lp4107
I96
aI56
aI27
atRp4108
sI1895
g116
((lp4109
I27
atRp4110
sI1896
g116
((lp4111
I27
atRp4112
sI1897
g116
((lp4113
I27
aI63
atRp4114
sI1898
g116
((lp4115
I11
aI27
atRp4116
sI1899
g116
((lp4117
I27
atRp4118
sI1900
g116
((lp4119
I27
atRp4120
sI1901
g116
((lp4121
I27
atRp4122
sI1902
g116
((lp4123
I27
atRp4124
sI1903
g116
((lp4125
I27
atRp4126
sI1904
g116
((lp4127
I27
atRp4128
sI1905
g116
((lp4129
I27
atRp4130
sI1906
g116
((lp4131
I27
atRp4132
sI1907
g116
((lp4133
I27
atRp4134
sI1908
g116
((lp4135
I27
atRp4136
sI1909
g116
((lp4137
I27
atRp4138
sI1910
g116
((lp4139
I86
atRp4140
sI1911
g116
((lp4141
I86
atRp4142
sI1912
g116
((lp4143
I86
atRp4144
sI1913
g116
((lp4145
I86
atRp4146
sI1914
g116
((lp4147
I86
atRp4148
sI1915
g116
((lp4149
I86
atRp4150
sI1916
g116
((lp4151
I10
aI30
aI86
atRp4152
sI1917
g116
((lp4153
I86
atRp4154
sI1918
g116
((lp4155
I86
atRp4156
sI1919
g116
((lp4157
I49
aI86
atRp4158
sI1920
g116
((lp4159
I74
aI86
atRp4160
sI1921
g116
((lp4161
I86
atRp4162
sI1922
g116
((lp4163
I86
atRp4164
sI1923
g116
((lp4165
I60
aI86
atRp4166
sI1924
g116
((lp4167
I86
atRp4168
sI1925
g116
((lp4169
I86
atRp4170
sI1926
g116
((lp4171
I92
aI86
atRp4172
sI1927
g116
((lp4173
I86
atRp4174
sI1928
g116
((lp4175
I77
aI86
atRp4176
sI1929
g116
((lp4177
I86
atRp4178
sI1930
g116
((lp4179
I86
atRp4180
sI1931
g116
((lp4181
I86
atRp4182
sI1932
g116
((lp4183
I86
atRp4184
sI1933
g116
((lp4185
I99
aI43
aI86
aI63
atRp4186
sI1934
g116
((lp4187
I86
atRp4188
sI1935
g116
((lp4189
I86
atRp4190
sI1936
g116
((lp4191
I86
atRp4192
sI1937
g116
((lp4193
I86
atRp4194
sI1938
g116
((lp4195
I86
atRp4196
sI1939
g116
((lp4197
I86
atRp4198
sI1940
g116
((lp4199
I10
atRp4200
sI1941
g116
((lp4201
I10
atRp4202
sI1942
g116
((lp4203
I10
atRp4204
sI1943
g116
((lp4205
I10
atRp4206
sI1944
g116
((lp4207
I10
atRp4208
sI1945
g116
((lp4209
I10
atRp4210
sI1946
g116
((lp4211
I10
atRp4212
sI1947
g116
((lp4213
I10
atRp4214
sI1948
g116
((lp4215
I10
atRp4216
sI1949
g116
((lp4217
I10
aI98
atRp4218
sI1950
g116
((lp4219
I10
atRp4220
sI1951
g116
((lp4221
I10
atRp4222
sI1952
g116
((lp4223
I10
atRp4224
sI1953
g116
((lp4225
I10
atRp4226
sI1954
g116
((lp4227
I10
atRp4228
sI1955
g116
((lp4229
I10
atRp4230
sI1956
g116
((lp4231
I10
atRp4232
sI1957
g116
((lp4233
I10
atRp4234
sI1958
g116
((lp4235
I10
atRp4236
sI1959
g116
((lp4237
I10
atRp4238
sI1960
g116
((lp4239
I10
atRp4240
sI1961
g116
((lp4241
I10
aI98
atRp4242
sI1962
g116
((lp4243
I10
atRp4244
sI1963
g116
((lp4245
I10
atRp4246
sI1964
g116
((lp4247
I96
aI10
aI18
atRp4248
sI1965
g116
((lp4249
I10
aI74
atRp4250
sI1966
g116
((lp4251
I10
atRp4252
sI1967
g116
((lp4253
I10
atRp4254
sI1968
g116
((lp4255
I10
atRp4256
sI1969
g116
((lp4257
I10
aI99
atRp4258
sI1970
g116
((lp4259
I73
atRp4260
sI1971
g116
((lp4261
I73
atRp4262
sI1972
g116
((lp4263
I73
atRp4264
sI1973
g116
((lp4265
I73
atRp4266
sI1974
g116
((lp4267
I73
aI65
atRp4268
sI1975
g116
((lp4269
I73
aI18
atRp4270
sI1976
g116
((lp4271
I73
atRp4272
sI1977
g116
((lp4273
I73
atRp4274
sI1978
g116
((lp4275
I73
atRp4276
sI1979
g116
((lp4277
I73
atRp4278
sI1980
g116
((lp4279
I73
atRp4280
sI1981
g116
((lp4281
I73
atRp4282
sI1982
g116
((lp4283
I73
atRp4284
sI1983
g116
((lp4285
I73
aI85
atRp4286
sI1984
g116
((lp4287
I73
atRp4288
sI1985
g116
((lp4289
I73
atRp4290
sI1986
g116
((lp4291
I73
atRp4292
sI1987
g116
((lp4293
I56
aI73
atRp4294
sI1988
g116
((lp4295
I73
atRp4296
sI1989
g116
((lp4297
I73
aI79
atRp4298
sI1990
g116
((lp4299
I73
atRp4300
sI1991
g116
((lp4301
I73
atRp4302
sI1992
g116
((lp4303
I73
atRp4304
sI1993
g116
((lp4305
I73
atRp4306
sI1994
g116
((lp4307
I80
aI73
atRp4308
sI1995
g116
((lp4309
I73
atRp4310
sI1996
g116
((lp4311
I73
atRp4312
sI1997
g116
((lp4313
I73
atRp4314
sI1998
g116
((lp4315
I73
atRp4316
sI1999
g116
((lp4317
I73
aI93
atRp4318
sI2000
g116
((lp4319
I38
atRp4320
sI2001
g116
((lp4321
I38
atRp4322
sI2002
g116
((lp4323
I38
atRp4324
sI2003
g116
((lp4325
I38
atRp4326
sI2004
g116
((lp4327
I38
atRp4328
sI2005
g116
((lp4329
I38
atRp4330
sI2006
g116
((lp4331
I38
atRp4332
sI2007
g116
((lp4333
I43
aI38
atRp4334
sI2008
g116
((lp4335
I38
atRp4336
sI2009
g116
((lp4337
I76
aI94
aI38
atRp4338
sI2010
g116
((lp4339
I38
atRp4340
sI2011
g116
((lp4341
I38
atRp4342
sI2012
g116
((lp4343
I38
atRp4344
sI2013
g116
((lp4345
I38
atRp4346
sI2014
g116
((lp4347
I38
atRp4348
sI2015
g116
((lp4349
I38
atRp4350
sI2016
g116
((lp4351
I38
atRp4352
sI2017
g116
((lp4353
I38
atRp4354
sI2018
g116
((lp4355
I38
atRp4356
sI2019
g116
((lp4357
I38
atRp4358
sI2020
g116
((lp4359
I38
atRp4360
sI2021
g116
((lp4361
I38
atRp4362
sI2022
g116
((lp4363
I38
atRp4364
sI2023
g116
((lp4365
I38
atRp4366
sI2024
g116
((lp4367
I38
atRp4368
sI2025
g116
((lp4369
I38
atRp4370
sI2026
g116
((lp4371
I38
atRp4372
sI2027
g116
((lp4373
I38
atRp4374
sI2028
g116
((lp4375
I38
atRp4376
sI2029
g116
((lp4377
I77
aI38
atRp4378
sI2030
g116
((lp4379
I96
atRp4380
sI2031
g116
((lp4381
I96
atRp4382
sI2032
g116
((lp4383
I96
atRp4384
sI2033
g116
((lp4385
I96
atRp4386
sI2034
g116
((lp4387
I96
aI22
atRp4388
sI2035
g116
((lp4389
I96
atRp4390
sI2036
g116
((lp4391
I96
aI18
atRp4392
sI2037
g116
((lp4393
I96
atRp4394
sI2038
g116
((lp4395
I96
aI92
atRp4396
sI2039
g116
((lp4397
I96
atRp4398
sI2040
g116
((lp4399
I96
atRp4400
sI2041
g116
((lp4401
I96
atRp4402
sI2042
g116
((lp4403
I96
atRp4404
sI2043
g116
((lp4405
I96
aI78
atRp4406
sI2044
g116
((lp4407
I96
atRp4408
sI2045
g116
((lp4409
I96
atRp4410
sI2046
g116
((lp4411
I96
aI71
atRp4412
sI2047
g116
((lp4413
I96
atRp4414
sI2048
g116
((lp4415
I96
atRp4416
sI2049
g116
((lp4417
I96
atRp4418
sI2050
g116
((lp4419
I96
aI85
atRp4420
sI2051
g116
((lp4421
I96
atRp4422
sI2052
g116
((lp4423
I96
atRp4424
sI2053
g116
((lp4425
I96
atRp4426
sI2054
g116
((lp4427
I96
aI93
atRp4428
sI2055
g116
((lp4429
I96
atRp4430
sI2056
g116
((lp4431
I96
aI22
atRp4432
sI2057
g116
((lp4433
I96
atRp4434
sI2058
g116
((lp4435
I96
atRp4436
sI2059
g116
((lp4437
I96
atRp4438
sI2060
g116
((lp4439
I71
atRp4440
sI2061
g116
((lp4441
I71
atRp4442
sI2062
g116
((lp4443
I76
aI71
atRp4444
sI2063
g116
((lp4445
I71
atRp4446
sI2064
g116
((lp4447
I71
atRp4448
sI2065
g116
((lp4449
I71
atRp4450
sI2066
g116
((lp4451
I71
atRp4452
sI2067
g116
((lp4453
I18
aI71
atRp4454
sI2068
g116
((lp4455
I71
atRp4456
sI2069
g116
((lp4457
I71
atRp4458
sI2070
g116
((lp4459
I71
atRp4460
sI2071
g116
((lp4461
I91
aI71
atRp4462
sI2072
g116
((lp4463
I71
atRp4464
sI2073
g116
((lp4465
I47
aI71
atRp4466
sI2074
g116
((lp4467
I71
atRp4468
sI2075
g116
((lp4469
I71
atRp4470
sI2076
g116
((lp4471
I71
atRp4472
sI2077
g116
((lp4473
I71
atRp4474
sI2078
g116
((lp4475
I71
atRp4476
sI2079
g116
((lp4477
I71
atRp4478
sI2080
g116
((lp4479
I71
atRp4480
sI2081
g116
((lp4481
I71
atRp4482
sI2082
g116
((lp4483
I99
aI71
atRp4484
sI2083
g116
((lp4485
I71
atRp4486
sI2084
g116
((lp4487
I71
atRp4488
sI2085
g116
((lp4489
I71
atRp4490
sI2086
g116
((lp4491
I71
atRp4492
sI2087
g116
((lp4493
I71
atRp4494
sI2088
g116
((lp4495
I70
aI71
atRp4496
sI2089
g116
((lp4497
I94
aI71
atRp4498
sI2090
g116
((lp4499
I28
atRp4500
sI2091
g116
((lp4501
I28
atRp4502
sI2092
g116
((lp4503
I90
aI11
aI28
atRp4504
sI2093
g116
((lp4505
I28
atRp4506
sI2094
g116
((lp4507
I28
aI93
atRp4508
sI2095
g116
((lp4509
I28
atRp4510
sI2096
g116
((lp4511
I28
atRp4512
sI2097
g116
((lp4513
I28
atRp4514
sI2098
g116
((lp4515
I28
atRp4516
sI2099
g116
((lp4517
I28
atRp4518
sI2100
g116
((lp4519
I28
atRp4520
sI2101
g116
((lp4521
I28
atRp4522
sI2102
g116
((lp4523
I28
atRp4524
sI2103
g116
((lp4525
I28
atRp4526
sI2104
g116
((lp4527
I28
atRp4528
sI2105
g116
((lp4529
I28
atRp4530
sI2106
g116
((lp4531
I28
atRp4532
sI2107
g116
((lp4533
I28
atRp4534
sI2108
g116
((lp4535
I28
atRp4536
sI2109
g116
((lp4537
I28
aI78
atRp4538
sI2110
g116
((lp4539
I43
aI28
atRp4540
sI2111
g116
((lp4541
I28
atRp4542
sI2112
g116
((lp4543
I66
aI28
atRp4544
sI2113
g116
((lp4545
I28
atRp4546
sI2114
g116
((lp4547
I28
atRp4548
sI2115
g116
((lp4549
I28
atRp4550
sI2116
g116
((lp4551
I28
atRp4552
sI2117
g116
((lp4553
I28
atRp4554
sI2118
g116
((lp4555
I28
atRp4556
sI2119
g116
((lp4557
I28
atRp4558
sI2120
g116
((lp4559
I43
aI85
atRp4560
sI2121
g116
((lp4561
I43
aI70
atRp4562
sI2122
g116
((lp4563
I43
atRp4564
sI2123
g116
((lp4565
I43
atRp4566
sI2124
g116
((lp4567
I43
atRp4568
sI2125
g116
((lp4569
I43
atRp4570
sI2126
g116
((lp4571
I43
atRp4572
sI2127
g116
((lp4573
I43
atRp4574
sI2128
g116
((lp4575
I43
aI63
atRp4576
sI2129
g116
((lp4577
I43
atRp4578
sI2130
g116
((lp4579
I43
atRp4580
sI2131
g116
((lp4581
I65
aI90
aI43
atRp4582
sI2132
g116
((lp4583
I43
atRp4584
sI2133
g116
((lp4585
I43
atRp4586
sI2134
g116
((lp4587
I43
atRp4588
sI2135
g116
((lp4589
I43
atRp4590
sI2136
g116
((lp4591
I43
atRp4592
sI2137
g116
((lp4593
I43
atRp4594
sI2138
g116
((lp4595
I43
atRp4596
sI2139
g116
((lp4597
I43
atRp4598
sI2140
g116
((lp4599
I43
atRp4600
sI2141
g116
((lp4601
I43
aI79
atRp4602
sI2142
g116
((lp4603
I43
atRp4604
sI2143
g116
((lp4605
I56
aI43
aI63
atRp4606
sI2144
g116
((lp4607
I43
atRp4608
sI2145
g116
((lp4609
I43
atRp4610
sI2146
g116
((lp4611
I43
atRp4612
sI2147
g116
((lp4613
I43
atRp4614
sI2148
g116
((lp4615
I11
aI43
atRp4616
sI2149
g116
((lp4617
I43
atRp4618
sI2150
g116
((lp4619
I98
aI30
atRp4620
sI2151
g116
((lp4621
I22
aI30
atRp4622
sI2152
g116
((lp4623
I78
aI30
atRp4624
sI2153
g116
((lp4625
I30
atRp4626
sI2154
g116
((lp4627
I30
atRp4628
sI2155
g116
((lp4629
I94
aI30
atRp4630
sI2156
g116
((lp4631
I85
aI30
atRp4632
sI2157
g116
((lp4633
I30
atRp4634
sI2158
g116
((lp4635
I30
atRp4636
sI2159
g116
((lp4637
I30
atRp4638
sI2160
g116
((lp4639
I76
aI30
atRp4640
sI2161
g116
((lp4641
I78
aI30
atRp4642
sI2162
g116
((lp4643
I30
atRp4644
sI2163
g116
((lp4645
I30
atRp4646
sI2164
g116
((lp4647
I30
atRp4648
sI2165
g116
((lp4649
I66
aI60
aI78
aI30
atRp4650
sI2166
g116
((lp4651
I30
atRp4652
sI2167
g116
((lp4653
I30
atRp4654
sI2168
g116
((lp4655
I30
atRp4656
sI2169
g116
((lp4657
I30
atRp4658
sI2170
g116
((lp4659
I30
atRp4660
sI2171
g116
((lp4661
I30
atRp4662
sI2172
g116
((lp4663
I30
atRp4664
sI2173
g116
((lp4665
I30
atRp4666
sI2174
g116
((lp4667
I30
atRp4668
sI2175
g116
((lp4669
I30
atRp4670
sI2176
g116
((lp4671
I61
aI30
atRp4672
sI2177
g116
((lp4673
I30
atRp4674
sI2178
g116
((lp4675
I30
atRp4676
sI2179
g116
((lp4677
I30
atRp4678
sI2180
g116
((lp4679
I92
atRp4680
sI2181
g116
((lp4681
I92
atRp4682
sI2182
g116
((lp4683
I92
atRp4684
sI2183
g116
((lp4685
I92
atRp4686
sI2184
g116
((lp4687
I92
atRp4688
sI2185
g116
((lp4689
I92
atRp4690
sI2186
g116
((lp4691
I98
aI92
atRp4692
sI2187
g116
((lp4693
I92
atRp4694
sI2188
g116
((lp4695
I92
atRp4696
sI2189
g116
((lp4697
I92
atRp4698
sI2190
g116
((lp4699
I92
atRp4700
sI2191
g116
((lp4701
I92
atRp4702
sI2192
g116
((lp4703
I92
atRp4704
sI2193
g116
((lp4705
I92
atRp4706
sI2194
g116
((lp4707
I92
atRp4708
sI2195
g116
((lp4709
I92
aI53
atRp4710
sI2196
g116
((lp4711
I92
atRp4712
sI2197
g116
((lp4713
I92
atRp4714
sI2198
g116
((lp4715
I92
atRp4716
sI2199
g116
((lp4717
I92
atRp4718
sI2200
g116
((lp4719
I92
atRp4720
sI2201
g116
((lp4721
I92
atRp4722
sI2202
g116
((lp4723
I92
atRp4724
sI2203
g116
((lp4725
I92
atRp4726
sI2204
g116
((lp4727
I92
atRp4728
sI2205
g116
((lp4729
I92
atRp4730
sI2206
g116
((lp4731
I92
atRp4732
sI2207
g116
((lp4733
I80
aI92
atRp4734
sI2208
g116
((lp4735
I92
atRp4736
sI2209
g116
((lp4737
I92
atRp4738
sI2210
g116
((lp4739
I80
atRp4740
sI2211
g116
((lp4741
I80
atRp4742
sI2212
g116
((lp4743
I80
atRp4744
sI2213
g116
((lp4745
I80
atRp4746
sI2214
g116
((lp4747
I80
atRp4748
sI2215
g116
((lp4749
I80
atRp4750
sI2216
g116
((lp4751
I80
atRp4752
sI2217
g116
((lp4753
I80
atRp4754
sI2218
g116
((lp4755
I80
atRp4756
sI2219
g116
((lp4757
I80
atRp4758
sI2220
g116
((lp4759
I80
atRp4760
sI2221
g116
((lp4761
I80
atRp4762
sI2222
g116
((lp4763
I80
atRp4764
sI2223
g116
((lp4765
I80
atRp4766
sI2224
g116
((lp4767
I80
atRp4768
sI2225
g116
((lp4769
I80
atRp4770
sI2226
g116
((lp4771
I80
aI65
aI53
atRp4772
sI2227
g116
((lp4773
I80
aI49
atRp4774
sI2228
g116
((lp4775
I80
atRp4776
sI2229
g116
((lp4777
I80
atRp4778
sI2230
g116
((lp4779
I80
aI60
atRp4780
sI2231
g116
((lp4781
I80
atRp4782
sI2232
g116
((lp4783
I80
atRp4784
sI2233
g116
((lp4785
I80
atRp4786
sI2234
g116
((lp4787
I80
aI53
atRp4788
sI2235
g116
((lp4789
I80
aI63
atRp4790
sI2236
g116
((lp4791
I80
aI79
atRp4792
sI2237
g116
((lp4793
I80
atRp4794
sI2238
g116
((lp4795
I80
atRp4796
sI2239
g116
((lp4797
I80
atRp4798
sI2240
g116
((lp4799
I56
atRp4800
sI2241
g116
((lp4801
I56
atRp4802
sI2242
g116
((lp4803
I56
aI94
atRp4804
sI2243
g116
((lp4805
I56
aI77
atRp4806
sI2244
g116
((lp4807
I56
atRp4808
sI2245
g116
((lp4809
I56
atRp4810
sI2246
g116
((lp4811
I56
atRp4812
sI2247
g116
((lp4813
I56
aI79
atRp4814
sI2248
g116
((lp4815
I56
atRp4816
sI2249
g116
((lp4817
I56
aI49
atRp4818
sI2250
g116
((lp4819
I56
aI98
atRp4820
sI2251
g116
((lp4821
I56
atRp4822
sI2252
g116
((lp4823
I56
aI76
atRp4824
sI2253
g116
((lp4825
I56
atRp4826
sI2254
g116
((lp4827
I56
atRp4828
sI2255
g116
((lp4829
I56
aI77
atRp4830
sI2256
g116
((lp4831
I56
atRp4832
sI2257
g116
((lp4833
I56
atRp4834
sI2258
g116
((lp4835
I56
aI74
atRp4836
sI2259
g116
((lp4837
I56
atRp4838
sI2260
g116
((lp4839
I56
atRp4840
sI2261
g116
((lp4841
I56
atRp4842
sI2262
g116
((lp4843
I56
atRp4844
sI2263
g116
((lp4845
I56
atRp4846
sI2264
g116
((lp4847
I56
atRp4848
sI2265
g116
((lp4849
I56
atRp4850
sI2266
g116
((lp4851
I56
atRp4852
sI2267
g116
((lp4853
I56
atRp4854
sI2268
g116
((lp4855
I56
aI61
atRp4856
sI2269
g116
((lp4857
I56
aI99
atRp4858
sI2270
g116
((lp4859
I65
atRp4860
sI2271
g116
((lp4861
I65
aI79
atRp4862
sI2272
g116
((lp4863
I65
atRp4864
sI2273
g116
((lp4865
I65
atRp4866
sI2274
g116
((lp4867
I65
atRp4868
sI2275
g116
((lp4869
I65
atRp4870
sI2276
g116
((lp4871
I65
atRp4872
sI2277
g116
((lp4873
I65
aI93
atRp4874
sI2278
g116
((lp4875
I65
atRp4876
sI2279
g116
((lp4877
I65
atRp4878
sI2280
g116
((lp4879
I65
atRp4880
sI2281
g116
((lp4881
I65
aI22
atRp4882
sI2282
g116
((lp4883
I65
atRp4884
sI2283
g116
((lp4885
I65
atRp4886
sI2284
g116
((lp4887
I65
atRp4888
sI2285
g116
((lp4889
I65
atRp4890
sI2286
g116
((lp4891
I65
aI74
atRp4892
sI2287
g116
((lp4893
I65
atRp4894
sI2288
g116
((lp4895
I65
atRp4896
sI2289
g116
((lp4897
I65
atRp4898
sI2290
g116
((lp4899
I65
atRp4900
sI2291
g116
((lp4901
I65
atRp4902
sI2292
g116
((lp4903
I65
atRp4904
sI2293
g116
((lp4905
I65
atRp4906
sI2294
g116
((lp4907
I65
aI61
atRp4908
sI2295
g116
((lp4909
I65
atRp4910
sI2296
g116
((lp4911
I65
atRp4912
sI2297
g116
((lp4913
I65
atRp4914
sI2298
g116
((lp4915
I65
atRp4916
sI2299
g116
((lp4917
I65
aI18
atRp4918
sI2300
g116
((lp4919
I91
atRp4920
sI2301
g116
((lp4921
I91
atRp4922
sI2302
g116
((lp4923
I91
atRp4924
sI2303
g116
((lp4925
I91
aI53
aI93
atRp4926
sI2304
g116
((lp4927
I91
atRp4928
sI2305
g116
((lp4929
I91
atRp4930
sI2306
g116
((lp4931
I74
aI91
atRp4932
sI2307
g116
((lp4933
I91
aI93
atRp4934
sI2308
g116
((lp4935
I91
atRp4936
sI2309
g116
((lp4937
I91
atRp4938
sI2310
g116
((lp4939
I91
atRp4940
sI2311
g116
((lp4941
I91
atRp4942
sI2312
g116
((lp4943
I91
atRp4944
sI2313
g116
((lp4945
I91
atRp4946
sI2314
g116
((lp4947
I91
atRp4948
sI2315
g116
((lp4949
I91
atRp4950
sI2316
g116
((lp4951
I91
atRp4952
sI2317
g116
((lp4953
I91
atRp4954
sI2318
g116
((lp4955
I91
atRp4956
sI2319
g116
((lp4957
I91
aI61
atRp4958
sI2320
g116
((lp4959
I91
atRp4960
sI2321
g116
((lp4961
I91
atRp4962
sI2322
g116
((lp4963
I91
atRp4964
sI2323
g116
((lp4965
I91
atRp4966
sI2324
g116
((lp4967
I91
atRp4968
sI2325
g116
((lp4969
I91
atRp4970
sI2326
g116
((lp4971
I91
aI76
atRp4972
sI2327
g116
((lp4973
I91
atRp4974
sI2328
g116
((lp4975
I91
atRp4976
sI2329
g116
((lp4977
I91
atRp4978
sI2330
g116
((lp4979
I53
atRp4980
sI2331
g116
((lp4981
I18
aI53
atRp4982
sI2332
g116
((lp4983
I53
atRp4984
sI2333
g116
((lp4985
I53
atRp4986
sI2334
g116
((lp4987
I53
atRp4988
sI2335
g116
((lp4989
I18
aI53
atRp4990
sI2336
g116
((lp4991
I53
atRp4992
sI2337
g116
((lp4993
I53
atRp4994
sI2338
g116
((lp4995
I53
atRp4996
sI2339
g116
((lp4997
I53
atRp4998
sI2340
g116
((lp4999
I53
atRp5000
sI2341
g116
((lp5001
I53
atRp5002
sI2342
g116
((lp5003
I53
atRp5004
sI2343
g116
((lp5005
I53
atRp5006
sI2344
g116
((lp5007
I53
atRp5008
sI2345
g116
((lp5009
I53
atRp5010
sI2346
g116
((lp5011
I53
aI78
atRp5012
sI2347
g116
((lp5013
I53
atRp5014
sI2348
g116
((lp5015
I53
atRp5016
sI2349
g116
((lp5017
I53
atRp5018
sI2350
g116
((lp5019
I90
aI53
atRp5020
sI2351
g116
((lp5021
I53
atRp5022
sI2352
g116
((lp5023
I53
atRp5024
sI2353
g116
((lp5025
I53
atRp5026
sI2354
g116
((lp5027
I53
atRp5028
sI2355
g116
((lp5029
I53
atRp5030
sI2356
g116
((lp5031
I53
atRp5032
sI2357
g116
((lp5033
I53
atRp5034
sI2358
g116
((lp5035
I11
aI53
atRp5036
sI2359
g116
((lp5037
I98
aI53
atRp5038
sI2360
g116
((lp5039
I83
aI94
atRp5040
sI2361
g116
((lp5041
I94
atRp5042
sI2362
g116
((lp5043
I94
atRp5044
sI2363
g116
((lp5045
I94
atRp5046
sI2364
g116
((lp5047
I94
atRp5048
sI2365
g116
((lp5049
I94
atRp5050
sI2366
g116
((lp5051
I94
atRp5052
sI2367
g116
((lp5053
I94
atRp5054
sI2368
g116
((lp5055
I94
atRp5056
sI2369
g116
((lp5057
I85
aI94
atRp5058
sI2370
g116
((lp5059
I94
atRp5060
sI2371
g116
((lp5061
I94
atRp5062
sI2372
g116
((lp5063
I94
atRp5064
sI2373
g116
((lp5065
I94
atRp5066
sI2374
g116
((lp5067
I94
atRp5068
sI2375
g116
((lp5069
I94
atRp5070
sI2376
g116
((lp5071
I94
atRp5072
sI2377
g116
((lp5073
I94
atRp5074
sI2378
g116
((lp5075
I94
atRp5076
sI2379
g116
((lp5077
I94
atRp5078
sI2380
g116
((lp5079
I94
atRp5080
sI2381
g116
((lp5081
I94
atRp5082
sI2382
g116
((lp5083
I94
atRp5084
sI2383
g116
((lp5085
I94
atRp5086
sI2384
g116
((lp5087
I94
atRp5088
sI2385
g116
((lp5089
I94
atRp5090
sI2386
g116
((lp5091
I94
atRp5092
sI2387
g116
((lp5093
I94
atRp5094
sI2388
g116
((lp5095
I94
atRp5096
sI2389
g116
((lp5097
I94
atRp5098
sI2390
g116
((lp5099
I76
atRp5100
sI2391
g116
((lp5101
I66
aI83
aI76
atRp5102
sI2392
g116
((lp5103
I76
atRp5104
sI2393
g116
((lp5105
I76
atRp5106
sI2394
g116
((lp5107
I76
atRp5108
sI2395
g116
((lp5109
I76
atRp5110
sI2396
g116
((lp5111
I76
atRp5112
sI2397
g116
((lp5113
I76
aI47
atRp5114
sI2398
g116
((lp5115
I76
atRp5116
sI2399
g116
((lp5117
I99
aI76
atRp5118
sI2400
g116
((lp5119
I76
atRp5120
sI2401
g116
((lp5121
I76
atRp5122
sI2402
g116
((lp5123
I99
aI76
atRp5124
sI2403
g116
((lp5125
I76
atRp5126
sI2404
g116
((lp5127
I76
atRp5128
sI2405
g116
((lp5129
I76
aI70
atRp5130
sI2406
g116
((lp5131
I76
atRp5132
sI2407
g116
((lp5133
I76
atRp5134
sI2408
g116
((lp5135
I76
atRp5136
sI2409
g116
((lp5137
I76
aI77
atRp5138
sI2410
g116
((lp5139
I76
atRp5140
sI2411
g116
((lp5141
I76
atRp5142
sI2412
g116
((lp5143
I76
atRp5144
sI2413
g116
((lp5145
I76
atRp5146
sI2414
g116
((lp5147
I76
atRp5148
sI2415
g116
((lp5149
I76
atRp5150
sI2416
g116
((lp5151
I76
atRp5152
sI2417
g116
((lp5153
I76
atRp5154
sI2418
g116
((lp5155
I76
atRp5156
sI2419
g116
((lp5157
I76
atRp5158
sI2420
g116
((lp5159
I93
atRp5160
sI2421
g116
((lp5161
I93
atRp5162
sI2422
g116
((lp5163
I93
atRp5164
sI2423
g116
((lp5165
I93
atRp5166
sI2424
g116
((lp5167
I93
atRp5168
sI2425
g116
((lp5169
I11
aI93
atRp5170
sI2426
g116
((lp5171
I93
atRp5172
sI2427
g116
((lp5173
I93
atRp5174
sI2428
g116
((lp5175
I93
atRp5176
sI2429
g116
((lp5177
I74
aI93
atRp5178
sI2430
g116
((lp5179
I93
atRp5180
sI2431
g116
((lp5181
I93
aI61
atRp5182
sI2432
g116
((lp5183
I93
atRp5184
sI2433
g116
((lp5185
I93
atRp5186
sI2434
g116
((lp5187
I93
atRp5188
sI2435
g116
((lp5189
I93
atRp5190
sI2436
g116
((lp5191
I93
atRp5192
sI2437
g116
((lp5193
I93
atRp5194
sI2438
g116
((lp5195
I98
aI93
atRp5196
sI2439
g116
((lp5197
I93
atRp5198
sI2440
g116
((lp5199
I93
atRp5200
sI2441
g116
((lp5201
I93
atRp5202
sI2442
g116
((lp5203
I66
aI93
atRp5204
sI2443
g116
((lp5205
I93
atRp5206
sI2444
g116
((lp5207
I93
atRp5208
sI2445
g116
((lp5209
I93
atRp5210
sI2446
g116
((lp5211
I93
atRp5212
sI2447
g116
((lp5213
I93
atRp5214
sI2448
g116
((lp5215
I93
atRp5216
sI2449
g116
((lp5217
I90
aI93
atRp5218
sI2450
g116
((lp5219
I11
atRp5220
sI2451
g116
((lp5221
I11
atRp5222
sI2452
g116
((lp5223
I11
atRp5224
sI2453
g116
((lp5225
I11
atRp5226
sI2454
g116
((lp5227
I11
atRp5228
sI2455
g116
((lp5229
I66
aI11
atRp5230
sI2456
g116
((lp5231
I11
atRp5232
sI2457
g116
((lp5233
I11
atRp5234
sI2458
g116
((lp5235
I11
atRp5236
sI2459
g116
((lp5237
I11
atRp5238
sI2460
g116
((lp5239
I11
atRp5240
sI2461
g116
((lp5241
I11
atRp5242
sI2462
g116
((lp5243
I11
atRp5244
sI2463
g116
((lp5245
I11
atRp5246
sI2464
g116
((lp5247
I11
atRp5248
sI2465
g116
((lp5249
I11
atRp5250
sI2466
g116
((lp5251
I11
atRp5252
sI2467
g116
((lp5253
I11
atRp5254
sI2468
g116
((lp5255
I11
atRp5256
sI2469
g116
((lp5257
I11
atRp5258
sI2470
g116
((lp5259
I11
atRp5260
sI2471
g116
((lp5261
I11
atRp5262
sI2472
g116
((lp5263
I11
aI79
atRp5264
sI2473
g116
((lp5265
I11
atRp5266
sI2474
g116
((lp5267
I11
atRp5268
sI2475
g116
((lp5269
I11
atRp5270
sI2476
g116
((lp5271
I11
atRp5272
sI2477
g116
((lp5273
I11
atRp5274
sI2478
g116
((lp5275
I11
atRp5276
sI2479
g116
((lp5277
I11
atRp5278
sI2480
g116
((lp5279
I61
aI79
atRp5280
sI2481
g116
((lp5281
I61
atRp5282
sI2482
g116
((lp5283
I61
atRp5284
sI2483
g116
((lp5285
I61
atRp5286
sI2484
g116
((lp5287
I61
atRp5288
sI2485
g116
((lp5289
I61
atRp5290
sI2486
g116
((lp5291
I61
atRp5292
sI2487
g116
((lp5293
I61
aI77
atRp5294
sI2488
g116
((lp5295
I61
atRp5296
sI2489
g116
((lp5297
I61
atRp5298
sI2490
g116
((lp5299
I61
atRp5300
sI2491
g116
((lp5301
I61
atRp5302
sI2492
g116
((lp5303
I61
atRp5304
sI2493
g116
((lp5305
I61
atRp5306
sI2494
g116
((lp5307
I61
atRp5308
sI2495
g116
((lp5309
I61
atRp5310
sI2496
g116
((lp5311
I61
atRp5312
sI2497
g116
((lp5313
I61
atRp5314
sI2498
g116
((lp5315
I61
atRp5316
sI2499
g116
((lp5317
I61
atRp5318
sI2500
g116
((lp5319
I61
atRp5320
sI2501
g116
((lp5321
I61
atRp5322
sI2502
g116
((lp5323
I61
atRp5324
sI2503
g116
((lp5325
I61
atRp5326
sI2504
g116
((lp5327
I61
atRp5328
sI2505
g116
((lp5329
I61
atRp5330
sI2506
g116
((lp5331
I61
atRp5332
sI2507
g116
((lp5333
I61
atRp5334
sI2508
g116
((lp5335
I61
atRp5336
sI2509
g116
((lp5337
I61
atRp5338
sI2510
g116
((lp5339
I77
atRp5340
sI2511
g116
((lp5341
I77
atRp5342
sI2512
g116
((lp5343
I77
atRp5344
sI2513
g116
((lp5345
I77
atRp5346
sI2514
g116
((lp5347
I77
atRp5348
sI2515
g116
((lp5349
I77
atRp5350
sI2516
g116
((lp5351
I77
atRp5352
sI2517
g116
((lp5353
I77
atRp5354
sI2518
g116
((lp5355
I77
atRp5356
sI2519
g116
((lp5357
I77
atRp5358
sI2520
g116
((lp5359
I77
atRp5360
sI2521
g116
((lp5361
I77
atRp5362
sI2522
g116
((lp5363
I77
atRp5364
sI2523
g116
((lp5365
I77
atRp5366
sI2524
g116
((lp5367
I77
atRp5368
sI2525
g116
((lp5369
I77
atRp5370
sI2526
g116
((lp5371
I99
aI77
atRp5372
sI2527
g116
((lp5373
I77
aI79
atRp5374
sI2528
g116
((lp5375
I77
atRp5376
sI2529
g116
((lp5377
I77
aI70
atRp5378
sI2530
g116
((lp5379
I90
aI77
atRp5380
sI2531
g116
((lp5381
I77
atRp5382
sI2532
g116
((lp5383
I77
atRp5384
sI2533
g116
((lp5385
I77
atRp5386
sI2534
g116
((lp5387
I77
atRp5388
sI2535
g116
((lp5389
I49
aI77
atRp5390
sI2536
g116
((lp5391
I77
atRp5392
sI2537
g116
((lp5393
I60
aI77
atRp5394
sI2538
g116
((lp5395
I77
atRp5396
sI2539
g116
((lp5397
I77
atRp5398
sI2540
g116
((lp5399
I78
aI79
atRp5400
sI2541
g116
((lp5401
I79
atRp5402
sI2542
g116
((lp5403
I79
atRp5404
sI2543
g116
((lp5405
I79
atRp5406
sI2544
g116
((lp5407
I79
atRp5408
sI2545
g116
((lp5409
I85
aI79
atRp5410
sI2546
g116
((lp5411
I79
atRp5412
sI2547
g116
((lp5413
I79
atRp5414
sI2548
g116
((lp5415
I79
atRp5416
sI2549
g116
((lp5417
I79
atRp5418
sI2550
g116
((lp5419
I79
atRp5420
sI2551
g116
((lp5421
I79
atRp5422
sI2552
g116
((lp5423
I79
atRp5424
sI2553
g116
((lp5425
I85
aI79
atRp5426
sI2554
g116
((lp5427
I79
atRp5428
sI2555
g116
((lp5429
I79
atRp5430
sI2556
g116
((lp5431
I79
atRp5432
sI2557
g116
((lp5433
I22
aI79
atRp5434
sI2558
g116
((lp5435
I79
atRp5436
sI2559
g116
((lp5437
I79
atRp5438
sI2560
g116
((lp5439
I79
atRp5440
sI2561
g116
((lp5441
I79
atRp5442
sI2562
g116
((lp5443
I79
atRp5444
sI2563
g116
((lp5445
I79
atRp5446
sI2564
g116
((lp5447
I79
atRp5448
sI2565
g116
((lp5449
I79
atRp5450
sI2566
g116
((lp5451
I83
aI79
atRp5452
sI2567
g116
((lp5453
I79
atRp5454
sI2568
g116
((lp5455
I79
atRp5456
sI2569
g116
((lp5457
I79
atRp5458
sI2570
g116
((lp5459
I98
atRp5460
sI2571
g116
((lp5461
I98
atRp5462
sI2572
g116
((lp5463
I98
atRp5464
sI2573
g116
((lp5465
I98
atRp5466
sI2574
g116
((lp5467
I98
atRp5468
sI2575
g116
((lp5469
I98
atRp5470
sI2576
g116
((lp5471
I98
atRp5472
sI2577
g116
((lp5473
I98
atRp5474
sI2578
g116
((lp5475
I98
atRp5476
sI2579
g116
((lp5477
I98
atRp5478
sI2580
g116
((lp5479
I98
atRp5480
sI2581
g116
((lp5481
I98
atRp5482
sI2582
g116
((lp5483
I98
atRp5484
sI2583
g116
((lp5485
I98
atRp5486
sI2584
g116
((lp5487
I98
atRp5488
sI2585
g116
((lp5489
I98
atRp5490
sI2586
g116
((lp5491
I98
atRp5492
sI2587
g116
((lp5493
I98
atRp5494
sI2588
g116
((lp5495
I98
atRp5496
sI2589
g116
((lp5497
I98
atRp5498
sI2590
g116
((lp5499
I98
atRp5500
sI2591
g116
((lp5501
I98
aI70
atRp5502
sI2592
g116
((lp5503
I98
atRp5504
sI2593
g116
((lp5505
I98
atRp5506
sI2594
g116
((lp5507
I98
atRp5508
sI2595
g116
((lp5509
I98
atRp5510
sI2596
g116
((lp5511
I98
atRp5512
sI2597
g116
((lp5513
I98
atRp5514
sI2598
g116
((lp5515
I98
atRp5516
sI2599
g116
((lp5517
I98
atRp5518
sI2600
g116
((lp5519
I74
atRp5520
sI2601
g116
((lp5521
I74
atRp5522
sI2602
g116
((lp5523
I74
atRp5524
sI2603
g116
((lp5525
I74
atRp5526
sI2604
g116
((lp5527
I74
atRp5528
sI2605
g116
((lp5529
I74
atRp5530
sI2606
g116
((lp5531
I74
atRp5532
sI2607
g116
((lp5533
I74
atRp5534
sI2608
g116
((lp5535
I74
atRp5536
sI2609
g116
((lp5537
I74
atRp5538
sI2610
g116
((lp5539
I74
atRp5540
sI2611
g116
((lp5541
I74
atRp5542
sI2612
g116
((lp5543
I74
atRp5544
sI2613
g116
((lp5545
I74
atRp5546
sI2614
g116
((lp5547
I74
atRp5548
sI2615
g116
((lp5549
I74
atRp5550
sI2616
g116
((lp5551
I74
atRp5552
sI2617
g116
((lp5553
I74
atRp5554
sI2618
g116
((lp5555
I74
atRp5556
sI2619
g116
((lp5557
I74
atRp5558
sI2620
g116
((lp5559
I74
atRp5560
sI2621
g116
((lp5561
I74
atRp5562
sI2622
g116
((lp5563
I74
atRp5564
sI2623
g116
((lp5565
I74
atRp5566
sI2624
g116
((lp5567
I74
atRp5568
sI2625
g116
((lp5569
I74
atRp5570
sI2626
g116
((lp5571
I74
atRp5572
sI2627
g116
((lp5573
I74
atRp5574
sI2628
g116
((lp5575
I74
atRp5576
sI2629
g116
((lp5577
I74
atRp5578
sI2630
g116
((lp5579
I66
atRp5580
sI2631
g116
((lp5581
I66
atRp5582
sI2632
g116
((lp5583
I66
atRp5584
sI2633
g116
((lp5585
I66
atRp5586
sI2634
g116
((lp5587
I66
atRp5588
sI2635
g116
((lp5589
I66
atRp5590
sI2636
g116
((lp5591
I66
atRp5592
sI2637
g116
((lp5593
I66
atRp5594
sI2638
g116
((lp5595
I66
atRp5596
sI2639
g116
((lp5597
I66
atRp5598
sI2640
g116
((lp5599
I66
atRp5600
sI2641
g116
((lp5601
I66
atRp5602
sI2642
g116
((lp5603
I66
atRp5604
sI2643
g116
((lp5605
I66
atRp5606
sI2644
g116
((lp5607
I66
atRp5608
sI2645
g116
((lp5609
I66
atRp5610
sI2646
g116
((lp5611
I66
atRp5612
sI2647
g116
((lp5613
I66
atRp5614
sI2648
g116
((lp5615
I66
atRp5616
sI2649
g116
((lp5617
I66
atRp5618
sI2650
g116
((lp5619
I66
atRp5620
sI2651
g116
((lp5621
I66
atRp5622
sI2652
g116
((lp5623
I66
atRp5624
sI2653
g116
((lp5625
I49
aI66
atRp5626
sI2654
g116
((lp5627
I66
atRp5628
sI2655
g116
((lp5629
I66
atRp5630
sI2656
g116
((lp5631
I66
atRp5632
sI2657
g116
((lp5633
I66
atRp5634
sI2658
g116
((lp5635
I66
atRp5636
sI2659
g116
((lp5637
I66
atRp5638
sI2660
g116
((lp5639
I70
atRp5640
sI2661
g116
((lp5641
I70
atRp5642
sI2662
g116
((lp5643
I70
atRp5644
sI2663
g116
((lp5645
I70
atRp5646
sI2664
g116
((lp5647
I70
atRp5648
sI2665
g116
((lp5649
I70
atRp5650
sI2666
g116
((lp5651
I70
atRp5652
sI2667
g116
((lp5653
I70
atRp5654
sI2668
g116
((lp5655
I70
atRp5656
sI2669
g116
((lp5657
I70
atRp5658
sI2670
g116
((lp5659
I70
atRp5660
sI2671
g116
((lp5661
I70
atRp5662
sI2672
g116
((lp5663
I70
atRp5664
sI2673
g116
((lp5665
I70
atRp5666
sI2674
g116
((lp5667
I70
atRp5668
sI2675
g116
((lp5669
I70
atRp5670
sI2676
g116
((lp5671
I70
atRp5672
sI2677
g116
((lp5673
I70
atRp5674
sI2678
g116
((lp5675
I70
atRp5676
sI2679
g116
((lp5677
I70
atRp5678
sI2680
g116
((lp5679
I70
atRp5680
sI2681
g116
((lp5681
I70
atRp5682
sI2682
g116
((lp5683
I70
atRp5684
sI2683
g116
((lp5685
I70
atRp5686
sI2684
g116
((lp5687
I78
aI70
atRp5688
sI2685
g116
((lp5689
I70
atRp5690
sI2686
g116
((lp5691
I70
atRp5692
sI2687
g116
((lp5693
I70
atRp5694
sI2688
g116
((lp5695
I70
atRp5696
sI2689
g116
((lp5697
I70
atRp5698
sI2690
g116
((lp5699
I18
atRp5700
sI2691
g116
((lp5701
I18
atRp5702
sI2692
g116
((lp5703
I18
atRp5704
sI2693
g116
((lp5705
I18
atRp5706
sI2694
g116
((lp5707
I18
atRp5708
sI2695
g116
((lp5709
I18
atRp5710
sI2696
g116
((lp5711
I18
atRp5712
sI2697
g116
((lp5713
I18
atRp5714
sI2698
g116
((lp5715
I18
atRp5716
sI2699
g116
((lp5717
I18
atRp5718
sI2700
g116
((lp5719
I18
atRp5720
sI2701
g116
((lp5721
I18
atRp5722
sI2702
g116
((lp5723
I18
atRp5724
sI2703
g116
((lp5725
I18
atRp5726
sI2704
g116
((lp5727
I18
atRp5728
sI2705
g116
((lp5729
I18
atRp5730
sI2706
g116
((lp5731
I18
atRp5732
sI2707
g116
((lp5733
I18
atRp5734
sI2708
g116
((lp5735
I18
atRp5736
sI2709
g116
((lp5737
I18
atRp5738
sI2710
g116
((lp5739
I18
atRp5740
sI2711
g116
((lp5741
I18
atRp5742
sI2712
g116
((lp5743
I18
atRp5744
sI2713
g116
((lp5745
I18
atRp5746
sI2714
g116
((lp5747
I18
atRp5748
sI2715
g116
((lp5749
I18
atRp5750
sI2716
g116
((lp5751
I18
atRp5752
sI2717
g116
((lp5753
I18
atRp5754
sI2718
g116
((lp5755
I18
atRp5756
sI2719
g116
((lp5757
I18
atRp5758
sI2720
g116
((lp5759
I78
atRp5760
sI2721
g116
((lp5761
I90
aI78
atRp5762
sI2722
g116
((lp5763
I60
aI78
atRp5764
sI2723
g116
((lp5765
I78
atRp5766
sI2724
g116
((lp5767
I78
atRp5768
sI2725
g116
((lp5769
I78
atRp5770
sI2726
g116
((lp5771
I78
atRp5772
sI2727
g116
((lp5773
I49
aI78
atRp5774
sI2728
g116
((lp5775
I78
atRp5776
sI2729
g116
((lp5777
I78
atRp5778
sI2730
g116
((lp5779
I78
atRp5780
sI2731
g116
((lp5781
I78
atRp5782
sI2732
g116
((lp5783
I78
atRp5784
sI2733
g116
((lp5785
I78
atRp5786
sI2734
g116
((lp5787
I78
atRp5788
sI2735
g116
((lp5789
I78
atRp5790
sI2736
g116
((lp5791
I78
atRp5792
sI2737
g116
((lp5793
I78
atRp5794
sI2738
g116
((lp5795
I78
atRp5796
sI2739
g116
((lp5797
I78
atRp5798
sI2740
g116
((lp5799
I78
atRp5800
sI2741
g116
((lp5801
I78
atRp5802
sI2742
g116
((lp5803
I78
atRp5804
sI2743
g116
((lp5805
I78
atRp5806
sI2744
g116
((lp5807
I78
atRp5808
sI2745
g116
((lp5809
I78
atRp5810
sI2746
g116
((lp5811
I78
atRp5812
sI2747
g116
((lp5813
I78
atRp5814
sI2748
g116
((lp5815
I78
atRp5816
sI2749
g116
((lp5817
I78
atRp5818
sI2750
g116
((lp5819
I85
atRp5820
sI2751
g116
((lp5821
I85
atRp5822
sI2752
g116
((lp5823
I85
atRp5824
sI2753
g116
((lp5825
I85
atRp5826
sI2754
g116
((lp5827
I85
atRp5828
sI2755
g116
((lp5829
I85
atRp5830
sI2756
g116
((lp5831
I85
atRp5832
sI2757
g116
((lp5833
I85
atRp5834
sI2758
g116
((lp5835
I85
atRp5836
sI2759
g116
((lp5837
I85
atRp5838
sI2760
g116
((lp5839
I85
atRp5840
sI2761
g116
((lp5841
I85
atRp5842
sI2762
g116
((lp5843
I85
atRp5844
sI2763
g116
((lp5845
I85
aI22
atRp5846
sI2764
g116
((lp5847
I85
atRp5848
sI2765
g116
((lp5849
I85
atRp5850
sI2766
g116
((lp5851
I85
atRp5852
sI2767
g116
((lp5853
I85
atRp5854
sI2768
g116
((lp5855
I85
atRp5856
sI2769
g116
((lp5857
I85
atRp5858
sI2770
g116
((lp5859
I85
atRp5860
sI2771
g116
((lp5861
I49
aI85
atRp5862
sI2772
g116
((lp5863
I85
atRp5864
sI2773
g116
((lp5865
I85
atRp5866
sI2774
g116
((lp5867
I85
atRp5868
sI2775
g116
((lp5869
I85
atRp5870
sI2776
g116
((lp5871
I49
aI85
atRp5872
sI2777
g116
((lp5873
I85
atRp5874
sI2778
g116
((lp5875
I85
atRp5876
sI2779
g116
((lp5877
I85
atRp5878
sI2780
g116
((lp5879
I63
atRp5880
sI2781
g116
((lp5881
I63
atRp5882
sI2782
g116
((lp5883
I47
aI63
atRp5884
sI2783
g116
((lp5885
I63
atRp5886
sI2784
g116
((lp5887
I63
atRp5888
sI2785
g116
((lp5889
I63
atRp5890
sI2786
g116
((lp5891
I63
atRp5892
sI2787
g116
((lp5893
I63
atRp5894
sI2788
g116
((lp5895
I63
atRp5896
sI2789
g116
((lp5897
I63
atRp5898
sI2790
g116
((lp5899
I63
atRp5900
sI2791
g116
((lp5901
I63
atRp5902
sI2792
g116
((lp5903
I63
atRp5904
sI2793
g116
((lp5905
I63
atRp5906
sI2794
g116
((lp5907
I63
atRp5908
sI2795
g116
((lp5909
I63
atRp5910
sI2796
g116
((lp5911
I63
atRp5912
sI2797
g116
((lp5913
I63
atRp5914
sI2798
g116
((lp5915
I63
atRp5916
sI2799
g116
((lp5917
I63
atRp5918
sI2800
g116
((lp5919
I63
atRp5920
sI2801
g116
((lp5921
I63
atRp5922
sI2802
g116
((lp5923
I63
atRp5924
sI2803
g116
((lp5925
I63
atRp5926
sI2804
g116
((lp5927
I63
atRp5928
sI2805
g116
((lp5929
I63
atRp5930
sI2806
g116
((lp5931
I63
atRp5932
sI2807
g116
((lp5933
I63
atRp5934
sI2808
g116
((lp5935
I63
atRp5936
sI2809
g116
((lp5937
I63
atRp5938
sI2810
g116
((lp5939
I90
atRp5940
sI2811
g116
((lp5941
I90
atRp5942
sI2812
g116
((lp5943
I90
atRp5944
sI2813
g116
((lp5945
I90
atRp5946
sI2814
g116
((lp5947
I90
atRp5948
sI2815
g116
((lp5949
I90
atRp5950
sI2816
g116
((lp5951
I90
atRp5952
sI2817
g116
((lp5953
I90
atRp5954
sI2818
g116
((lp5955
I90
atRp5956
sI2819
g116
((lp5957
I90
atRp5958
sI2820
g116
((lp5959
I90
atRp5960
sI2821
g116
((lp5961
I90
atRp5962
sI2822
g116
((lp5963
I90
atRp5964
sI2823
g116
((lp5965
I90
atRp5966
sI2824
g116
((lp5967
I90
atRp5968
sI2825
g116
((lp5969
I90
atRp5970
sI2826
g116
((lp5971
I90
atRp5972
sI2827
g116
((lp5973
I90
atRp5974
sI2828
g116
((lp5975
I90
atRp5976
sI2829
g116
((lp5977
I90
atRp5978
sI2830
g116
((lp5979
I90
atRp5980
sI2831
g116
((lp5981
I90
atRp5982
sI2832
g116
((lp5983
I90
atRp5984
sI2833
g116
((lp5985
I90
atRp5986
sI2834
g116
((lp5987
I90
atRp5988
sI2835
g116
((lp5989
I90
atRp5990
sI2836
g116
((lp5991
I90
atRp5992
sI2837
g116
((lp5993
I90
atRp5994
sI2838
g116
((lp5995
I90
atRp5996
sI2839
g116
((lp5997
I90
atRp5998
sI2840
g116
((lp5999
I49
atRp6000
sI2841
g116
((lp6001
I49
atRp6002
sI2842
g116
((lp6003
I49
atRp6004
sI2843
g116
((lp6005
I49
atRp6006
sI2844
g116
((lp6007
I49
atRp6008
sI2845
g116
((lp6009
I49
atRp6010
sI2846
g116
((lp6011
I49
atRp6012
sI2847
g116
((lp6013
I49
atRp6014
sI2848
g116
((lp6015
I49
atRp6016
sI2849
g116
((lp6017
I49
atRp6018
sI2850
g116
((lp6019
I49
atRp6020
sI2851
g116
((lp6021
I49
atRp6022
sI2852
g116
((lp6023
I49
atRp6024
sI2853
g116
((lp6025
I49
atRp6026
sI2854
g116
((lp6027
I49
atRp6028
sI2855
g116
((lp6029
I49
atRp6030
sI2856
g116
((lp6031
I49
atRp6032
sI2857
g116
((lp6033
I49
atRp6034
sI2858
g116
((lp6035
I49
atRp6036
sI2859
g116
((lp6037
I49
atRp6038
sI2860
g116
((lp6039
I49
atRp6040
sI2861
g116
((lp6041
I49
atRp6042
sI2862
g116
((lp6043
I49
atRp6044
sI2863
g116
((lp6045
I49
atRp6046
sI2864
g116
((lp6047
I49
atRp6048
sI2865
g116
((lp6049
I49
atRp6050
sI2866
g116
((lp6051
I49
atRp6052
sI2867
g116
((lp6053
I49
atRp6054
sI2868
g116
((lp6055
I49
atRp6056
sI2869
g116
((lp6057
I49
atRp6058
sI2870
g116
((lp6059
I99
atRp6060
sI2871
g116
((lp6061
I99
atRp6062
sI2872
g116
((lp6063
I99
atRp6064
sI2873
g116
((lp6065
I99
aI60
atRp6066
sI2874
g116
((lp6067
I99
atRp6068
sI2875
g116
((lp6069
I99
atRp6070
sI2876
g116
((lp6071
I99
atRp6072
sI2877
g116
((lp6073
I99
atRp6074
sI2878
g116
((lp6075
I99
atRp6076
sI2879
g116
((lp6077
I99
atRp6078
sI2880
g116
((lp6079
I99
atRp6080
sI2881
g116
((lp6081
I99
atRp6082
sI2882
g116
((lp6083
I99
atRp6084
sI2883
g116
((lp6085
I99
atRp6086
sI2884
g116
((lp6087
I99
atRp6088
sI2885
g116
((lp6089
I99
atRp6090
sI2886
g116
((lp6091
I99
atRp6092
sI2887
g116
((lp6093
I99
atRp6094
sI2888
g116
((lp6095
I99
atRp6096
sI2889
g116
((lp6097
I99
atRp6098
sI2890
g116
((lp6099
I99
atRp6100
sI2891
g116
((lp6101
I99
atRp6102
sI2892
g116
((lp6103
I99
atRp6104
sI2893
g116
((lp6105
I99
atRp6106
sI2894
g116
((lp6107
I99
atRp6108
sI2895
g116
((lp6109
I99
atRp6110
sI2896
g116
((lp6111
I99
atRp6112
sI2897
g116
((lp6113
I99
atRp6114
sI2898
g116
((lp6115
I99
atRp6116
sI2899
g116
((lp6117
I99
atRp6118
sI2900
g116
((lp6119
I22
atRp6120
sI2901
g116
((lp6121
I22
atRp6122
sI2902
g116
((lp6123
I22
atRp6124
sI2903
g116
((lp6125
I22
atRp6126
sI2904
g116
((lp6127
I22
atRp6128
sI2905
g116
((lp6129
I22
atRp6130
sI2906
g116
((lp6131
I22
atRp6132
sI2907
g116
((lp6133
I22
atRp6134
sI2908
g116
((lp6135
I22
atRp6136
sI2909
g116
((lp6137
I22
atRp6138
sI2910
g116
((lp6139
I22
atRp6140
sI2911
g116
((lp6141
I22
atRp6142
sI2912
g116
((lp6143
I22
atRp6144
sI2913
g116
((lp6145
I22
atRp6146
sI2914
g116
((lp6147
I22
atRp6148
sI2915
g116
((lp6149
I22
atRp6150
sI2916
g116
((lp6151
I22
atRp6152
sI2917
g116
((lp6153
I22
atRp6154
sI2918
g116
((lp6155
I22
atRp6156
sI2919
g116
((lp6157
I22
atRp6158
sI2920
g116
((lp6159
I22
atRp6160
sI2921
g116
((lp6161
I22
atRp6162
sI2922
g116
((lp6163
I22
atRp6164
sI2923
g116
((lp6165
I22
atRp6166
sI2924
g116
((lp6167
I22
atRp6168
sI2925
g116
((lp6169
I22
atRp6170
sI2926
g116
((lp6171
I22
atRp6172
sI2927
g116
((lp6173
I22
atRp6174
sI2928
g116
((lp6175
I22
atRp6176
sI2929
g116
((lp6177
I22
atRp6178
sI2930
g116
((lp6179
I60
atRp6180
sI2931
g116
((lp6181
I60
atRp6182
sI2932
g116
((lp6183
I60
atRp6184
sI2933
g116
((lp6185
I60
atRp6186
sI2934
g116
((lp6187
I60
atRp6188
sI2935
g116
((lp6189
I60
atRp6190
sI2936
g116
((lp6191
I60
atRp6192
sI2937
g116
((lp6193
I60
atRp6194
sI2938
g116
((lp6195
I60
atRp6196
sI2939
g116
((lp6197
I60
atRp6198
sI2940
g116
((lp6199
I60
atRp6200
sI2941
g116
((lp6201
I60
atRp6202
sI2942
g116
((lp6203
I60
atRp6204
sI2943
g116
((lp6205
I60
atRp6206
sI2944
g116
((lp6207
I60
atRp6208
sI2945
g116
((lp6209
I60
atRp6210
sI2946
g116
((lp6211
I60
atRp6212
sI2947
g116
((lp6213
I60
atRp6214
sI2948
g116
((lp6215
I60
atRp6216
sI2949
g116
((lp6217
I60
atRp6218
sI2950
g116
((lp6219
I60
atRp6220
sI2951
g116
((lp6221
I60
atRp6222
sI2952
g116
((lp6223
I60
atRp6224
sI2953
g116
((lp6225
I60
atRp6226
sI2954
g116
((lp6227
I60
atRp6228
sI2955
g116
((lp6229
I60
atRp6230
sI2956
g116
((lp6231
I60
atRp6232
sI2957
g116
((lp6233
I60
atRp6234
sI2958
g116
((lp6235
I60
atRp6236
sI2959
g116
((lp6237
I60
atRp6238
sI2960
g116
((lp6239
I83
atRp6240
sI2961
g116
((lp6241
I83
atRp6242
sI2962
g116
((lp6243
I83
atRp6244
sI2963
g116
((lp6245
I83
atRp6246
sI2964
g116
((lp6247
I83
atRp6248
sI2965
g116
((lp6249
I83
atRp6250
sI2966
g116
((lp6251
I83
atRp6252
sI2967
g116
((lp6253
I83
atRp6254
sI2968
g116
((lp6255
I83
atRp6256
sI2969
g116
((lp6257
I83
atRp6258
sI2970
g116
((lp6259
I83
atRp6260
sI2971
g116
((lp6261
I83
atRp6262
sI2972
g116
((lp6263
I83
atRp6264
sI2973
g116
((lp6265
I83
atRp6266
sI2974
g116
((lp6267
I83
atRp6268
sI2975
g116
((lp6269
I83
atRp6270
sI2976
g116
((lp6271
I83
atRp6272
sI2977
g116
((lp6273
I83
atRp6274
sI2978
g116
((lp6275
I83
atRp6276
sI2979
g116
((lp6277
I83
atRp6278
sI2980
g116
((lp6279
I83
atRp6280
sI2981
g116
((lp6281
I83
atRp6282
sI2982
g116
((lp6283
I83
atRp6284
sI2983
g116
((lp6285
I83
aI47
atRp6286
sI2984
g116
((lp6287
I83
atRp6288
sI2985
g116
((lp6289
I83
atRp6290
sI2986
g116
((lp6291
I83
atRp6292
sI2987
g116
((lp6293
I83
atRp6294
sI2988
g116
((lp6295
I83
atRp6296
sI2989
g116
((lp6297
I83
atRp6298
sI2990
g116
((lp6299
I47
atRp6300
sI2991
g116
((lp6301
I47
atRp6302
sI2992
g116
((lp6303
I47
atRp6304
sI2993
g116
((lp6305
I47
atRp6306
sI2994
g116
((lp6307
I47
atRp6308
sI2995
g116
((lp6309
I47
atRp6310
sI2996
g116
((lp6311
I47
atRp6312
sI2997
g116
((lp6313
I47
atRp6314
sI2998
g116
((lp6315
I47
atRp6316
sI2999
g116
((lp6317
I47
atRp6318
sI3000
g116
((lp6319
I47
atRp6320
sI3001
g116
((lp6321
I47
atRp6322
sI3002
g116
((lp6323
I47
atRp6324
sI3003
g116
((lp6325
I47
atRp6326
sI3004
g116
((lp6327
I47
atRp6328
sI3005
g116
((lp6329
I47
atRp6330
sI3006
g116
((lp6331
I47
atRp6332
sI3007
g116
((lp6333
I47
atRp6334
sI3008
g116
((lp6335
I47
atRp6336
sI3009
g116
((lp6337
I47
atRp6338
sI3010
g116
((lp6339
I47
atRp6340
sI3011
g116
((lp6341
I47
atRp6342
sI3012
g116
((lp6343
I47
atRp6344
sI3013
g116
((lp6345
I47
atRp6346
sI3014
g116
((lp6347
I47
atRp6348
sI3015
g116
((lp6349
I47
atRp6350
sI3016
g116
((lp6351
I47
atRp6352
sI3017
g116
((lp6353
I47
atRp6354
sI3018
g116
((lp6355
I47
atRp6356
sI3019
g116
((lp6357
I47
atRp6358
ssbs.