(dp1
S'X'
(dp2
S'344'
p3
(lp4
S'70s'
p5
asS'345'
p6
(lp7
S'70s'
p8
asS'346'
p9
(lp10
S'70s'
p11
asS'347'
p12
(lp13
S'70s'
p14
asS'340'
p15
(lp16
S'90s'
p17
asS'341'
p18
(lp19
S'70s'
p20
asS'342'
p21
(lp22
S'70s'
p23
asS'343'
p24
(lp25
S'70s'
p26
asS'2918'
p27
(lp28
S'90s'
p29
asS'348'
p30
(lp31
S'70s'
p32
asS'349'
p33
(lp34
S'70s'
p35
asS'2185'
p36
(lp37
S'90s'
p38
asS'2919'
p39
(lp40
S'90s'
p41
asS'1653'
p42
(lp43
S'90s'
p44
asS'2318'
p45
(lp46
S'60s'
p47
asS'2319'
p48
(lp49
S'60s'
p50
asS'2316'
p51
(lp52
S'60s'
p53
asS'2317'
p54
(lp55
S'60s'
p56
asS'2314'
p57
(lp58
S'60s'
p59
asS'2315'
p60
(lp61
S'60s'
p62
asS'2312'
p63
(lp64
S'60s'
p65
asS'2313'
p66
(lp67
S'60s'
p68
asS'2310'
p69
(lp70
S'90s'
p71
asS'2311'
p72
(lp73
S'60s'
p74
asS'298'
p75
(lp76
S'60s'
p77
asS'299'
p78
(lp79
S'60s'
p80
asS'296'
p81
(lp82
S'90s'
p83
asS'297'
p84
(lp85
S'60s'
p86
asS'294'
p87
(lp88
S'60s'
p89
asS'295'
p90
(lp91
S'90s'
p92
asS'292'
p93
(lp94
S'60s'
p95
asS'293'
p96
(lp97
S'60s'
p98
asS'290'
p99
(lp100
S'60s'
p101
asS'291'
p102
(lp103
S'60s'
p104
asS'2147'
p105
(lp106
S'70s'
p107
asS'270'
p108
(lp109
S'90s'
p110
asS'271'
p111
(lp112
S'90s'
p113
asS'272'
p114
(lp115
S'90s'
p116
asS'273'
p117
(lp118
S'90s'
p119
asS'274'
p120
(lp121
S'90s'
p122
asS'275'
p123
(lp124
S'90s'
p125
asS'276'
p126
(lp127
S'90s'
p128
asS'277'
p129
(lp130
S'90s'
p131
asS'278'
p132
(lp133
S'90s'
p134
asS'279'
p135
(lp136
S'90s'
p137
asS'2146'
p138
(lp139
S'70s'
p140
asS'2268'
p141
(lp142
S'90s'
p143
asS'2269'
p144
(lp145
S'90s'
p146
asS'2262'
p147
(lp148
S'90s'
p149
asS'2263'
p150
(lp151
S'90s'
p152
asS'2260'
p153
(lp154
S'80s'
p155
asS'2261'
p156
(lp157
S'90s'
p158
asS'2266'
p159
(lp160
S'90s'
p161
asS'2267'
p162
(lp163
S'90s'
p164
asS'2264'
p165
(lp166
S'90s'
p167
asS'2265'
p168
(lp169
S'90s'
p170
asS'2442'
p171
(lp172
S'70s'
p173
asS'2443'
p174
(lp175
S'70s'
p176
asS'2440'
p177
(lp178
S'70s'
p179
asS'2441'
p180
(lp181
S'70s'
p182
asS'2446'
p183
(lp184
S'70s'
p185
asS'2447'
p186
(lp187
S'70s'
p188
asS'2444'
p189
(lp190
S'70s'
p191
asS'2445'
p192
(lp193
S'70s'
p194
asS'2448'
p195
(lp196
S'70s'
p197
asS'2449'
p198
(lp199
S'90s'
p200
asS'2189'
p201
(lp202
S'90s'
p203
asS'108'
p204
(lp205
S'90s'
p206
asS'109'
p207
(lp208
S'90s'
p209
asS'102'
p210
(lp211
S'90s'
p212
asS'103'
p213
(lp214
S'90s'
p215
asS'100'
p216
(lp217
S'90s'
p218
asS'101'
p219
(lp220
S'90s'
p221
asS'106'
p222
(lp223
S'90s'
p224
asS'107'
p225
(lp226
S'90s'
p227
asS'104'
p228
(lp229
S'90s'
p230
asS'105'
p231
(lp232
S'90s'
p233
asS'2046'
p234
(lp235
S'90s'
p236
asS'2047'
p237
(lp238
S'90s'
p239
asS'2044'
p240
(lp241
S'90s'
p242
asS'2045'
p243
(lp244
S'90s'
p245
asS'2042'
p246
(lp247
S'90s'
p248
asS'2043'
p249
(lp250
S'90s'
p251
asS'2040'
p252
(lp253
S'70s'
p254
asS'2041'
p255
(lp256
S'60s'
p257
asS'2188'
p258
(lp259
S'90s'
p260
asS'601'
p261
(lp262
S'90s'
p263
asS'2049'
p264
(lp265
S'90s'
p266
asS'1373'
p267
(lp268
S'80s'
p269
asS'2836'
p270
(lp271
S'90s'
p272
asS'1001'
p273
(lp274
S'90s'
p275
asS'2834'
p276
(lp277
S'90s'
p278
asS'1375'
p279
(lp280
S'80s'
p281
asS'2688'
p282
(lp283
S'60s'
p284
asS'2689'
p285
(lp286
S'60s'
p287
asS'2684'
p288
(lp289
S'60s'
p290
asS'2685'
p291
(lp292
S'60s'
p293
asS'2686'
p294
(lp295
S'60s'
p296
asS'2687'
p297
(lp298
S'60s'
p299
asS'2680'
p300
(lp301
S'60s'
p302
asS'2681'
p303
(lp304
S'60s'
p305
asS'2682'
p306
(lp307
S'60s'
p308
asS'2683'
p309
(lp310
S'60s'
p311
asS'99'
p312
(lp313
S'90s'
p314
asS'98'
p315
(lp316
S'90s'
p317
asS'91'
p318
(lp319
S'80s'
p320
asS'90'
p321
(lp322
S'80s'
p323
asS'93'
p324
(lp325
S'90s'
p326
asS'92'
p327
(lp328
S'80s'
p329
asS'95'
p330
(lp331
S'90s'
p332
asS'94'
p333
(lp334
S'90s'
p335
asS'97'
p336
(lp337
S'90s'
p338
asS'96'
p339
(lp340
S'90s'
p341
asS'1623'
p342
(lp343
S'80s'
p344
asS'1622'
p345
(lp346
S'90s'
p347
asS'1621'
p348
(lp349
S'80s'
p350
asS'1992'
p351
(lp352
S'60s'
p353
asS'1627'
p354
(lp355
S'80s'
p356
asS'1626'
p357
(lp358
S'90s'
p359
asS'1625'
p360
(lp361
S'80s'
p362
asS'1624'
p363
(lp364
S'80s'
p365
asS'1999'
p366
(lp367
S'90s'
p368
asS'1998'
p369
(lp370
S'90s'
p371
asS'1629'
p372
(lp373
S'90s'
p374
asS'1628'
p375
(lp376
S'80s'
p377
asS'2860'
p378
(lp379
S'90s'
p380
asS'2861'
p381
(lp382
S'70s'
p383
asS'2862'
p384
(lp385
S'70s'
p386
asS'2863'
p387
(lp388
S'70s'
p389
asS'2864'
p390
(lp391
S'70s'
p392
asS'2865'
p393
(lp394
S'70s'
p395
asS'2866'
p396
(lp397
S'70s'
p398
asS'2867'
p399
(lp400
S'70s'
p401
asS'2868'
p402
(lp403
S'70s'
p404
asS'1376'
p405
(lp406
S'80s'
p407
asS'557'
p408
(lp409
S'90s'
p410
asS'556'
p411
(lp412
S'90s'
p413
asS'551'
p414
(lp415
S'90s'
p416
asS'550'
p417
(lp418
S'90s'
p419
asS'553'
p420
(lp421
S'90s'
p422
asS'552'
p423
(lp424
S'90s'
p425
asS'1000'
p426
(lp427
S'90s'
p428
asS'1199'
p429
(lp430
S'70s'
p431
asS'1198'
p432
(lp433
S'70s'
p434
asS'1191'
p435
(lp436
S'70s'
p437
asS'1190'
p438
(lp439
S'70s'
p440
asS'1193'
p441
(lp442
S'70s'
p443
asS'1192'
p444
(lp445
S'70s'
p446
asS'1195'
p447
(lp448
S'90s'
p449
asS'1194'
p450
(lp451
S'70s'
p452
asS'1197'
p453
(lp454
S'70s'
p455
asS'1196'
p456
(lp457
S'70s'
p458
asS'1759'
p459
(lp460
S'70s'
p461
asS'1758'
p462
(lp463
S'70s'
p464
asS'1757'
p465
(lp466
S'70s'
p467
asS'1756'
p468
(lp469
S'70s'
p470
asS'1755'
p471
(lp472
S'70s'
p473
asS'1754'
p474
(lp475
S'70s'
p476
asS'1753'
p477
(lp478
S'60s'
p479
asS'1752'
p480
(lp481
S'70s'
p482
asS'1751'
p483
(lp484
S'90s'
p485
asS'1750'
p486
(lp487
S'90s'
p488
asS'1177'
p489
(lp490
S'60s'
p491
asS'1176'
p492
(lp493
S'60s'
p494
asS'1175'
p495
(lp496
S'60s'
p497
asS'1174'
p498
(lp499
S'90s'
p500
asS'1173'
p501
(lp502
S'60s'
p503
asS'1172'
p504
(lp505
S'60s'
p506
asS'1171'
p507
(lp508
S'60s'
p509
asS'1170'
p510
(lp511
S'80s'
p512
asS'1179'
p513
(lp514
S'60s'
p515
asS'1178'
p516
(lp517
S'60s'
p518
asS'1007'
p519
(lp520
S'90s'
p521
asS'2964'
p522
(lp523
S'90s'
p524
asS'1006'
p525
(lp526
S'90s'
p527
asS'1005'
p528
(lp529
S'90s'
p530
asS'1285'
p531
(lp532
S'60s'
p533
asS'1284'
p534
(lp535
S'90s'
p536
asS'1287'
p537
(lp538
S'90s'
p539
asS'1004'
p540
(lp541
S'90s'
p542
asS'1281'
p543
(lp544
S'90s'
p545
asS'1280'
p546
(lp547
S'90s'
p548
asS'1283'
p549
(lp550
S'90s'
p551
asS'1282'
p552
(lp553
S'90s'
p554
asS'1003'
p555
(lp556
S'90s'
p557
asS'1289'
p558
(lp559
S'90s'
p560
asS'1288'
p561
(lp562
S'80s'
p563
asS'1002'
p564
(lp565
S'90s'
p566
asS'1579'
p567
(lp568
S'60s'
p569
asS'1578'
p570
(lp571
S'80s'
p572
asS'689'
p573
(lp574
S'60s'
p575
asS'688'
p576
(lp577
S'60s'
p578
asS'685'
p579
(lp580
S'60s'
p581
asS'684'
p582
(lp583
S'60s'
p584
asS'687'
p585
(lp586
S'60s'
p587
asS'686'
p588
(lp589
S'60s'
p590
asS'1577'
p591
(lp592
S'60s'
p593
asS'1576'
p594
(lp595
S'60s'
p596
asS'1575'
p597
(lp598
S'60s'
p599
asS'682'
p600
(lp601
S'60s'
p602
asS'1348'
p603
(lp604
S'70s'
p605
asS'459'
p606
(lp607
S'60s'
p608
asS'621'
p609
(lp610
S'90s'
p611
asS'873'
p612
(lp613
S'90s'
p614
asS'620'
p615
(lp616
S'90s'
p617
asS'1223'
p618
(lp619
S'90s'
p620
asS'626'
p621
(lp622
S'90s'
p623
asS'2741'
p624
(lp625
S'80s'
p626
asS'625'
p627
(lp628
S'90s'
p629
asS'2740'
p630
(lp631
S'80s'
p632
asS'624'
p633
(lp634
S'90s'
p635
asS'2743'
p636
(lp637
S'80s'
p638
asS'407'
p639
(lp640
S'80s'
p641
asS'406'
p642
(lp643
S'80s'
p644
asS'405'
p645
(lp646
S'80s'
p647
asS'404'
p648
(lp649
S'80s'
p650
asS'403'
p651
(lp652
S'80s'
p653
asS'1374'
p654
(lp655
S'80s'
p656
asS'1377'
p657
(lp658
S'80s'
p659
asS'400'
p660
(lp661
S'70s'
p662
asS'1379'
p663
(lp664
S'80s'
p665
asS'1378'
p666
(lp667
S'80s'
p668
asS'452'
p669
(lp670
S'60s'
p671
asS'409'
p672
(lp673
S'90s'
p674
asS'408'
p675
(lp676
S'70s'
p677
asS'1343'
p678
(lp679
S'60s'
p680
asS'2747'
p681
(lp682
S'80s'
p683
asS'1242'
p684
(lp685
S'90s'
p686
asS'1344'
p687
(lp688
S'60s'
p689
asS'2746'
p690
(lp691
S'80s'
p692
asS'1345'
p693
(lp694
S'60s'
p695
asS'2749'
p696
(lp697
S'80s'
p698
asS'1346'
p699
(lp700
S'70s'
p701
asS'2748'
p702
(lp703
S'80s'
p704
asS'457'
p705
(lp706
S'70s'
p707
asS'1018'
p708
(lp709
S'90s'
p710
asS'1245'
p711
(lp712
S'80s'
p713
asS'379'
p714
(lp715
S'90s'
p716
asS'378'
p717
(lp718
S'90s'
p719
asS'371'
p720
(lp721
S'80s'
p722
asS'370'
p723
(lp724
S'80s'
p725
asS'373'
p726
(lp727
S'80s'
p728
asS'2038'
p729
(lp730
S'60s'
p731
asS'375'
p732
(lp733
S'80s'
p734
asS'374'
p735
(lp736
S'80s'
p737
asS'377'
p738
(lp739
S'80s'
p740
asS'376'
p741
(lp742
S'80s'
p743
asS'1244'
p744
(lp745
S'80s'
p746
asS'393'
p747
(lp748
S'80s'
p749
asS'392'
p750
(lp751
S'90s'
p752
asS'391'
p753
(lp754
S'90s'
p755
asS'390'
p756
(lp757
S'90s'
p758
asS'397'
p759
(lp760
S'90s'
p761
asS'396'
p762
(lp763
S'90s'
p764
asS'395'
p765
(lp766
S'90s'
p767
asS'394'
p768
(lp769
S'90s'
p770
asS'399'
p771
(lp772
S'90s'
p773
asS'398'
p774
(lp775
S'90s'
p776
asS'2309'
p777
(lp778
S'60s'
p779
asS'2308'
p780
(lp781
S'60s'
p782
asS'2301'
p783
(lp784
S'60s'
p785
asS'2300'
p786
(lp787
S'60s'
p788
asS'2303'
p789
(lp790
S'60s'
p791
asS'2302'
p792
(lp793
S'60s'
p794
asS'2305'
p795
(lp796
S'60s'
p797
asS'2304'
p798
(lp799
S'60s'
p800
asS'2307'
p801
(lp802
S'60s'
p803
asS'2306'
p804
(lp805
S'60s'
p806
asS'245'
p807
(lp808
S'70s'
p809
asS'244'
p810
(lp811
S'70s'
p812
asS'247'
p813
(lp814
S'70s'
p815
asS'246'
p816
(lp817
S'70s'
p818
asS'241'
p819
(lp820
S'70s'
p821
asS'240'
p822
(lp823
S'60s'
p824
asS'243'
p825
(lp826
S'70s'
p827
asS'242'
p828
(lp829
S'70s'
p830
asS'249'
p831
(lp832
S'70s'
p833
asS'248'
p834
(lp835
S'70s'
p836
asS'2275'
p837
(lp838
S'90s'
p839
asS'2274'
p840
(lp841
S'90s'
p842
asS'2277'
p843
(lp844
S'60s'
p845
asS'2276'
p846
(lp847
S'60s'
p848
asS'2271'
p849
(lp850
S'90s'
p851
asS'2270'
p852
(lp853
S'90s'
p854
asS'2273'
p855
(lp856
S'90s'
p857
asS'2272'
p858
(lp859
S'90s'
p860
asS'2279'
p861
(lp862
S'60s'
p863
asS'2278'
p864
(lp865
S'60s'
p866
asS'2154'
p867
(lp868
S'80s'
p869
asS'2198'
p870
(lp871
S'90s'
p872
asS'2459'
p873
(lp874
S'90s'
p875
asS'2458'
p876
(lp877
S'80s'
p878
asS'2156'
p879
(lp880
S'70s'
p881
asS'2455'
p882
(lp883
S'70s'
p884
asS'2454'
p885
(lp886
S'70s'
p887
asS'2457'
p888
(lp889
S'80s'
p890
asS'2456'
p891
(lp892
S'80s'
p893
asS'2451'
p894
(lp895
S'90s'
p896
asS'2450'
p897
(lp898
S'70s'
p899
asS'2453'
p900
(lp901
S'70s'
p902
asS'2452'
p903
(lp904
S'70s'
p905
asS'179'
p906
(lp907
S'90s'
p908
asS'178'
p909
(lp910
S'60s'
p911
asS'177'
p912
(lp913
S'90s'
p914
asS'176'
p915
(lp916
S'90s'
p917
asS'175'
p918
(lp919
S'90s'
p920
asS'174'
p921
(lp922
S'90s'
p923
asS'173'
p924
(lp925
S'90s'
p926
asS'172'
p927
(lp928
S'90s'
p929
asS'2969'
p930
(lp931
S'90s'
p932
asS'170'
p933
(lp934
S'90s'
p935
asS'2051'
p936
(lp937
S'90s'
p938
asS'1502'
p939
(lp940
S'90s'
p941
asS'2053'
p942
(lp943
S'90s'
p944
asS'1111'
p945
(lp946
S'90s'
p947
asS'2055'
p948
(lp949
S'90s'
p950
asS'2054'
p951
(lp952
S'90s'
p953
asS'2057'
p954
(lp955
S'60s'
p956
asS'2056'
p957
(lp958
S'70s'
p959
asS'2059'
p960
(lp961
S'60s'
p962
asS'2058'
p963
(lp964
S'60s'
p965
asS'1500'
p966
(lp967
S'60s'
p968
asS'1501'
p969
(lp970
S'60s'
p971
asS'652'
p972
(lp973
S'90s'
p974
asS'2968'
p975
(lp976
S'90s'
p977
asS'653'
p978
(lp979
S'90s'
p980
asS'1110'
p981
(lp982
S'70s'
p983
asS'650'
p984
(lp985
S'90s'
p986
asS'651'
p987
(lp988
S'90s'
p989
asS'2157'
p990
(lp991
S'80s'
p992
asS'1977'
p993
(lp994
S'90s'
p995
asS'2699'
p996
(lp997
S'60s'
p998
asS'2698'
p999
(lp1000
S'60s'
p1001
asS'2697'
p1002
(lp1003
S'60s'
p1004
asS'2696'
p1005
(lp1006
S'60s'
p1007
asS'2695'
p1008
(lp1009
S'60s'
p1010
asS'2694'
p1011
(lp1012
S'60s'
p1013
asS'2693'
p1014
(lp1015
S'60s'
p1016
asS'2692'
p1017
(lp1018
S'60s'
p1019
asS'2691'
p1020
(lp1021
S'60s'
p1022
asS'2690'
p1023
(lp1024
S'60s'
p1025
asS'1974'
p1026
(lp1027
S'90s'
p1028
asS'1973'
p1029
(lp1030
S'90s'
p1031
asS'1972'
p1032
(lp1033
S'90s'
p1034
asS'1032'
p1035
(lp1036
S'90s'
p1037
asS'1971'
p1038
(lp1039
S'90s'
p1040
asS'1606'
p1041
(lp1042
S'80s'
p1043
asS'1968'
p1044
(lp1045
S'90s'
p1046
asS'1969'
p1047
(lp1048
S'90s'
p1049
asS'1618'
p1050
(lp1051
S'90s'
p1052
asS'1619'
p1053
(lp1054
S'80s'
p1055
asS'1616'
p1056
(lp1057
S'80s'
p1058
asS'1617'
p1059
(lp1060
S'90s'
p1061
asS'1614'
p1062
(lp1063
S'80s'
p1064
asS'1615'
p1065
(lp1066
S'80s'
p1067
asS'1612'
p1068
(lp1069
S'80s'
p1070
asS'1613'
p1071
(lp1072
S'80s'
p1073
asS'1610'
p1074
(lp1075
S'80s'
p1076
asS'1611'
p1077
(lp1078
S'80s'
p1079
asS'1985'
p1080
(lp1081
S'90s'
p1082
asS'2873'
p1083
(lp1084
S'70s'
p1085
asS'2872'
p1086
(lp1087
S'70s'
p1088
asS'2871'
p1089
(lp1090
S'70s'
p1091
asS'2870'
p1092
(lp1093
S'70s'
p1094
asS'2877'
p1095
(lp1096
S'70s'
p1097
asS'2876'
p1098
(lp1099
S'70s'
p1100
asS'2875'
p1101
(lp1102
S'70s'
p1103
asS'2874'
p1104
(lp1105
S'90s'
p1106
asS'2879'
p1107
(lp1108
S'70s'
p1109
asS'2878'
p1110
(lp1111
S'70s'
p1112
asS'1768'
p1113
(lp1114
S'70s'
p1115
asS'1769'
p1116
(lp1117
S'70s'
p1118
asS'1762'
p1119
(lp1120
S'70s'
p1121
asS'1763'
p1122
(lp1123
S'70s'
p1124
asS'1760'
p1125
(lp1126
S'70s'
p1127
asS'1761'
p1128
(lp1129
S'70s'
p1130
asS'1766'
p1131
(lp1132
S'70s'
p1133
asS'1767'
p1134
(lp1135
S'70s'
p1136
asS'1764'
p1137
(lp1138
S'70s'
p1139
asS'1765'
p1140
(lp1141
S'80s'
p1142
asS'1142'
p1143
(lp1144
S'70s'
p1145
asS'1143'
p1146
(lp1147
S'70s'
p1148
asS'1140'
p1149
(lp1150
S'70s'
p1151
asS'1141'
p1152
(lp1153
S'70s'
p1154
asS'1146'
p1155
(lp1156
S'70s'
p1157
asS'1147'
p1158
(lp1159
S'60s'
p1160
asS'1144'
p1161
(lp1162
S'70s'
p1163
asS'1145'
p1164
(lp1165
S'70s'
p1166
asS'1148'
p1167
(lp1168
S'60s'
p1169
asS'1149'
p1170
(lp1171
S'70s'
p1172
asS'2967'
p1173
(lp1174
S'90s'
p1175
asS'2966'
p1176
(lp1177
S'90s'
p1178
asS'1546'
p1179
(lp1180
S'60s'
p1181
asS'1547'
p1182
(lp1183
S'60s'
p1184
asS'1544'
p1185
(lp1186
S'70s'
p1187
asS'1545'
p1188
(lp1189
S'60s'
p1190
asS'1542'
p1191
(lp1192
S'60s'
p1193
asS'1543'
p1194
(lp1195
S'60s'
p1196
asS'1540'
p1197
(lp1198
S'60s'
p1199
asS'695'
p1200
(lp1201
S'60s'
p1202
asS'698'
p1203
(lp1204
S'60s'
p1205
asS'699'
p1206
(lp1207
S'60s'
p1208
asS'1548'
p1209
(lp1210
S'70s'
p1211
asS'1549'
p1212
(lp1213
S'90s'
p1214
asS'542'
p1215
(lp1216
S'80s'
p1217
asS'762'
p1218
(lp1219
S'60s'
p1220
asS'540'
p1221
(lp1222
S'80s'
p1223
asS'541'
p1224
(lp1225
S'80s'
p1226
asS'546'
p1227
(lp1228
S'90s'
p1229
asS'547'
p1230
(lp1231
S'90s'
p1232
asS'544'
p1233
(lp1234
S'80s'
p1235
asS'545'
p1236
(lp1237
S'80s'
p1238
asS'548'
p1239
(lp1240
S'90s'
p1241
asS'549'
p1242
(lp1243
S'90s'
p1244
asS'760'
p1245
(lp1246
S'90s'
p1247
asS'761'
p1248
(lp1249
S'90s'
p1250
asS'766'
p1251
(lp1252
S'60s'
p1253
asS'767'
p1254
(lp1255
S'60s'
p1256
asS'764'
p1257
(lp1258
S'60s'
p1259
asS'765'
p1260
(lp1261
S'90s'
p1262
asS'414'
p1263
(lp1264
S'90s'
p1265
asS'415'
p1266
(lp1267
S'60s'
p1268
asS'416'
p1269
(lp1270
S'90s'
p1271
asS'417'
p1272
(lp1273
S'70s'
p1274
asS'1388'
p1275
(lp1276
S'90s'
p1277
asS'1389'
p1278
(lp1279
S'90s'
p1280
asS'412'
p1281
(lp1282
S'90s'
p1283
asS'413'
p1284
(lp1285
S'70s'
p1286
asS'1384'
p1287
(lp1288
S'70s'
p1289
asS'1385'
p1290
(lp1291
S'90s'
p1292
asS'1386'
p1293
(lp1294
S'90s'
p1295
asS'1387'
p1296
(lp1297
S'90s'
p1298
asS'1380'
p1299
(lp1300
S'90s'
p1301
asS'1381'
p1302
(lp1303
S'90s'
p1304
asS'1382'
p1305
(lp1306
S'90s'
p1307
asS'1383'
p1308
(lp1309
S'90s'
p1310
asS'1254'
p1311
(lp1312
S'90s'
p1313
asS'368'
p1314
(lp1315
S'70s'
p1316
asS'369'
p1317
(lp1318
S'80s'
p1319
asS'366'
p1320
(lp1321
S'80s'
p1322
asS'367'
p1323
(lp1324
S'80s'
p1325
asS'364'
p1326
(lp1327
S'80s'
p1328
asS'365'
p1329
(lp1330
S'80s'
p1331
asS'362'
p1332
(lp1333
S'80s'
p1334
asS'363'
p1335
(lp1336
S'80s'
p1337
asS'360'
p1338
(lp1339
S'80s'
p1340
asS'361'
p1341
(lp1342
S'80s'
p1343
asS'2760'
p1344
(lp1345
S'90s'
p1346
asS'380'
p1347
(lp1348
S'70s'
p1349
asS'381'
p1350
(lp1351
S'90s'
p1352
asS'382'
p1353
(lp1354
S'90s'
p1355
asS'383'
p1356
(lp1357
S'70s'
p1358
asS'384'
p1359
(lp1360
S'90s'
p1361
asS'385'
p1362
(lp1363
S'90s'
p1364
asS'386'
p1365
(lp1366
S'90s'
p1367
asS'387'
p1368
(lp1369
S'90s'
p1370
asS'388'
p1371
(lp1372
S'90s'
p1373
asS'389'
p1374
(lp1375
S'90s'
p1376
asS'1253'
p1377
(lp1378
S'90s'
p1379
asS'1077'
p1380
(lp1381
S'90s'
p1382
asS'2792'
p1383
(lp1384
S'90s'
p1385
asS'622'
p1386
(lp1387
S'90s'
p1388
asS'900'
p1389
(lp1390
S'90s'
p1391
asS'2190'
p1392
(lp1393
S'90s'
p1394
asS'2191'
p1395
(lp1396
S'90s'
p1397
asS'258'
p1398
(lp1399
S'70s'
p1400
asS'259'
p1401
(lp1402
S'70s'
p1403
asS'2194'
p1404
(lp1405
S'90s'
p1406
asS'2195'
p1407
(lp1408
S'90s'
p1409
asS'2196'
p1410
(lp1411
S'90s'
p1412
asS'2197'
p1413
(lp1414
S'90s'
p1415
asS'252'
p1416
(lp1417
S'70s'
p1418
asS'253'
p1419
(lp1420
S'70s'
p1421
asS'250'
p1422
(lp1423
S'70s'
p1424
asS'251'
p1425
(lp1426
S'80s'
p1427
asS'256'
p1428
(lp1429
S'70s'
p1430
asS'257'
p1431
(lp1432
S'90s'
p1433
asS'254'
p1434
(lp1435
S'70s'
p1436
asS'255'
p1437
(lp1438
S'70s'
p1439
asS'2200'
p1440
(lp1441
S'60s'
p1442
asS'2201'
p1443
(lp1444
S'80s'
p1445
asS'2202'
p1446
(lp1447
S'90s'
p1448
asS'2203'
p1449
(lp1450
S'90s'
p1451
asS'2204'
p1452
(lp1453
S'90s'
p1454
asS'2205'
p1455
(lp1456
S'90s'
p1457
asS'2206'
p1458
(lp1459
S'90s'
p1460
asS'2207'
p1461
(lp1462
S'90s'
p1463
asS'2208'
p1464
(lp1465
S'90s'
p1466
asS'2209'
p1467
(lp1468
S'90s'
p1469
asS'1251'
p1470
(lp1471
S'90s'
p1472
asS'2428'
p1473
(lp1474
S'70s'
p1475
asS'2429'
p1476
(lp1477
S'70s'
p1478
asS'906'
p1479
(lp1480
S'90s'
p1481
asS'2420'
p1482
(lp1483
S'70s'
p1484
asS'2421'
p1485
(lp1486
S'70s'
p1487
asS'2422'
p1488
(lp1489
S'70s'
p1490
asS'2423'
p1491
(lp1492
S'70s'
p1493
asS'2424'
p1494
(lp1495
S'70s'
p1496
asS'2425'
p1497
(lp1498
S'70s'
p1499
asS'2426'
p1500
(lp1501
S'70s'
p1502
asS'2427'
p1503
(lp1504
S'70s'
p1505
asS'901'
p1506
(lp1507
S'70s'
p1508
asS'168'
p1509
(lp1510
S'90s'
p1511
asS'169'
p1512
(lp1513
S'90s'
p1514
asS'164'
p1515
(lp1516
S'90s'
p1517
asS'165'
p1518
(lp1519
S'90s'
p1520
asS'166'
p1521
(lp1522
S'90s'
p1523
asS'167'
p1524
(lp1525
S'90s'
p1526
asS'160'
p1527
(lp1528
S'90s'
p1529
asS'161'
p1530
(lp1531
S'90s'
p1532
asS'162'
p1533
(lp1534
S'90s'
p1535
asS'163'
p1536
(lp1537
S'90s'
p1538
asS'2518'
p1539
(lp1540
S'70s'
p1541
asS'2519'
p1542
(lp1543
S'70s'
p1544
asS'1980'
p1545
(lp1546
S'90s'
p1547
asS'2514'
p1548
(lp1549
S'70s'
p1550
asS'2515'
p1551
(lp1552
S'70s'
p1553
asS'2516'
p1554
(lp1555
S'70s'
p1556
asS'2517'
p1557
(lp1558
S'70s'
p1559
asS'2510'
p1560
(lp1561
S'90s'
p1562
asS'2511'
p1563
(lp1564
S'90s'
p1565
asS'2512'
p1566
(lp1567
S'70s'
p1568
asS'2513'
p1569
(lp1570
S'70s'
p1571
asS'2734'
p1572
(lp1573
S'80s'
p1574
asS'2735'
p1575
(lp1576
S'90s'
p1577
asS'2736'
p1578
(lp1579
S'80s'
p1580
asS'2737'
p1581
(lp1582
S'80s'
p1583
asS'2730'
p1584
(lp1585
S'80s'
p1586
asS'2731'
p1587
(lp1588
S'80s'
p1589
asS'2732'
p1590
(lp1591
S'80s'
p1592
asS'2733'
p1593
(lp1594
S'80s'
p1595
asS'2738'
p1596
(lp1597
S'80s'
p1598
asS'2739'
p1599
(lp1600
S'80s'
p1601
asS'1106'
p1602
(lp1603
S'90s'
p1604
asS'2048'
p1605
(lp1606
S'90s'
p1607
asS'1090'
p1608
(lp1609
S'90s'
p1610
asS'609'
p1611
(lp1612
S'90s'
p1613
asS'1091'
p1614
(lp1615
S'90s'
p1616
asS'1814'
p1617
(lp1618
S'60s'
p1619
asS'1815'
p1620
(lp1621
S'90s'
p1622
asS'1816'
p1623
(lp1624
S'60s'
p1625
asS'1817'
p1626
(lp1627
S'60s'
p1628
asS'1810'
p1629
(lp1630
S'90s'
p1631
asS'1811'
p1632
(lp1633
S'60s'
p1634
asS'1812'
p1635
(lp1636
S'60s'
p1637
asS'1813'
p1638
(lp1639
S'60s'
p1640
asS'1093'
p1641
(lp1642
S'90s'
p1643
asS'1818'
p1644
(lp1645
S'90s'
p1646
asS'1819'
p1647
(lp1648
S'60s'
p1649
asS'1107'
p1650
(lp1651
S'90s'
p1652
asS'646'
p1653
(lp1654
S'90s'
p1655
asS'1098'
p1656
(lp1657
S'90s'
p1658
asS'1087'
p1659
(lp1660
S'90s'
p1661
asS'2795'
p1662
(lp1663
S'90s'
p1664
asS'1099'
p1665
(lp1666
S'90s'
p1667
asS'1609'
p1668
(lp1669
S'80s'
p1670
asS'1608'
p1671
(lp1672
S'80s'
p1673
asS'1979'
p1674
(lp1675
S'90s'
p1676
asS'1978'
p1677
(lp1678
S'90s'
p1679
asS'1601'
p1680
(lp1681
S'90s'
p1682
asS'1600'
p1683
(lp1684
S'80s'
p1685
asS'1603'
p1686
(lp1687
S'90s'
p1688
asS'1602'
p1689
(lp1690
S'90s'
p1691
asS'1605'
p1692
(lp1693
S'90s'
p1694
asS'1604'
p1695
(lp1696
S'90s'
p1697
asS'1607'
p1698
(lp1699
S'80s'
p1700
asS'1970'
p1701
(lp1702
S'60s'
p1703
asS'809'
p1704
(lp1705
S'90s'
p1706
asS'808'
p1707
(lp1708
S'90s'
p1709
asS'803'
p1710
(lp1711
S'90s'
p1712
asS'802'
p1713
(lp1714
S'90s'
p1715
asS'801'
p1716
(lp1717
S'90s'
p1718
asS'800'
p1719
(lp1720
S'90s'
p1721
asS'807'
p1722
(lp1723
S'90s'
p1724
asS'806'
p1725
(lp1726
S'90s'
p1727
asS'805'
p1728
(lp1729
S'80s'
p1730
asS'804'
p1731
(lp1732
S'90s'
p1733
asS'2848'
p1734
(lp1735
S'90s'
p1736
asS'2849'
p1737
(lp1738
S'90s'
p1739
asS'2846'
p1740
(lp1741
S'90s'
p1742
asS'1102'
p1743
(lp1744
S'60s'
p1745
asS'2844'
p1746
(lp1747
S'90s'
p1748
asS'2845'
p1749
(lp1750
S'90s'
p1751
asS'2842'
p1752
(lp1753
S'90s'
p1754
asS'2843'
p1755
(lp1756
S'90s'
p1757
asS'2840'
p1758
(lp1759
S'90s'
p1760
asS'2841'
p1761
(lp1762
S'90s'
p1763
asS'909'
p1764
(lp1765
S'90s'
p1766
asS'1775'
p1767
(lp1768
S'70s'
p1769
asS'1774'
p1770
(lp1771
S'70s'
p1772
asS'1777'
p1773
(lp1774
S'70s'
p1775
asS'1776'
p1776
(lp1777
S'70s'
p1778
asS'1771'
p1779
(lp1780
S'70s'
p1781
asS'1770'
p1782
(lp1783
S'90s'
p1784
asS'1773'
p1785
(lp1786
S'70s'
p1787
asS'1772'
p1788
(lp1789
S'70s'
p1790
asS'1779'
p1791
(lp1792
S'90s'
p1793
asS'1778'
p1794
(lp1795
S'70s'
p1796
asS'608'
p1797
(lp1798
S'70s'
p1799
asS'1551'
p1800
(lp1801
S'90s'
p1802
asS'1159'
p1803
(lp1804
S'60s'
p1805
asS'1158'
p1806
(lp1807
S'60s'
p1808
asS'1550'
p1809
(lp1810
S'90s'
p1811
asS'1155'
p1812
(lp1813
S'60s'
p1814
asS'1154'
p1815
(lp1816
S'60s'
p1817
asS'1157'
p1818
(lp1819
S'60s'
p1820
asS'1156'
p1821
(lp1822
S'90s'
p1823
asS'1151'
p1824
(lp1825
S'60s'
p1826
asS'1150'
p1827
(lp1828
S'60s'
p1829
asS'1153'
p1830
(lp1831
S'60s'
p1832
asS'1152'
p1833
(lp1834
S'90s'
p1835
asS'1555'
p1836
(lp1837
S'80s'
p1838
asS'1554'
p1839
(lp1840
S'90s'
p1841
asS'2998'
p1842
(lp1843
S'90s'
p1844
asS'2999'
p1845
(lp1846
S'90s'
p1847
asS'1553'
p1848
(lp1849
S'90s'
p1850
asS'1552'
p1851
(lp1852
S'90s'
p1853
asS'59'
p1854
(lp1855
S'80s'
p1856
asS'58'
p1857
(lp1858
S'80s'
p1859
asS'1557'
p1860
(lp1861
S'70s'
p1862
asS'1556'
p1863
(lp1864
S'90s'
p1865
asS'1559'
p1866
(lp1867
S'70s'
p1868
asS'54'
p1869
(lp1870
S'70s'
p1871
asS'57'
p1872
(lp1873
S'80s'
p1874
asS'56'
p1875
(lp1876
S'70s'
p1877
asS'51'
p1878
(lp1879
S'70s'
p1880
asS'50'
p1881
(lp1882
S'70s'
p1883
asS'53'
p1884
(lp1885
S'70s'
p1886
asS'52'
p1887
(lp1888
S'70s'
p1889
asS'537'
p1890
(lp1891
S'80s'
p1892
asS'55'
p1893
(lp1894
S'70s'
p1895
asS'535'
p1896
(lp1897
S'80s'
p1898
asS'534'
p1899
(lp1900
S'80s'
p1901
asS'533'
p1902
(lp1903
S'80s'
p1904
asS'532'
p1905
(lp1906
S'80s'
p1907
asS'531'
p1908
(lp1909
S'70s'
p1910
asS'1558'
p1911
(lp1912
S'70s'
p1913
asS'2992'
p1914
(lp1915
S'90s'
p1916
asS'539'
p1917
(lp1918
S'80s'
p1919
asS'538'
p1920
(lp1921
S'80s'
p1922
asS'2993'
p1923
(lp1924
S'90s'
p1925
asS'2994'
p1926
(lp1927
S'90s'
p1928
asS'2995'
p1929
(lp1930
S'90s'
p1931
asS'2805'
p1932
(lp1933
S'90s'
p1934
asS'2996'
p1935
(lp1936
S'80s'
p1937
asS'2997'
p1938
(lp1939
S'90s'
p1940
asS'1975'
p1941
(lp1942
S'90s'
p1943
asS'536'
p1944
(lp1945
S'80s'
p1946
asS'429'
p1947
(lp1948
S'80s'
p1949
asS'428'
p1950
(lp1951
S'80s'
p1952
asS'1399'
p1953
(lp1954
S'70s'
p1955
asS'1398'
p1956
(lp1957
S'90s'
p1958
asS'1397'
p1959
(lp1960
S'90s'
p1961
asS'420'
p1962
(lp1963
S'70s'
p1964
asS'423'
p1965
(lp1966
S'80s'
p1967
asS'1394'
p1968
(lp1969
S'90s'
p1970
asS'425'
p1971
(lp1972
S'80s'
p1973
asS'424'
p1974
(lp1975
S'80s'
p1976
asS'427'
p1977
(lp1978
S'80s'
p1979
asS'426'
p1980
(lp1981
S'80s'
p1982
asS'854'
p1983
(lp1984
S'90s'
p1985
asS'530'
p1986
(lp1987
S'80s'
p1988
asS'853'
p1989
(lp1990
S'90s'
p1991
asS'1443'
p1992
(lp1993
S'90s'
p1994
asS'2183'
p1995
(lp1996
S'90s'
p1997
asS'2182'
p1998
(lp1999
S'90s'
p2000
asS'2181'
p2001
(lp2002
S'90s'
p2003
asS'2180'
p2004
(lp2005
S'90s'
p2006
asS'2187'
p2007
(lp2008
S'90s'
p2009
asS'2186'
p2010
(lp2011
S'90s'
p2012
asS'229'
p2013
(lp2014
S'70s'
p2015
asS'228'
p2016
(lp2017
S'90s'
p2018
asS'227'
p2019
(lp2020
S'70s'
p2021
asS'226'
p2022
(lp2023
S'60s'
p2024
asS'225'
p2025
(lp2026
S'60s'
p2027
asS'224'
p2028
(lp2029
S'60s'
p2030
asS'223'
p2031
(lp2032
S'60s'
p2033
asS'222'
p2034
(lp2035
S'60s'
p2036
asS'221'
p2037
(lp2038
S'60s'
p2039
asS'220'
p2040
(lp2041
S'60s'
p2042
asS'2213'
p2043
(lp2044
S'70s'
p2045
asS'2212'
p2046
(lp2047
S'70s'
p2048
asS'2211'
p2049
(lp2050
S'70s'
p2051
asS'2210'
p2052
(lp2053
S'90s'
p2054
asS'2217'
p2055
(lp2056
S'90s'
p2057
asS'2216'
p2058
(lp2059
S'90s'
p2060
asS'2215'
p2061
(lp2062
S'70s'
p2063
asS'2214'
p2064
(lp2065
S'70s'
p2066
asS'2219'
p2067
(lp2068
S'70s'
p2069
asS'2218'
p2070
(lp2071
S'90s'
p2072
asS'763'
p2073
(lp2074
S'90s'
p2075
asS'2230'
p2076
(lp2077
S'90s'
p2078
asS'151'
p2079
(lp2080
S'90s'
p2081
asS'150'
p2082
(lp2083
S'90s'
p2084
asS'2439'
p2085
(lp2086
S'70s'
p2087
asS'2438'
p2088
(lp2089
S'70s'
p2090
asS'155'
p2091
(lp2092
S'90s'
p2093
asS'154'
p2094
(lp2095
S'90s'
p2096
asS'157'
p2097
(lp2098
S'90s'
p2099
asS'156'
p2100
(lp2101
S'90s'
p2102
asS'2433'
p2103
(lp2104
S'70s'
p2105
asS'2432'
p2106
(lp2107
S'70s'
p2108
asS'2431'
p2109
(lp2110
S'70s'
p2111
asS'2430'
p2112
(lp2113
S'70s'
p2114
asS'2437'
p2115
(lp2116
S'70s'
p2117
asS'2436'
p2118
(lp2119
S'90s'
p2120
asS'2435'
p2121
(lp2122
S'70s'
p2123
asS'2434'
p2124
(lp2125
S'70s'
p2126
asS'2236'
p2127
(lp2128
S'60s'
p2129
asS'2509'
p2130
(lp2131
S'90s'
p2132
asS'2508'
p2133
(lp2134
S'90s'
p2135
asS'2507'
p2136
(lp2137
S'90s'
p2138
asS'2506'
p2139
(lp2140
S'90s'
p2141
asS'2505'
p2142
(lp2143
S'90s'
p2144
asS'2504'
p2145
(lp2146
S'90s'
p2147
asS'2503'
p2148
(lp2149
S'70s'
p2150
asS'2502'
p2151
(lp2152
S'90s'
p2153
asS'2501'
p2154
(lp2155
S'90s'
p2156
asS'2500'
p2157
(lp2158
S'90s'
p2159
asS'2727'
p2160
(lp2161
S'80s'
p2162
asS'2726'
p2163
(lp2164
S'80s'
p2165
asS'2725'
p2166
(lp2167
S'80s'
p2168
asS'2724'
p2169
(lp2170
S'80s'
p2171
asS'2723'
p2172
(lp2173
S'70s'
p2174
asS'2722'
p2175
(lp2176
S'70s'
p2177
asS'2721'
p2178
(lp2179
S'70s'
p2180
asS'2720'
p2181
(lp2182
S'70s'
p2183
asS'2729'
p2184
(lp2185
S'80s'
p2186
asS'2728'
p2187
(lp2188
S'80s'
p2189
asS'2199'
p2190
(lp2191
S'90s'
p2192
asS'1807'
p2193
(lp2194
S'60s'
p2195
asS'1806'
p2196
(lp2197
S'60s'
p2198
asS'1805'
p2199
(lp2200
S'70s'
p2201
asS'1804'
p2202
(lp2203
S'70s'
p2204
asS'1803'
p2205
(lp2206
S'70s'
p2207
asS'1802'
p2208
(lp2209
S'70s'
p2210
asS'1801'
p2211
(lp2212
S'70s'
p2213
asS'1800'
p2214
(lp2215
S'70s'
p2216
asS'1809'
p2217
(lp2218
S'60s'
p2219
asS'1808'
p2220
(lp2221
S'60s'
p2222
asS'632'
p2223
(lp2224
S'90s'
p2225
asS'1256'
p2226
(lp2227
S'90s'
p2228
asS'1948'
p2229
(lp2230
S'60s'
p2231
asS'1949'
p2232
(lp2233
S'60s'
p2234
asS'1257'
p2235
(lp2236
S'90s'
p2237
asS'1942'
p2238
(lp2239
S'90s'
p2240
asS'1943'
p2241
(lp2242
S'90s'
p2243
asS'1940'
p2244
(lp2245
S'60s'
p2246
asS'1941'
p2247
(lp2248
S'90s'
p2249
asS'1946'
p2250
(lp2251
S'60s'
p2252
asS'1947'
p2253
(lp2254
S'60s'
p2255
asS'1944'
p2256
(lp2257
S'60s'
p2258
asS'1945'
p2259
(lp2260
S'60s'
p2261
asS'818'
p2262
(lp2263
S'60s'
p2264
asS'0'
(lp2265
S'60s'
p2266
asS'1255'
p2267
(lp2268
S'90s'
p2269
asS'810'
p2270
(lp2271
S'90s'
p2272
asS'811'
p2273
(lp2274
S'90s'
p2275
asS'812'
p2276
(lp2277
S'90s'
p2278
asS'813'
p2279
(lp2280
S'90s'
p2281
asS'814'
p2282
(lp2283
S'90s'
p2284
asS'815'
p2285
(lp2286
S'90s'
p2287
asS'816'
p2288
(lp2289
S'90s'
p2290
asS'817'
p2291
(lp2292
S'90s'
p2293
asS'2859'
p2294
(lp2295
S'70s'
p2296
asS'2858'
p2297
(lp2298
S'90s'
p2299
asS'1250'
p2300
(lp2301
S'90s'
p2302
asS'1990'
p2303
(lp2304
S'90s'
p2305
asS'2851'
p2306
(lp2307
S'80s'
p2308
asS'2850'
p2309
(lp2310
S'90s'
p2311
asS'2853'
p2312
(lp2313
S'60s'
p2314
asS'2852'
p2315
(lp2316
S'60s'
p2317
asS'2855'
p2318
(lp2319
S'60s'
p2320
asS'2854'
p2321
(lp2322
S'60s'
p2323
asS'2857'
p2324
(lp2325
S'70s'
p2326
asS'2856'
p2327
(lp2328
S'70s'
p2329
asS'1490'
p2330
(lp2331
S'90s'
p2332
asS'1491'
p2333
(lp2334
S'60s'
p2335
asS'1492'
p2336
(lp2337
S'60s'
p2338
asS'1620'
p2339
(lp2340
S'80s'
p2341
asS'1494'
p2342
(lp2343
S'60s'
p2344
asS'1495'
p2345
(lp2346
S'90s'
p2347
asS'1496'
p2348
(lp2349
S'60s'
p2350
asS'1497'
p2351
(lp2352
S'60s'
p2353
asS'1498'
p2354
(lp2355
S'60s'
p2356
asS'1499'
p2357
(lp2358
S'80s'
p2359
asS'1395'
p2360
(lp2361
S'80s'
p2362
asS'1994'
p2363
(lp2364
S'90s'
p2365
asS'1700'
p2366
(lp2367
S'90s'
p2368
asS'1701'
p2369
(lp2370
S'90s'
p2371
asS'1702'
p2372
(lp2373
S'90s'
p2374
asS'422'
p2375
(lp2376
S'90s'
p2377
asS'1704'
p2378
(lp2379
S'90s'
p2380
asS'1705'
p2381
(lp2382
S'90s'
p2383
asS'1706'
p2384
(lp2385
S'60s'
p2386
asS'1707'
p2387
(lp2388
S'90s'
p2389
asS'1708'
p2390
(lp2391
S'90s'
p2392
asS'1393'
p2393
(lp2394
S'90s'
p2395
asS'1996'
p2396
(lp2397
S'90s'
p2398
asS'1392'
p2399
(lp2400
S'90s'
p2401
asS'1391'
p2402
(lp2403
S'90s'
p2404
asS'1390'
p2405
(lp2406
S'90s'
p2407
asS'1128'
p2408
(lp2409
S'90s'
p2410
asS'1129'
p2411
(lp2412
S'70s'
p2413
asS'1120'
p2414
(lp2415
S'90s'
p2416
asS'1121'
p2417
(lp2418
S'70s'
p2419
asS'1122'
p2420
(lp2421
S'60s'
p2422
asS'1123'
p2423
(lp2424
S'90s'
p2425
asS'1124'
p2426
(lp2427
S'90s'
p2428
asS'1125'
p2429
(lp2430
S'90s'
p2431
asS'1126'
p2432
(lp2433
S'90s'
p2434
asS'1127'
p2435
(lp2436
S'90s'
p2437
asS'2989'
p2438
(lp2439
S'90s'
p2440
asS'2988'
p2441
(lp2442
S'90s'
p2443
asS'2983'
p2444
(lp2445
S'90s'
p2446
asS'2982'
p2447
(lp2448
S'90s'
p2449
asS'2981'
p2450
(lp2451
S'90s'
p2452
asS'2980'
p2453
(lp2454
S'90s'
p2455
asS'2987'
p2456
(lp2457
S'90s'
p2458
asS'2986'
p2459
(lp2460
S'90s'
p2461
asS'2985'
p2462
(lp2463
S'90s'
p2464
asS'2984'
p2465
(lp2466
S'90s'
p2467
asS'524'
p2468
(lp2469
S'70s'
p2470
asS'525'
p2471
(lp2472
S'80s'
p2473
asS'526'
p2474
(lp2475
S'80s'
p2476
asS'527'
p2477
(lp2478
S'80s'
p2479
asS'520'
p2480
(lp2481
S'70s'
p2482
asS'521'
p2483
(lp2484
S'70s'
p2485
asS'522'
p2486
(lp2487
S'80s'
p2488
asS'523'
p2489
(lp2490
S'90s'
p2491
asS'1014'
p2492
(lp2493
S'90s'
p2494
asS'1015'
p2495
(lp2496
S'90s'
p2497
asS'1016'
p2498
(lp2499
S'70s'
p2500
asS'1017'
p2501
(lp2502
S'90s'
p2503
asS'528'
p2504
(lp2505
S'80s'
p2506
asS'529'
p2507
(lp2508
S'80s'
p2509
asS'1012'
p2510
(lp2511
S'90s'
p2512
asS'1013'
p2513
(lp2514
S'90s'
p2515
asS'1234'
p2516
(lp2517
S'60s'
p2518
asS'1235'
p2519
(lp2520
S'60s'
p2521
asS'1236'
p2522
(lp2523
S'80s'
p2524
asS'1237'
p2525
(lp2526
S'90s'
p2527
asS'1230'
p2528
(lp2529
S'60s'
p2530
asS'1231'
p2531
(lp2532
S'60s'
p2533
asS'1232'
p2534
(lp2535
S'60s'
p2536
asS'1233'
p2537
(lp2538
S'60s'
p2539
asS'1238'
p2540
(lp2541
S'80s'
p2542
asS'1239'
p2543
(lp2544
S'80s'
p2545
asS'438'
p2546
(lp2547
S'90s'
p2548
asS'439'
p2549
(lp2550
S'90s'
p2551
asS'436'
p2552
(lp2553
S'90s'
p2554
asS'437'
p2555
(lp2556
S'90s'
p2557
asS'434'
p2558
(lp2559
S'90s'
p2560
asS'435'
p2561
(lp2562
S'90s'
p2563
asS'432'
p2564
(lp2565
S'90s'
p2566
asS'433'
p2567
(lp2568
S'90s'
p2569
asS'430'
p2570
(lp2571
S'90s'
p2572
asS'431'
p2573
(lp2574
S'90s'
p2575
asS'743'
p2576
(lp2577
S'90s'
p2578
asS'559'
p2579
(lp2580
S'90s'
p2581
asS'558'
p2582
(lp2583
S'90s'
p2584
asS'1967'
p2585
(lp2586
S'90s'
p2587
asS'555'
p2588
(lp2589
S'90s'
p2590
asS'554'
p2591
(lp2592
S'90s'
p2593
asS'1960'
p2594
(lp2595
S'90s'
p2596
asS'1961'
p2597
(lp2598
S'90s'
p2599
asS'1030'
p2600
(lp2601
S'90s'
p2602
asS'995'
p2603
(lp2604
S'90s'
p2605
asS'994'
p2606
(lp2607
S'90s'
p2608
asS'997'
p2609
(lp2610
S'90s'
p2611
asS'996'
p2612
(lp2613
S'90s'
p2614
asS'238'
p2615
(lp2616
S'60s'
p2617
asS'239'
p2618
(lp2619
S'60s'
p2620
asS'234'
p2621
(lp2622
S'70s'
p2623
asS'235'
p2624
(lp2625
S'70s'
p2626
asS'236'
p2627
(lp2628
S'60s'
p2629
asS'237'
p2630
(lp2631
S'60s'
p2632
asS'230'
p2633
(lp2634
S'70s'
p2635
asS'231'
p2636
(lp2637
S'70s'
p2638
asS'232'
p2639
(lp2640
S'70s'
p2641
asS'233'
p2642
(lp2643
S'70s'
p2644
asS'993'
p2645
(lp2646
S'90s'
p2647
asS'2228'
p2648
(lp2649
S'90s'
p2650
asS'2229'
p2651
(lp2652
S'90s'
p2653
asS'2226'
p2654
(lp2655
S'90s'
p2656
asS'2227'
p2657
(lp2658
S'70s'
p2659
asS'2224'
p2660
(lp2661
S'90s'
p2662
asS'992'
p2663
(lp2664
S'90s'
p2665
asS'2222'
p2666
(lp2667
S'90s'
p2668
asS'2223'
p2669
(lp2670
S'90s'
p2671
asS'2220'
p2672
(lp2673
S'70s'
p2674
asS'2221'
p2675
(lp2676
S'70s'
p2677
asS'1'
(lp2678
S'60s'
p2679
asS'146'
p2680
(lp2681
S'90s'
p2682
asS'147'
p2683
(lp2684
S'90s'
p2685
asS'144'
p2686
(lp2687
S'90s'
p2688
asS'145'
p2689
(lp2690
S'90s'
p2691
asS'142'
p2692
(lp2693
S'90s'
p2694
asS'143'
p2695
(lp2696
S'90s'
p2697
asS'140'
p2698
(lp2699
S'90s'
p2700
asS'141'
p2701
(lp2702
S'90s'
p2703
asS'999'
p2704
(lp2705
S'90s'
p2706
asS'148'
p2707
(lp2708
S'90s'
p2709
asS'998'
p2710
(lp2711
S'90s'
p2712
asS'1055'
p2713
(lp2714
S'90s'
p2715
asS'2088'
p2716
(lp2717
S'70s'
p2718
asS'2089'
p2719
(lp2720
S'60s'
p2721
asS'2082'
p2722
(lp2723
S'70s'
p2724
asS'2083'
p2725
(lp2726
S'70s'
p2727
asS'2080'
p2728
(lp2729
S'70s'
p2730
asS'2081'
p2731
(lp2732
S'80s'
p2733
asS'2086'
p2734
(lp2735
S'70s'
p2736
asS'2087'
p2737
(lp2738
S'70s'
p2739
asS'2084'
p2740
(lp2741
S'70s'
p2742
asS'2085'
p2743
(lp2744
S'70s'
p2745
asS'2538'
p2746
(lp2747
S'90s'
p2748
asS'2539'
p2749
(lp2750
S'90s'
p2751
asS'2532'
p2752
(lp2753
S'90s'
p2754
asS'2533'
p2755
(lp2756
S'90s'
p2757
asS'2530'
p2758
(lp2759
S'90s'
p2760
asS'2531'
p2761
(lp2762
S'60s'
p2763
asS'2536'
p2764
(lp2765
S'90s'
p2766
asS'2537'
p2767
(lp2768
S'90s'
p2769
asS'2534'
p2770
(lp2771
S'90s'
p2772
asS'2535'
p2773
(lp2774
S'90s'
p2775
asS'2712'
p2776
(lp2777
S'90s'
p2778
asS'2713'
p2779
(lp2780
S'70s'
p2781
asS'2710'
p2782
(lp2783
S'60s'
p2784
asS'2711'
p2785
(lp2786
S'70s'
p2787
asS'2716'
p2788
(lp2789
S'90s'
p2790
asS'2717'
p2791
(lp2792
S'70s'
p2793
asS'2714'
p2794
(lp2795
S'90s'
p2796
asS'2715'
p2797
(lp2798
S'70s'
p2799
asS'2718'
p2800
(lp2801
S'70s'
p2802
asS'2719'
p2803
(lp2804
S'70s'
p2805
asS'1832'
p2806
(lp2807
S'60s'
p2808
asS'1833'
p2809
(lp2810
S'60s'
p2811
asS'1830'
p2812
(lp2813
S'60s'
p2814
asS'1831'
p2815
(lp2816
S'60s'
p2817
asS'1836'
p2818
(lp2819
S'60s'
p2820
asS'1837'
p2821
(lp2822
S'60s'
p2823
asS'1834'
p2824
(lp2825
S'90s'
p2826
asS'1697'
p2827
(lp2828
S'90s'
p2829
asS'1838'
p2830
(lp2831
S'70s'
p2832
asS'1839'
p2833
(lp2834
S'60s'
p2835
asS'2406'
p2836
(lp2837
S'60s'
p2838
asS'2407'
p2839
(lp2840
S'60s'
p2841
asS'939'
p2842
(lp2843
S'70s'
p2844
asS'2405'
p2845
(lp2846
S'60s'
p2847
asS'2402'
p2848
(lp2849
S'60s'
p2850
asS'2403'
p2851
(lp2852
S'60s'
p2853
asS'2400'
p2854
(lp2855
S'60s'
p2856
asS'2401'
p2857
(lp2858
S'60s'
p2859
asS'933'
p2860
(lp2861
S'70s'
p2862
asS'932'
p2863
(lp2864
S'90s'
p2865
asS'931'
p2866
(lp2867
S'70s'
p2868
asS'930'
p2869
(lp2870
S'70s'
p2871
asS'937'
p2872
(lp2873
S'70s'
p2874
asS'936'
p2875
(lp2876
S'70s'
p2877
asS'935'
p2878
(lp2879
S'70s'
p2880
asS'934'
p2881
(lp2882
S'70s'
p2883
asS'471'
p2884
(lp2885
S'60s'
p2886
asS'1691'
p2887
(lp2888
S'90s'
p2889
asS'1955'
p2890
(lp2891
S'80s'
p2892
asS'1954'
p2893
(lp2894
S'90s'
p2895
asS'1957'
p2896
(lp2897
S'90s'
p2898
asS'1956'
p2899
(lp2900
S'90s'
p2901
asS'1951'
p2902
(lp2903
S'60s'
p2904
asS'1950'
p2905
(lp2906
S'60s'
p2907
asS'1953'
p2908
(lp2909
S'60s'
p2910
asS'1952'
p2911
(lp2912
S'60s'
p2913
asS'1959'
p2914
(lp2915
S'90s'
p2916
asS'1958'
p2917
(lp2918
S'90s'
p2919
asS'829'
p2920
(lp2921
S'90s'
p2922
asS'828'
p2923
(lp2924
S'70s'
p2925
asS'825'
p2926
(lp2927
S'90s'
p2928
asS'824'
p2929
(lp2930
S'90s'
p2931
asS'827'
p2932
(lp2933
S'90s'
p2934
asS'826'
p2935
(lp2936
S'90s'
p2937
asS'821'
p2938
(lp2939
S'90s'
p2940
asS'820'
p2941
(lp2942
S'90s'
p2943
asS'823'
p2944
(lp2945
S'90s'
p2946
asS'822'
p2947
(lp2948
S'80s'
p2949
asS'1536'
p2950
(lp2951
S'90s'
p2952
asS'1993'
p2953
(lp2954
S'90s'
p2955
asS'1483'
p2956
(lp2957
S'90s'
p2958
asS'1482'
p2959
(lp2960
S'90s'
p2961
asS'1481'
p2962
(lp2963
S'90s'
p2964
asS'619'
p2965
(lp2966
S'90s'
p2967
asS'1487'
p2968
(lp2969
S'90s'
p2970
asS'1486'
p2971
(lp2972
S'90s'
p2973
asS'1485'
p2974
(lp2975
S'80s'
p2976
asS'1484'
p2977
(lp2978
S'90s'
p2979
asS'1489'
p2980
(lp2981
S'90s'
p2982
asS'1488'
p2983
(lp2984
S'90s'
p2985
asS'797'
p2986
(lp2987
S'90s'
p2988
asS'1712'
p2989
(lp2990
S'60s'
p2991
asS'795'
p2992
(lp2993
S'90s'
p2994
asS'794'
p2995
(lp2996
S'70s'
p2997
asS'793'
p2998
(lp2999
S'70s'
p3000
asS'792'
p3001
(lp3002
S'90s'
p3003
asS'791'
p3004
(lp3005
S'70s'
p3006
asS'2410'
p3007
(lp3008
S'60s'
p3009
asS'1719'
p3010
(lp3011
S'70s'
p3012
asS'1718'
p3013
(lp3014
S'90s'
p3015
asS'2413'
p3016
(lp3017
S'60s'
p3018
asS'799'
p3019
(lp3020
S'90s'
p3021
asS'798'
p3022
(lp3023
S'70s'
p3024
asS'1270'
p3025
(lp3026
S'90s'
p3027
asS'2144'
p3028
(lp3029
S'70s'
p3030
asS'1271'
p3031
(lp3032
S'90s'
p3033
asS'2143'
p3034
(lp3035
S'90s'
p3036
asS'610'
p3037
(lp3038
S'90s'
p3039
asS'2414'
p3040
(lp3041
S'60s'
p3042
asS'1139'
p3043
(lp3044
S'70s'
p3045
asS'1138'
p3046
(lp3047
S'70s'
p3048
asS'2417'
p3049
(lp3050
S'70s'
p3051
asS'1133'
p3052
(lp3053
S'70s'
p3054
asS'1132'
p3055
(lp3056
S'70s'
p3057
asS'1131'
p3058
(lp3059
S'70s'
p3060
asS'1130'
p3061
(lp3062
S'70s'
p3063
asS'1137'
p3064
(lp3065
S'70s'
p3066
asS'1136'
p3067
(lp3068
S'70s'
p3069
asS'1135'
p3070
(lp3071
S'70s'
p3072
asS'1134'
p3073
(lp3074
S'70s'
p3075
asS'2419'
p3076
(lp3077
S'70s'
p3078
asS'614'
p3079
(lp3080
S'90s'
p3081
asS'2418'
p3082
(lp3083
S'70s'
p3084
asS'615'
p3085
(lp3086
S'90s'
p3087
asS'2790'
p3088
(lp3089
S'90s'
p3090
asS'2791'
p3091
(lp3092
S'90s'
p3093
asS'2796'
p3094
(lp3095
S'90s'
p3096
asS'2793'
p3097
(lp3098
S'90s'
p3099
asS'2797'
p3100
(lp3101
S'90s'
p3102
asS'519'
p3103
(lp3104
S'70s'
p3105
asS'518'
p3106
(lp3107
S'70s'
p3108
asS'926'
p3109
(lp3110
S'70s'
p3111
asS'1009'
p3112
(lp3113
S'90s'
p3114
asS'1008'
p3115
(lp3116
S'90s'
p3117
asS'511'
p3118
(lp3119
S'80s'
p3120
asS'510'
p3121
(lp3122
S'80s'
p3123
asS'513'
p3124
(lp3125
S'70s'
p3126
asS'512'
p3127
(lp3128
S'70s'
p3129
asS'515'
p3130
(lp3131
S'70s'
p3132
asS'514'
p3133
(lp3134
S'70s'
p3135
asS'517'
p3136
(lp3137
S'90s'
p3138
asS'516'
p3139
(lp3140
S'70s'
p3141
asS'1227'
p3142
(lp3143
S'60s'
p3144
asS'1226'
p3145
(lp3146
S'60s'
p3147
asS'1225'
p3148
(lp3149
S'80s'
p3150
asS'1224'
p3151
(lp3152
S'80s'
p3153
asS'627'
p3154
(lp3155
S'90s'
p3156
asS'1222'
p3157
(lp3158
S'80s'
p3159
asS'1221'
p3160
(lp3161
S'80s'
p3162
asS'1220'
p3163
(lp3164
S'80s'
p3165
asS'629'
p3166
(lp3167
S'90s'
p3168
asS'628'
p3169
(lp3170
S'90s'
p3171
asS'1229'
p3172
(lp3173
S'60s'
p3174
asS'1228'
p3175
(lp3176
S'90s'
p3177
asS'2882'
p3178
(lp3179
S'70s'
p3180
asS'2883'
p3181
(lp3182
S'70s'
p3183
asS'2880'
p3184
(lp3185
S'70s'
p3186
asS'2881'
p3187
(lp3188
S'90s'
p3189
asS'2886'
p3190
(lp3191
S'60s'
p3192
asS'2887'
p3193
(lp3194
S'60s'
p3195
asS'2884'
p3196
(lp3197
S'70s'
p3198
asS'2885'
p3199
(lp3200
S'70s'
p3201
asS'2888'
p3202
(lp3203
S'60s'
p3204
asS'2889'
p3205
(lp3206
S'60s'
p3207
asS'2'
(lp3208
S'60s'
p3209
asS'1561'
p3210
(lp3211
S'90s'
p3212
asS'1286'
p3213
(lp3214
S'90s'
p3215
asS'1714'
p3216
(lp3217
S'90s'
p3218
asS'11'
p3219
(lp3220
S'60s'
p3221
asS'10'
p3222
(lp3223
S'90s'
p3224
asS'13'
p3225
(lp3226
S'60s'
p3227
asS'12'
p3228
(lp3229
S'60s'
p3230
asS'15'
p3231
(lp3232
S'60s'
p3233
asS'14'
p3234
(lp3235
S'60s'
p3236
asS'17'
p3237
(lp3238
S'60s'
p3239
asS'16'
p3240
(lp3241
S'60s'
p3242
asS'19'
p3243
(lp3244
S'70s'
p3245
asS'18'
p3246
(lp3247
S'70s'
p3248
asS'2742'
p3249
(lp3250
S'80s'
p3251
asS'1471'
p3252
(lp3253
S'90s'
p3254
asS'201'
p3255
(lp3256
S'60s'
p3257
asS'200'
p3258
(lp3259
S'60s'
p3260
asS'203'
p3261
(lp3262
S'60s'
p3263
asS'202'
p3264
(lp3265
S'60s'
p3266
asS'205'
p3267
(lp3268
S'90s'
p3269
asS'204'
p3270
(lp3271
S'70s'
p3272
asS'207'
p3273
(lp3274
S'80s'
p3275
asS'206'
p3276
(lp3277
S'80s'
p3278
asS'209'
p3279
(lp3280
S'80s'
p3281
asS'208'
p3282
(lp3283
S'80s'
p3284
asS'2745'
p3285
(lp3286
S'80s'
p3287
asS'1573'
p3288
(lp3289
S'70s'
p3290
asS'1572'
p3291
(lp3292
S'90s'
p3293
asS'1571'
p3294
(lp3295
S'70s'
p3296
asS'2239'
p3297
(lp3298
S'60s'
p3299
asS'2238'
p3300
(lp3301
S'60s'
p3302
asS'1570'
p3303
(lp3304
S'70s'
p3305
asS'2231'
p3306
(lp3307
S'90s'
p3308
asS'681'
p3309
(lp3310
S'70s'
p3311
asS'2233'
p3312
(lp3313
S'90s'
p3314
asS'2232'
p3315
(lp3316
S'90s'
p3317
asS'2235'
p3318
(lp3319
S'90s'
p3320
asS'2234'
p3321
(lp3322
S'90s'
p3323
asS'2237'
p3324
(lp3325
S'60s'
p3326
asS'680'
p3327
(lp3328
S'60s'
p3329
asS'683'
p3330
(lp3331
S'60s'
p3332
asS'1574'
p3333
(lp3334
S'70s'
p3335
asS'712'
p3336
(lp3337
S'70s'
p3338
asS'2184'
p3339
(lp3340
S'90s'
p3341
asS'2095'
p3342
(lp3343
S'70s'
p3344
asS'2094'
p3345
(lp3346
S'70s'
p3347
asS'2097'
p3348
(lp3349
S'70s'
p3350
asS'2096'
p3351
(lp3352
S'70s'
p3353
asS'2091'
p3354
(lp3355
S'70s'
p3356
asS'2090'
p3357
(lp3358
S'70s'
p3359
asS'2093'
p3360
(lp3361
S'70s'
p3362
asS'2092'
p3363
(lp3364
S'70s'
p3365
asS'2099'
p3366
(lp3367
S'70s'
p3368
asS'2098'
p3369
(lp3370
S'70s'
p3371
asS'2525'
p3372
(lp3373
S'60s'
p3374
asS'2524'
p3375
(lp3376
S'60s'
p3377
asS'2527'
p3378
(lp3379
S'60s'
p3380
asS'2526'
p3381
(lp3382
S'60s'
p3383
asS'2521'
p3384
(lp3385
S'70s'
p3386
asS'2520'
p3387
(lp3388
S'70s'
p3389
asS'2523'
p3390
(lp3391
S'90s'
p3392
asS'2522'
p3393
(lp3394
S'70s'
p3395
asS'2529'
p3396
(lp3397
S'60s'
p3398
asS'2528'
p3399
(lp3400
S'60s'
p3401
asS'2709'
p3402
(lp3403
S'80s'
p3404
asS'2708'
p3405
(lp3406
S'70s'
p3407
asS'2705'
p3408
(lp3409
S'60s'
p3410
asS'2704'
p3411
(lp3412
S'90s'
p3413
asS'2707'
p3414
(lp3415
S'70s'
p3416
asS'2706'
p3417
(lp3418
S'70s'
p3419
asS'2701'
p3420
(lp3421
S'60s'
p3422
asS'2700'
p3423
(lp3424
S'60s'
p3425
asS'2703'
p3426
(lp3427
S'90s'
p3428
asS'2702'
p3429
(lp3430
S'60s'
p3431
asS'1829'
p3432
(lp3433
S'60s'
p3434
asS'1828'
p3435
(lp3436
S'60s'
p3437
asS'2951'
p3438
(lp3439
S'80s'
p3440
asS'1825'
p3441
(lp3442
S'60s'
p3443
asS'1824'
p3444
(lp3445
S'60s'
p3446
asS'1827'
p3447
(lp3448
S'60s'
p3449
asS'1826'
p3450
(lp3451
S'60s'
p3452
asS'1821'
p3453
(lp3454
S'90s'
p3455
asS'1820'
p3456
(lp3457
S'90s'
p3458
asS'1823'
p3459
(lp3460
S'60s'
p3461
asS'1822'
p3462
(lp3463
S'60s'
p3464
asS'928'
p3465
(lp3466
S'70s'
p3467
asS'929'
p3468
(lp3469
S'70s'
p3470
asS'2145'
p3471
(lp3472
S'70s'
p3473
asS'2412'
p3474
(lp3475
S'60s'
p3476
asS'2415'
p3477
(lp3478
S'70s'
p3479
asS'2142'
p3480
(lp3481
S'70s'
p3482
asS'2141'
p3483
(lp3484
S'70s'
p3485
asS'2140'
p3486
(lp3487
S'60s'
p3488
asS'920'
p3489
(lp3490
S'70s'
p3491
asS'921'
p3492
(lp3493
S'70s'
p3494
asS'922'
p3495
(lp3496
S'70s'
p3497
asS'923'
p3498
(lp3499
S'70s'
p3500
asS'924'
p3501
(lp3502
S'70s'
p3503
asS'925'
p3504
(lp3505
S'70s'
p3506
asS'2149'
p3507
(lp3508
S'70s'
p3509
asS'2148'
p3510
(lp3511
S'70s'
p3512
asS'2411'
p3513
(lp3514
S'60s'
p3515
asS'1920'
p3516
(lp3517
S'90s'
p3518
asS'1921'
p3519
(lp3520
S'90s'
p3521
asS'1922'
p3522
(lp3523
S'90s'
p3524
asS'1923'
p3525
(lp3526
S'90s'
p3527
asS'1924'
p3528
(lp3529
S'90s'
p3530
asS'1925'
p3531
(lp3532
S'90s'
p3533
asS'1926'
p3534
(lp3535
S'70s'
p3536
asS'1927'
p3537
(lp3538
S'70s'
p3539
asS'1928'
p3540
(lp3541
S'70s'
p3542
asS'1929'
p3543
(lp3544
S'70s'
p3545
asS'832'
p3546
(lp3547
S'80s'
p3548
asS'833'
p3549
(lp3550
S'90s'
p3551
asS'830'
p3552
(lp3553
S'90s'
p3554
asS'831'
p3555
(lp3556
S'90s'
p3557
asS'836'
p3558
(lp3559
S'90s'
p3560
asS'837'
p3561
(lp3562
S'90s'
p3563
asS'834'
p3564
(lp3565
S'90s'
p3566
asS'835'
p3567
(lp3568
S'90s'
p3569
asS'838'
p3570
(lp3571
S'90s'
p3572
asS'839'
p3573
(lp3574
S'90s'
p3575
asS'3'
(lp3576
S'90s'
p3577
asS'1986'
p3578
(lp3579
S'90s'
p3580
asS'1267'
p3581
(lp3582
S'90s'
p3583
asS'1987'
p3584
(lp3585
S'90s'
p3586
asS'784'
p3587
(lp3588
S'80s'
p3589
asS'785'
p3590
(lp3591
S'80s'
p3592
asS'786'
p3593
(lp3594
S'80s'
p3595
asS'787'
p3596
(lp3597
S'70s'
p3598
asS'780'
p3599
(lp3600
S'70s'
p3601
asS'781'
p3602
(lp3603
S'70s'
p3604
asS'1728'
p3605
(lp3606
S'60s'
p3607
asS'1729'
p3608
(lp3609
S'60s'
p3610
asS'1726'
p3611
(lp3612
S'60s'
p3613
asS'1727'
p3614
(lp3615
S'60s'
p3616
asS'1724'
p3617
(lp3618
S'60s'
p3619
asS'1725'
p3620
(lp3621
S'90s'
p3622
asS'788'
p3623
(lp3624
S'80s'
p3625
asS'1723'
p3626
(lp3627
S'60s'
p3628
asS'1720'
p3629
(lp3630
S'90s'
p3631
asS'1721'
p3632
(lp3633
S'90s'
p3634
asS'153'
p3635
(lp3636
S'90s'
p3637
asS'60'
p3638
(lp3639
S'80s'
p3640
asS'61'
p3641
(lp3642
S'80s'
p3643
asS'62'
p3644
(lp3645
S'80s'
p3646
asS'63'
p3647
(lp3648
S'80s'
p3649
asS'64'
p3650
(lp3651
S'80s'
p3652
asS'65'
p3653
(lp3654
S'80s'
p3655
asS'66'
p3656
(lp3657
S'80s'
p3658
asS'67'
p3659
(lp3660
S'80s'
p3661
asS'68'
p3662
(lp3663
S'80s'
p3664
asS'69'
p3665
(lp3666
S'60s'
p3667
asS'1371'
p3668
(lp3669
S'90s'
p3670
asS'1588'
p3671
(lp3672
S'60s'
p3673
asS'1589'
p3674
(lp3675
S'60s'
p3676
asS'1370'
p3677
(lp3678
S'80s'
p3679
asS'1582'
p3680
(lp3681
S'60s'
p3682
asS'1583'
p3683
(lp3684
S'80s'
p3685
asS'1580'
p3686
(lp3687
S'60s'
p3688
asS'1581'
p3689
(lp3690
S'90s'
p3691
asS'1586'
p3692
(lp3693
S'60s'
p3694
asS'1587'
p3695
(lp3696
S'60s'
p3697
asS'1584'
p3698
(lp3699
S'60s'
p3700
asS'1585'
p3701
(lp3702
S'60s'
p3703
asS'159'
p3704
(lp3705
S'90s'
p3706
asS'1038'
p3707
(lp3708
S'70s'
p3709
asS'1372'
p3710
(lp3711
S'80s'
p3712
asS'508'
p3713
(lp3714
S'80s'
p3715
asS'509'
p3716
(lp3717
S'80s'
p3718
asS'506'
p3719
(lp3720
S'60s'
p3721
asS'507'
p3722
(lp3723
S'80s'
p3724
asS'504'
p3725
(lp3726
S'60s'
p3727
asS'505'
p3728
(lp3729
S'60s'
p3730
asS'502'
p3731
(lp3732
S'60s'
p3733
asS'1037'
p3734
(lp3735
S'70s'
p3736
asS'1034'
p3737
(lp3738
S'90s'
p3739
asS'1035'
p3740
(lp3741
S'60s'
p3742
asS'1212'
p3743
(lp3744
S'70s'
p3745
asS'1213'
p3746
(lp3747
S'70s'
p3748
asS'1210'
p3749
(lp3750
S'80s'
p3751
asS'1211'
p3752
(lp3753
S'70s'
p3754
asS'634'
p3755
(lp3756
S'90s'
p3757
asS'1217'
p3758
(lp3759
S'70s'
p3760
asS'1214'
p3761
(lp3762
S'70s'
p3763
asS'1215'
p3764
(lp3765
S'70s'
p3766
asS'638'
p3767
(lp3768
S'90s'
p3769
asS'639'
p3770
(lp3771
S'90s'
p3772
asS'1218'
p3773
(lp3774
S'70s'
p3775
asS'1219'
p3776
(lp3777
S'80s'
p3778
asS'2416'
p3779
(lp3780
S'70s'
p3781
asS'2899'
p3782
(lp3783
S'60s'
p3784
asS'782'
p3785
(lp3786
S'70s'
p3787
asS'2895'
p3788
(lp3789
S'90s'
p3790
asS'2894'
p3791
(lp3792
S'60s'
p3793
asS'2897'
p3794
(lp3795
S'60s'
p3796
asS'2896'
p3797
(lp3798
S'60s'
p3799
asS'2891'
p3800
(lp3801
S'60s'
p3802
asS'2890'
p3803
(lp3804
S'60s'
p3805
asS'2893'
p3806
(lp3807
S'60s'
p3808
asS'2892'
p3809
(lp3810
S'90s'
p3811
asS'1454'
p3812
(lp3813
S'60s'
p3814
asS'1455'
p3815
(lp3816
S'90s'
p3817
asS'1456'
p3818
(lp3819
S'90s'
p3820
asS'1457'
p3821
(lp3822
S'90s'
p3823
asS'1450'
p3824
(lp3825
S'70s'
p3826
asS'1451'
p3827
(lp3828
S'90s'
p3829
asS'1452'
p3830
(lp3831
S'90s'
p3832
asS'1453'
p3833
(lp3834
S'90s'
p3835
asS'1458'
p3836
(lp3837
S'90s'
p3838
asS'1459'
p3839
(lp3840
S'90s'
p3841
asS'1108'
p3842
(lp3843
S'90s'
p3844
asS'783'
p3845
(lp3846
S'90s'
p3847
asS'1722'
p3848
(lp3849
S'90s'
p3850
asS'789'
p3851
(lp3852
S'70s'
p3853
asS'1891'
p3854
(lp3855
S'80s'
p3856
asS'1109'
p3857
(lp3858
S'90s'
p3859
asS'959'
p3860
(lp3861
S'80s'
p3862
asS'958'
p3863
(lp3864
S'80s'
p3865
asS'2794'
p3866
(lp3867
S'90s'
p3868
asS'2965'
p3869
(lp3870
S'90s'
p3871
asS'216'
p3872
(lp3873
S'60s'
p3874
asS'217'
p3875
(lp3876
S'60s'
p3877
asS'214'
p3878
(lp3879
S'60s'
p3880
asS'215'
p3881
(lp3882
S'60s'
p3883
asS'212'
p3884
(lp3885
S'90s'
p3886
asS'213'
p3887
(lp3888
S'60s'
p3889
asS'210'
p3890
(lp3891
S'90s'
p3892
asS'211'
p3893
(lp3894
S'90s'
p3895
asS'218'
p3896
(lp3897
S'60s'
p3898
asS'219'
p3899
(lp3900
S'80s'
p3901
asS'957'
p3902
(lp3903
S'80s'
p3904
asS'956'
p3905
(lp3906
S'90s'
p3907
asS'4'
(lp3908
S'60s'
p3909
asS'1976'
p3910
(lp3911
S'90s'
p3912
asS'938'
p3913
(lp3914
S'70s'
p3915
asS'2550'
p3916
(lp3917
S'80s'
p3918
asS'2551'
p3919
(lp3920
S'90s'
p3921
asS'2552'
p3922
(lp3923
S'80s'
p3924
asS'2553'
p3925
(lp3926
S'80s'
p3927
asS'2554'
p3928
(lp3929
S'80s'
p3930
asS'2555'
p3931
(lp3932
S'80s'
p3933
asS'2556'
p3934
(lp3935
S'80s'
p3936
asS'2557'
p3937
(lp3938
S'90s'
p3939
asS'2558'
p3940
(lp3941
S'90s'
p3942
asS'2559'
p3943
(lp3944
S'70s'
p3945
asS'2396'
p3946
(lp3947
S'60s'
p3948
asS'2397'
p3949
(lp3950
S'60s'
p3951
asS'2394'
p3952
(lp3953
S'80s'
p3954
asS'2395'
p3955
(lp3956
S'60s'
p3957
asS'2392'
p3958
(lp3959
S'60s'
p3960
asS'2393'
p3961
(lp3962
S'60s'
p3963
asS'2390'
p3964
(lp3965
S'60s'
p3966
asS'2391'
p3967
(lp3968
S'60s'
p3969
asS'3001'
p3970
(lp3971
S'90s'
p3972
asS'2398'
p3973
(lp3974
S'60s'
p3975
asS'2399'
p3976
(lp3977
S'60s'
p3978
asS'2778'
p3979
(lp3980
S'90s'
p3981
asS'2779'
p3982
(lp3983
S'90s'
p3984
asS'2770'
p3985
(lp3986
S'90s'
p3987
asS'2771'
p3988
(lp3989
S'90s'
p3990
asS'2772'
p3991
(lp3992
S'60s'
p3993
asS'2773'
p3994
(lp3995
S'90s'
p3996
asS'2774'
p3997
(lp3998
S'90s'
p3999
asS'2775'
p4000
(lp4001
S'70s'
p4002
asS'2776'
p4003
(lp4004
S'90s'
p4005
asS'2777'
p4006
(lp4007
S'90s'
p4008
asS'1858'
p4009
(lp4010
S'70s'
p4011
asS'1859'
p4012
(lp4013
S'70s'
p4014
asS'1850'
p4015
(lp4016
S'70s'
p4017
asS'1851'
p4018
(lp4019
S'60s'
p4020
asS'1852'
p4021
(lp4022
S'60s'
p4023
asS'1853'
p4024
(lp4025
S'90s'
p4026
asS'1854'
p4027
(lp4028
S'60s'
p4029
asS'1855'
p4030
(lp4031
S'60s'
p4032
asS'1856'
p4033
(lp4034
S'70s'
p4035
asS'1857'
p4036
(lp4037
S'70s'
p4038
asS'2172'
p4039
(lp4040
S'70s'
p4041
asS'2173'
p4042
(lp4043
S'80s'
p4044
asS'2170'
p4045
(lp4046
S'80s'
p4047
asS'2171'
p4048
(lp4049
S'80s'
p4050
asS'919'
p4051
(lp4052
S'70s'
p4053
asS'918'
p4054
(lp4055
S'70s'
p4056
asS'2174'
p4057
(lp4058
S'60s'
p4059
asS'2175'
p4060
(lp4061
S'90s'
p4062
asS'915'
p4063
(lp4064
S'90s'
p4065
asS'914'
p4066
(lp4067
S'90s'
p4068
asS'2178'
p4069
(lp4070
S'90s'
p4071
asS'2179'
p4072
(lp4073
S'90s'
p4074
asS'911'
p4075
(lp4076
S'90s'
p4077
asS'910'
p4078
(lp4079
S'90s'
p4080
asS'913'
p4081
(lp4082
S'90s'
p4083
asS'912'
p4084
(lp4085
S'90s'
p4086
asS'2604'
p4087
(lp4088
S'60s'
p4089
asS'2605'
p4090
(lp4091
S'60s'
p4092
asS'2606'
p4093
(lp4094
S'60s'
p4095
asS'2607'
p4096
(lp4097
S'60s'
p4098
asS'2600'
p4099
(lp4100
S'60s'
p4101
asS'2601'
p4102
(lp4103
S'60s'
p4104
asS'2602'
p4105
(lp4106
S'60s'
p4107
asS'2603'
p4108
(lp4109
S'60s'
p4110
asS'2608'
p4111
(lp4112
S'90s'
p4113
asS'2609'
p4114
(lp4115
S'60s'
p4116
asS'1933'
p4117
(lp4118
S'90s'
p4119
asS'1932'
p4120
(lp4121
S'90s'
p4122
asS'1931'
p4123
(lp4124
S'70s'
p4125
asS'1930'
p4126
(lp4127
S'70s'
p4128
asS'1937'
p4129
(lp4130
S'90s'
p4131
asS'1936'
p4132
(lp4133
S'90s'
p4134
asS'1935'
p4135
(lp4136
S'90s'
p4137
asS'1934'
p4138
(lp4139
S'90s'
p4140
asS'1939'
p4141
(lp4142
S'90s'
p4143
asS'1938'
p4144
(lp4145
S'90s'
p4146
asS'847'
p4147
(lp4148
S'90s'
p4149
asS'846'
p4150
(lp4151
S'90s'
p4152
asS'845'
p4153
(lp4154
S'90s'
p4155
asS'844'
p4156
(lp4157
S'90s'
p4158
asS'843'
p4159
(lp4160
S'90s'
p4161
asS'842'
p4162
(lp4163
S'90s'
p4164
asS'841'
p4165
(lp4166
S'90s'
p4167
asS'840'
p4168
(lp4169
S'90s'
p4170
asS'1426'
p4171
(lp4172
S'90s'
p4173
asS'849'
p4174
(lp4175
S'90s'
p4176
asS'848'
p4177
(lp4178
S'90s'
p4179
asS'1739'
p4180
(lp4181
S'60s'
p4182
asS'1738'
p4183
(lp4184
S'60s'
p4185
asS'1731'
p4186
(lp4187
S'60s'
p4188
asS'1730'
p4189
(lp4190
S'60s'
p4191
asS'1733'
p4192
(lp4193
S'60s'
p4194
asS'1732'
p4195
(lp4196
S'60s'
p4197
asS'1735'
p4198
(lp4199
S'60s'
p4200
asS'1734'
p4201
(lp4202
S'60s'
p4203
asS'1737'
p4204
(lp4205
S'60s'
p4206
asS'1736'
p4207
(lp4208
S'60s'
p4209
asS'1039'
p4210
(lp4211
S'90s'
p4212
asS'753'
p4213
(lp4214
S'90s'
p4215
asS'752'
p4216
(lp4217
S'90s'
p4218
asS'751'
p4219
(lp4220
S'90s'
p4221
asS'750'
p4222
(lp4223
S'90s'
p4224
asS'757'
p4225
(lp4226
S'90s'
p4227
asS'756'
p4228
(lp4229
S'90s'
p4230
asS'755'
p4231
(lp4232
S'60s'
p4233
asS'754'
p4234
(lp4235
S'90s'
p4236
asS'759'
p4237
(lp4238
S'90s'
p4239
asS'758'
p4240
(lp4241
S'90s'
p4242
asS'1595'
p4243
(lp4244
S'70s'
p4245
asS'1594'
p4246
(lp4247
S'70s'
p4248
asS'1597'
p4249
(lp4250
S'70s'
p4251
asS'1596'
p4252
(lp4253
S'90s'
p4254
asS'1591'
p4255
(lp4256
S'70s'
p4257
asS'1590'
p4258
(lp4259
S'60s'
p4260
asS'1593'
p4261
(lp4262
S'70s'
p4263
asS'738'
p4264
(lp4265
S'60s'
p4266
asS'2954'
p4267
(lp4268
S'80s'
p4269
asS'2955'
p4270
(lp4271
S'80s'
p4272
asS'2956'
p4273
(lp4274
S'80s'
p4275
asS'2957'
p4276
(lp4277
S'90s'
p4278
asS'1599'
p4279
(lp4280
S'70s'
p4281
asS'1598'
p4282
(lp4283
S'70s'
p4284
asS'2952'
p4285
(lp4286
S'80s'
p4287
asS'2953'
p4288
(lp4289
S'80s'
p4290
asS'1025'
p4291
(lp4292
S'80s'
p4293
asS'1024'
p4294
(lp4295
S'90s'
p4296
asS'1027'
p4297
(lp4298
S'90s'
p4299
asS'1026'
p4300
(lp4301
S'90s'
p4302
asS'1021'
p4303
(lp4304
S'90s'
p4305
asS'1020'
p4306
(lp4307
S'90s'
p4308
asS'1023'
p4309
(lp4310
S'90s'
p4311
asS'1022'
p4312
(lp4313
S'90s'
p4314
asS'1036'
p4315
(lp4316
S'70s'
p4317
asS'1115'
p4318
(lp4319
S'90s'
p4320
asS'1029'
p4321
(lp4322
S'90s'
p4323
asS'1028'
p4324
(lp4325
S'90s'
p4326
asS'503'
p4327
(lp4328
S'60s'
p4329
asS'500'
p4330
(lp4331
S'90s'
p4332
asS'501'
p4333
(lp4334
S'90s'
p4335
asS'605'
p4336
(lp4337
S'90s'
p4338
asS'604'
p4339
(lp4340
S'90s'
p4341
asS'607'
p4342
(lp4343
S'90s'
p4344
asS'606'
p4345
(lp4346
S'90s'
p4347
asS'1209'
p4348
(lp4349
S'70s'
p4350
asS'1208'
p4351
(lp4352
S'70s'
p4353
asS'603'
p4354
(lp4355
S'90s'
p4356
asS'602'
p4357
(lp4358
S'80s'
p4359
asS'1205'
p4360
(lp4361
S'70s'
p4362
asS'1204'
p4363
(lp4364
S'70s'
p4365
asS'1207'
p4366
(lp4367
S'70s'
p4368
asS'1206'
p4369
(lp4370
S'70s'
p4371
asS'1201'
p4372
(lp4373
S'90s'
p4374
asS'1200'
p4375
(lp4376
S'70s'
p4377
asS'1203'
p4378
(lp4379
S'70s'
p4380
asS'1202'
p4381
(lp4382
S'70s'
p4383
asS'633'
p4384
(lp4385
S'80s'
p4386
asS'1216'
p4387
(lp4388
S'90s'
p4389
asS'468'
p4390
(lp4391
S'60s'
p4392
asS'636'
p4393
(lp4394
S'90s'
p4395
asS'637'
p4396
(lp4397
S'90s'
p4398
asS'1447'
p4399
(lp4400
S'90s'
p4401
asS'465'
p4402
(lp4403
S'60s'
p4404
asS'1445'
p4405
(lp4406
S'90s'
p4407
asS'1444'
p4408
(lp4409
S'70s'
p4410
asS'5'
(lp4411
S'80s'
p4412
asS'1114'
p4413
(lp4414
S'60s'
p4415
asS'1117'
p4416
(lp4417
S'60s'
p4418
asS'464'
p4419
(lp4420
S'60s'
p4421
asS'1119'
p4422
(lp4423
S'60s'
p4424
asS'1118'
p4425
(lp4426
S'60s'
p4427
asS'467'
p4428
(lp4429
S'60s'
p4430
asS'1449'
p4431
(lp4432
S'90s'
p4433
asS'1448'
p4434
(lp4435
S'90s'
p4436
asS'466'
p4437
(lp4438
S'60s'
p4439
asS'461'
p4440
(lp4441
S'90s'
p4442
asS'450'
p4443
(lp4444
S'90s'
p4445
asS'1356'
p4446
(lp4447
S'70s'
p4448
asS'1355'
p4449
(lp4450
S'70s'
p4451
asS'489'
p4452
(lp4453
S'60s'
p4454
asS'488'
p4455
(lp4456
S'60s'
p4457
asS'487'
p4458
(lp4459
S'70s'
p4460
asS'486'
p4461
(lp4462
S'60s'
p4463
asS'485'
p4464
(lp4465
S'70s'
p4466
asS'1354'
p4467
(lp4468
S'70s'
p4469
asS'483'
p4470
(lp4471
S'70s'
p4472
asS'482'
p4473
(lp4474
S'70s'
p4475
asS'481'
p4476
(lp4477
S'70s'
p4478
asS'480'
p4479
(lp4480
S'70s'
p4481
asS'1564'
p4482
(lp4483
S'90s'
p4484
asS'2869'
p4485
(lp4486
S'90s'
p4487
asS'2898'
p4488
(lp4489
S'60s'
p4490
asS'199'
p4491
(lp4492
S'60s'
p4493
asS'198'
p4494
(lp4495
S'60s'
p4496
asS'195'
p4497
(lp4498
S'60s'
p4499
asS'194'
p4500
(lp4501
S'60s'
p4502
asS'197'
p4503
(lp4504
S'60s'
p4505
asS'196'
p4506
(lp4507
S'60s'
p4508
asS'191'
p4509
(lp4510
S'60s'
p4511
asS'190'
p4512
(lp4513
S'70s'
p4514
asS'193'
p4515
(lp4516
S'60s'
p4517
asS'192'
p4518
(lp4519
S'60s'
p4520
asS'2408'
p4521
(lp4522
S'90s'
p4523
asS'2543'
p4524
(lp4525
S'80s'
p4526
asS'2542'
p4527
(lp4528
S'90s'
p4529
asS'2541'
p4530
(lp4531
S'90s'
p4532
asS'2540'
p4533
(lp4534
S'90s'
p4535
asS'2547'
p4536
(lp4537
S'80s'
p4538
asS'2546'
p4539
(lp4540
S'90s'
p4541
asS'2545'
p4542
(lp4543
S'80s'
p4544
asS'2544'
p4545
(lp4546
S'80s'
p4547
asS'2549'
p4548
(lp4549
S'80s'
p4550
asS'2548'
p4551
(lp4552
S'80s'
p4553
asS'1104'
p4554
(lp4555
S'90s'
p4556
asS'2381'
p4557
(lp4558
S'60s'
p4559
asS'2380'
p4560
(lp4561
S'60s'
p4562
asS'2383'
p4563
(lp4564
S'60s'
p4565
asS'2382'
p4566
(lp4567
S'60s'
p4568
asS'2385'
p4569
(lp4570
S'60s'
p4571
asS'2384'
p4572
(lp4573
S'60s'
p4574
asS'2387'
p4575
(lp4576
S'60s'
p4577
asS'2386'
p4578
(lp4579
S'60s'
p4580
asS'2389'
p4581
(lp4582
S'60s'
p4583
asS'2388'
p4584
(lp4585
S'60s'
p4586
asS'1103'
p4587
(lp4588
S'90s'
p4589
asS'2769'
p4590
(lp4591
S'90s'
p4592
asS'2768'
p4593
(lp4594
S'90s'
p4595
asS'1100'
p4596
(lp4597
S'90s'
p4598
asS'2763'
p4599
(lp4600
S'90s'
p4601
asS'2762'
p4602
(lp4603
S'90s'
p4604
asS'2761'
p4605
(lp4606
S'90s'
p4607
asS'421'
p4608
(lp4609
S'90s'
p4610
asS'2767'
p4611
(lp4612
S'90s'
p4613
asS'2766'
p4614
(lp4615
S'80s'
p4616
asS'2765'
p4617
(lp4618
S'90s'
p4619
asS'2764'
p4620
(lp4621
S'90s'
p4622
asS'902'
p4623
(lp4624
S'70s'
p4625
asS'903'
p4626
(lp4627
S'70s'
p4628
asS'1849'
p4629
(lp4630
S'60s'
p4631
asS'1848'
p4632
(lp4633
S'60s'
p4634
asS'3000'
p4635
(lp4636
S'90s'
p4637
asS'907'
p4638
(lp4639
S'90s'
p4640
asS'904'
p4641
(lp4642
S'70s'
p4643
asS'905'
p4644
(lp4645
S'70s'
p4646
asS'1843'
p4647
(lp4648
S'90s'
p4649
asS'1842'
p4650
(lp4651
S'70s'
p4652
asS'1841'
p4653
(lp4654
S'90s'
p4655
asS'1840'
p4656
(lp4657
S'60s'
p4658
asS'1847'
p4659
(lp4660
S'60s'
p4661
asS'1846'
p4662
(lp4663
S'60s'
p4664
asS'1845'
p4665
(lp4666
S'60s'
p4667
asS'1844'
p4668
(lp4669
S'90s'
p4670
asS'2169'
p4671
(lp4672
S'80s'
p4673
asS'2168'
p4674
(lp4675
S'80s'
p4676
asS'2165'
p4677
(lp4678
S'80s'
p4679
asS'2164'
p4680
(lp4681
S'80s'
p4682
asS'2167'
p4683
(lp4684
S'90s'
p4685
asS'2166'
p4686
(lp4687
S'80s'
p4688
asS'2161'
p4689
(lp4690
S'70s'
p4691
asS'2160'
p4692
(lp4693
S'80s'
p4694
asS'2163'
p4695
(lp4696
S'80s'
p4697
asS'2162'
p4698
(lp4699
S'80s'
p4700
asS'2617'
p4701
(lp4702
S'60s'
p4703
asS'2616'
p4704
(lp4705
S'60s'
p4706
asS'2615'
p4707
(lp4708
S'60s'
p4709
asS'2614'
p4710
(lp4711
S'60s'
p4712
asS'2613'
p4713
(lp4714
S'60s'
p4715
asS'2612'
p4716
(lp4717
S'60s'
p4718
asS'2611'
p4719
(lp4720
S'80s'
p4721
asS'2610'
p4722
(lp4723
S'60s'
p4724
asS'2619'
p4725
(lp4726
S'60s'
p4727
asS'2618'
p4728
(lp4729
S'60s'
p4730
asS'1908'
p4731
(lp4732
S'80s'
p4733
asS'1909'
p4734
(lp4735
S'80s'
p4736
asS'1906'
p4737
(lp4738
S'80s'
p4739
asS'1907'
p4740
(lp4741
S'80s'
p4742
asS'1904'
p4743
(lp4744
S'80s'
p4745
asS'1905'
p4746
(lp4747
S'80s'
p4748
asS'1902'
p4749
(lp4750
S'80s'
p4751
asS'1903'
p4752
(lp4753
S'80s'
p4754
asS'1900'
p4755
(lp4756
S'80s'
p4757
asS'1901'
p4758
(lp4759
S'80s'
p4760
asS'3002'
p4761
(lp4762
S'90s'
p4763
asS'855'
p4764
(lp4765
S'90s'
p4766
asS'856'
p4767
(lp4768
S'90s'
p4769
asS'857'
p4770
(lp4771
S'90s'
p4772
asS'850'
p4773
(lp4774
S'90s'
p4775
asS'851'
p4776
(lp4777
S'90s'
p4778
asS'852'
p4779
(lp4780
S'90s'
p4781
asS'819'
p4782
(lp4783
S'90s'
p4784
asS'372'
p4785
(lp4786
S'90s'
p4787
asS'858'
p4788
(lp4789
S'90s'
p4790
asS'859'
p4791
(lp4792
S'90s'
p4793
asS'6'
(lp4794
S'60s'
p4795
asS'616'
p4796
(lp4797
S'90s'
p4798
asS'740'
p4799
(lp4800
S'60s'
p4801
asS'741'
p4802
(lp4803
S'60s'
p4804
asS'742'
p4805
(lp4806
S'90s'
p4807
asS'2575'
p4808
(lp4809
S'90s'
p4810
asS'744'
p4811
(lp4812
S'90s'
p4813
asS'745'
p4814
(lp4815
S'90s'
p4816
asS'746'
p4817
(lp4818
S'80s'
p4819
asS'747'
p4820
(lp4821
S'90s'
p4822
asS'748'
p4823
(lp4824
S'80s'
p4825
asS'749'
p4826
(lp4827
S'90s'
p4828
asS'1440'
p4829
(lp4830
S'90s'
p4831
asS'2912'
p4832
(lp4833
S'70s'
p4834
asS'1798'
p4835
(lp4836
S'90s'
p4837
asS'2949'
p4838
(lp4839
S'80s'
p4840
asS'2948'
p4841
(lp4842
S'80s'
p4843
asS'2947'
p4844
(lp4845
S'80s'
p4846
asS'2946'
p4847
(lp4848
S'80s'
p4849
asS'2945'
p4850
(lp4851
S'80s'
p4852
asS'2944'
p4853
(lp4854
S'80s'
p4855
asS'2943'
p4856
(lp4857
S'80s'
p4858
asS'2942'
p4859
(lp4860
S'80s'
p4861
asS'2941'
p4862
(lp4863
S'80s'
p4864
asS'2940'
p4865
(lp4866
S'80s'
p4867
asS'1050'
p4868
(lp4869
S'60s'
p4870
asS'1051'
p4871
(lp4872
S'90s'
p4873
asS'1052'
p4874
(lp4875
S'90s'
p4876
asS'1053'
p4877
(lp4878
S'90s'
p4879
asS'1054'
p4880
(lp4881
S'90s'
p4882
asS'2916'
p4883
(lp4884
S'70s'
p4885
asS'1056'
p4886
(lp4887
S'90s'
p4888
asS'1057'
p4889
(lp4890
S'90s'
p4891
asS'1058'
p4892
(lp4893
S'90s'
p4894
asS'1059'
p4895
(lp4896
S'90s'
p4897
asS'2917'
p4898
(lp4899
S'70s'
p4900
asS'1696'
p4901
(lp4902
S'90s'
p4903
asS'1793'
p4904
(lp4905
S'70s'
p4906
asS'1694'
p4907
(lp4908
S'90s'
p4909
asS'1695'
p4910
(lp4911
S'90s'
p4912
asS'1692'
p4913
(lp4914
S'90s'
p4915
asS'1693'
p4916
(lp4917
S'90s'
p4918
asS'1690'
p4919
(lp4920
S'90s'
p4921
asS'1792'
p4922
(lp4923
S'70s'
p4924
asS'715'
p4925
(lp4926
S'70s'
p4927
asS'1698'
p4928
(lp4929
S'90s'
p4930
asS'1699'
p4931
(lp4932
S'90s'
p4933
asS'1278'
p4934
(lp4935
S'60s'
p4936
asS'1279'
p4937
(lp4938
S'70s'
p4939
asS'618'
p4940
(lp4941
S'90s'
p4942
asS'1790'
p4943
(lp4944
S'70s'
p4945
asS'612'
p4946
(lp4947
S'90s'
p4948
asS'713'
p4949
(lp4950
S'70s'
p4951
asS'1272'
p4952
(lp4953
S'90s'
p4954
asS'611'
p4955
(lp4956
S'90s'
p4957
asS'1274'
p4958
(lp4959
S'90s'
p4960
asS'1275'
p4961
(lp4962
S'60s'
p4963
asS'1276'
p4964
(lp4965
S'60s'
p4966
asS'1277'
p4967
(lp4968
S'60s'
p4969
asS'1795'
p4970
(lp4971
S'70s'
p4972
asS'1794'
p4973
(lp4974
S'70s'
p4975
asS'1472'
p4976
(lp4977
S'90s'
p4978
asS'1473'
p4979
(lp4980
S'90s'
p4981
asS'1470'
p4982
(lp4983
S'90s'
p4984
asS'1493'
p4985
(lp4986
S'90s'
p4987
asS'1476'
p4988
(lp4989
S'90s'
p4990
asS'1477'
p4991
(lp4992
S'90s'
p4993
asS'1474'
p4994
(lp4995
S'90s'
p4996
asS'1475'
p4997
(lp4998
S'90s'
p4999
asS'1478'
p5000
(lp5001
S'90s'
p5002
asS'1479'
p5003
(lp5004
S'90s'
p5005
asS'1304'
p5006
(lp5007
S'70s'
p5008
asS'1305'
p5009
(lp5010
S'90s'
p5011
asS'1306'
p5012
(lp5013
S'70s'
p5014
asS'1307'
p5015
(lp5016
S'70s'
p5017
asS'1300'
p5018
(lp5019
S'70s'
p5020
asS'1301'
p5021
(lp5022
S'70s'
p5023
asS'1302'
p5024
(lp5025
S'70s'
p5026
asS'1303'
p5027
(lp5028
S'70s'
p5029
asS'1308'
p5030
(lp5031
S'70s'
p5032
asS'1309'
p5033
(lp5034
S'70s'
p5035
asS'498'
p5036
(lp5037
S'60s'
p5038
asS'499'
p5039
(lp5040
S'60s'
p5041
asS'494'
p5042
(lp5043
S'60s'
p5044
asS'495'
p5045
(lp5046
S'80s'
p5047
asS'496'
p5048
(lp5049
S'60s'
p5050
asS'497'
p5051
(lp5052
S'60s'
p5053
asS'490'
p5054
(lp5055
S'60s'
p5056
asS'491'
p5057
(lp5058
S'60s'
p5059
asS'492'
p5060
(lp5061
S'60s'
p5062
asS'493'
p5063
(lp5064
S'60s'
p5065
asS'24'
p5066
(lp5067
S'70s'
p5068
asS'25'
p5069
(lp5070
S'70s'
p5071
asS'26'
p5072
(lp5073
S'70s'
p5074
asS'27'
p5075
(lp5076
S'70s'
p5077
asS'20'
p5078
(lp5079
S'80s'
p5080
asS'21'
p5081
(lp5082
S'70s'
p5083
asS'22'
p5084
(lp5085
S'70s'
p5086
asS'23'
p5087
(lp5088
S'70s'
p5089
asS'927'
p5090
(lp5091
S'90s'
p5092
asS'28'
p5093
(lp5094
S'70s'
p5095
asS'29'
p5096
(lp5097
S'80s'
p5098
asS'1703'
p5099
(lp5100
S'90s'
p5101
asS'1516'
p5102
(lp5103
S'80s'
p5104
asS'1709'
p5105
(lp5106
S'90s'
p5107
asS'171'
p5108
(lp5109
S'90s'
p5110
asS'7'
(lp5111
S'60s'
p5112
asS'2288'
p5113
(lp5114
S'60s'
p5115
asS'2289'
p5116
(lp5117
S'60s'
p5118
asS'2050'
p5119
(lp5120
S'90s'
p5121
asS'2280'
p5122
(lp5123
S'60s'
p5124
asS'2281'
p5125
(lp5126
S'60s'
p5127
asS'2282'
p5128
(lp5129
S'60s'
p5130
asS'2283'
p5131
(lp5132
S'60s'
p5133
asS'2284'
p5134
(lp5135
S'60s'
p5136
asS'2285'
p5137
(lp5138
S'60s'
p5139
asS'2286'
p5140
(lp5141
S'60s'
p5142
asS'2287'
p5143
(lp5144
S'60s'
p5145
asS'446'
p5146
(lp5147
S'90s'
p5148
asS'2052'
p5149
(lp5150
S'90s'
p5151
asS'2578'
p5152
(lp5153
S'90s'
p5154
asS'2579'
p5155
(lp5156
S'90s'
p5157
asS'2576'
p5158
(lp5159
S'90s'
p5160
asS'2577'
p5161
(lp5162
S'90s'
p5163
asS'2574'
p5164
(lp5165
S'90s'
p5166
asS'970'
p5167
(lp5168
S'90s'
p5169
asS'2572'
p5170
(lp5171
S'90s'
p5172
asS'2573'
p5173
(lp5174
S'90s'
p5175
asS'2570'
p5176
(lp5177
S'90s'
p5178
asS'2571'
p5179
(lp5180
S'90s'
p5181
asS'2378'
p5182
(lp5183
S'60s'
p5184
asS'2379'
p5185
(lp5186
S'80s'
p5187
asS'2374'
p5188
(lp5189
S'60s'
p5190
asS'2375'
p5191
(lp5192
S'60s'
p5193
asS'2376'
p5194
(lp5195
S'60s'
p5196
asS'2377'
p5197
(lp5198
S'60s'
p5199
asS'2370'
p5200
(lp5201
S'70s'
p5202
asS'2371'
p5203
(lp5204
S'70s'
p5205
asS'2372'
p5206
(lp5207
S'70s'
p5208
asS'2373'
p5209
(lp5210
S'70s'
p5211
asS'2594'
p5212
(lp5213
S'60s'
p5214
asS'2595'
p5215
(lp5216
S'60s'
p5217
asS'2596'
p5218
(lp5219
S'60s'
p5220
asS'2597'
p5221
(lp5222
S'60s'
p5223
asS'2590'
p5224
(lp5225
S'90s'
p5226
asS'2591'
p5227
(lp5228
S'90s'
p5229
asS'2592'
p5230
(lp5231
S'60s'
p5232
asS'2593'
p5233
(lp5234
S'60s'
p5235
asS'2598'
p5236
(lp5237
S'60s'
p5238
asS'2599'
p5239
(lp5240
S'60s'
p5241
asS'1876'
p5242
(lp5243
S'70s'
p5244
asS'1877'
p5245
(lp5246
S'70s'
p5247
asS'1874'
p5248
(lp5249
S'70s'
p5250
asS'1875'
p5251
(lp5252
S'70s'
p5253
asS'1872'
p5254
(lp5255
S'70s'
p5256
asS'1873'
p5257
(lp5258
S'70s'
p5259
asS'1870'
p5260
(lp5261
S'70s'
p5262
asS'1871'
p5263
(lp5264
S'60s'
p5265
asS'1083'
p5266
(lp5267
S'90s'
p5268
asS'1878'
p5269
(lp5270
S'70s'
p5271
asS'1879'
p5272
(lp5273
S'80s'
p5274
asS'977'
p5275
(lp5276
S'90s'
p5277
asS'976'
p5278
(lp5279
S'80s'
p5280
asS'975'
p5281
(lp5282
S'80s'
p5283
asS'974'
p5284
(lp5285
S'80s'
p5286
asS'973'
p5287
(lp5288
S'80s'
p5289
asS'972'
p5290
(lp5291
S'80s'
p5292
asS'971'
p5293
(lp5294
S'80s'
p5295
asS'183'
p5296
(lp5297
S'90s'
p5298
asS'1080'
p5299
(lp5300
S'90s'
p5301
asS'979'
p5302
(lp5303
S'80s'
p5304
asS'978'
p5305
(lp5306
S'80s'
p5307
asS'2118'
p5308
(lp5309
S'60s'
p5310
asS'2119'
p5311
(lp5312
S'60s'
p5313
asS'180'
p5314
(lp5315
S'80s'
p5316
asS'181'
p5317
(lp5318
S'90s'
p5319
asS'186'
p5320
(lp5321
S'60s'
p5322
asS'187'
p5323
(lp5324
S'60s'
p5325
asS'184'
p5326
(lp5327
S'90s'
p5328
asS'185'
p5329
(lp5330
S'60s'
p5331
asS'2110'
p5332
(lp5333
S'70s'
p5334
asS'2111'
p5335
(lp5336
S'60s'
p5337
asS'2112'
p5338
(lp5339
S'60s'
p5340
asS'2113'
p5341
(lp5342
S'60s'
p5343
asS'2114'
p5344
(lp5345
S'70s'
p5346
asS'2115'
p5347
(lp5348
S'80s'
p5349
asS'2116'
p5350
(lp5351
S'60s'
p5352
asS'2117'
p5353
(lp5354
S'90s'
p5355
asS'2622'
p5356
(lp5357
S'60s'
p5358
asS'2623'
p5359
(lp5360
S'60s'
p5361
asS'2620'
p5362
(lp5363
S'60s'
p5364
asS'2621'
p5365
(lp5366
S'60s'
p5367
asS'2626'
p5368
(lp5369
S'70s'
p5370
asS'2627'
p5371
(lp5372
S'70s'
p5373
asS'2624'
p5374
(lp5375
S'70s'
p5376
asS'2625'
p5377
(lp5378
S'70s'
p5379
asS'2628'
p5380
(lp5381
S'70s'
p5382
asS'2629'
p5383
(lp5384
S'70s'
p5385
asS'1919'
p5386
(lp5387
S'90s'
p5388
asS'1918'
p5389
(lp5390
S'90s'
p5391
asS'1911'
p5392
(lp5393
S'90s'
p5394
asS'1910'
p5395
(lp5396
S'80s'
p5397
asS'1913'
p5398
(lp5399
S'90s'
p5400
asS'1912'
p5401
(lp5402
S'90s'
p5403
asS'1915'
p5404
(lp5405
S'90s'
p5406
asS'188'
p5407
(lp5408
S'60s'
p5409
asS'1917'
p5410
(lp5411
S'90s'
p5412
asS'1916'
p5413
(lp5414
S'90s'
p5415
asS'869'
p5416
(lp5417
S'90s'
p5418
asS'868'
p5419
(lp5420
S'90s'
p5421
asS'189'
p5422
(lp5423
S'60s'
p5424
asS'861'
p5425
(lp5426
S'90s'
p5427
asS'860'
p5428
(lp5429
S'90s'
p5430
asS'863'
p5431
(lp5432
S'90s'
p5433
asS'862'
p5434
(lp5435
S'90s'
p5436
asS'865'
p5437
(lp5438
S'90s'
p5439
asS'864'
p5440
(lp5441
S'90s'
p5442
asS'867'
p5443
(lp5444
S'90s'
p5445
asS'866'
p5446
(lp5447
S'90s'
p5448
asS'2024'
p5449
(lp5450
S'60s'
p5451
asS'2025'
p5452
(lp5453
S'60s'
p5454
asS'2754'
p5455
(lp5456
S'90s'
p5457
asS'2027'
p5458
(lp5459
S'60s'
p5460
asS'2020'
p5461
(lp5462
S'60s'
p5463
asS'2021'
p5464
(lp5465
S'60s'
p5466
asS'2022'
p5467
(lp5468
S'60s'
p5469
asS'2023'
p5470
(lp5471
S'60s'
p5472
asS'2028'
p5473
(lp5474
S'60s'
p5475
asS'2029'
p5476
(lp5477
S'60s'
p5478
asS'2758'
p5479
(lp5480
S'90s'
p5481
asS'2759'
p5482
(lp5483
S'90s'
p5484
asS'883'
p5485
(lp5486
S'90s'
p5487
asS'882'
p5488
(lp5489
S'80s'
p5490
asS'881'
p5491
(lp5492
S'80s'
p5493
asS'880'
p5494
(lp5495
S'80s'
p5496
asS'887'
p5497
(lp5498
S'80s'
p5499
asS'886'
p5500
(lp5501
S'80s'
p5502
asS'885'
p5503
(lp5504
S'80s'
p5505
asS'884'
p5506
(lp5507
S'60s'
p5508
asS'889'
p5509
(lp5510
S'70s'
p5511
asS'888'
p5512
(lp5513
S'90s'
p5514
asS'657'
p5515
(lp5516
S'70s'
p5517
asS'775'
p5518
(lp5519
S'60s'
p5520
asS'774'
p5521
(lp5522
S'70s'
p5523
asS'777'
p5524
(lp5525
S'70s'
p5526
asS'776'
p5527
(lp5528
S'70s'
p5529
asS'771'
p5530
(lp5531
S'70s'
p5532
asS'770'
p5533
(lp5534
S'70s'
p5535
asS'773'
p5536
(lp5537
S'70s'
p5538
asS'772'
p5539
(lp5540
S'70s'
p5541
asS'779'
p5542
(lp5543
S'70s'
p5544
asS'778'
p5545
(lp5546
S'70s'
p5547
asS'419'
p5548
(lp5549
S'90s'
p5550
asS'77'
p5551
(lp5552
S'60s'
p5553
asS'76'
p5554
(lp5555
S'60s'
p5556
asS'75'
p5557
(lp5558
S'60s'
p5559
asS'74'
p5560
(lp5561
S'60s'
p5562
asS'73'
p5563
(lp5564
S'60s'
p5565
asS'72'
p5566
(lp5567
S'60s'
p5568
asS'71'
p5569
(lp5570
S'60s'
p5571
asS'70'
p5572
(lp5573
S'60s'
p5574
asS'2972'
p5575
(lp5576
S'90s'
p5577
asS'2973'
p5578
(lp5579
S'90s'
p5580
asS'2970'
p5581
(lp5582
S'90s'
p5583
asS'2971'
p5584
(lp5585
S'90s'
p5586
asS'2976'
p5587
(lp5588
S'90s'
p5589
asS'2977'
p5590
(lp5591
S'90s'
p5592
asS'79'
p5593
(lp5594
S'60s'
p5595
asS'78'
p5596
(lp5597
S'60s'
p5598
asS'1043'
p5599
(lp5600
S'70s'
p5601
asS'1042'
p5602
(lp5603
S'70s'
p5604
asS'1041'
p5605
(lp5606
S'70s'
p5607
asS'1040'
p5608
(lp5609
S'70s'
p5610
asS'1047'
p5611
(lp5612
S'90s'
p5613
asS'1046'
p5614
(lp5615
S'80s'
p5616
asS'1045'
p5617
(lp5618
S'70s'
p5619
asS'1044'
p5620
(lp5621
S'70s'
p5622
asS'1049'
p5623
(lp5624
S'90s'
p5625
asS'1048'
p5626
(lp5627
S'90s'
p5628
asS'1681'
p5629
(lp5630
S'90s'
p5631
asS'1680'
p5632
(lp5633
S'90s'
p5634
asS'1683'
p5635
(lp5636
S'90s'
p5637
asS'1682'
p5638
(lp5639
S'90s'
p5640
asS'1685'
p5641
(lp5642
S'80s'
p5643
asS'1684'
p5644
(lp5645
S'90s'
p5646
asS'1687'
p5647
(lp5648
S'90s'
p5649
asS'1686'
p5650
(lp5651
S'80s'
p5652
asS'1689'
p5653
(lp5654
S'90s'
p5655
asS'1688'
p5656
(lp5657
S'90s'
p5658
asS'1269'
p5659
(lp5660
S'90s'
p5661
asS'1268'
p5662
(lp5663
S'90s'
p5664
asS'669'
p5665
(lp5666
S'60s'
p5667
asS'668'
p5668
(lp5669
S'60s'
p5670
asS'667'
p5671
(lp5672
S'60s'
p5673
asS'666'
p5674
(lp5675
S'60s'
p5676
asS'665'
p5677
(lp5678
S'60s'
p5679
asS'664'
p5680
(lp5681
S'60s'
p5682
asS'663'
p5683
(lp5684
S'60s'
p5685
asS'662'
p5686
(lp5687
S'60s'
p5688
asS'661'
p5689
(lp5690
S'60s'
p5691
asS'660'
p5692
(lp5693
S'60s'
p5694
asS'640'
p5695
(lp5696
S'90s'
p5697
asS'1914'
p5698
(lp5699
S'90s'
p5700
asS'1469'
p5701
(lp5702
S'90s'
p5703
asS'1468'
p5704
(lp5705
S'90s'
p5706
asS'1465'
p5707
(lp5708
S'80s'
p5709
asS'8'
(lp5710
S'60s'
p5711
asS'1467'
p5712
(lp5713
S'90s'
p5714
asS'1466'
p5715
(lp5716
S'90s'
p5717
asS'1461'
p5718
(lp5719
S'90s'
p5720
asS'1460'
p5721
(lp5722
S'90s'
p5723
asS'1463'
p5724
(lp5725
S'90s'
p5726
asS'1019'
p5727
(lp5728
S'90s'
p5729
asS'1317'
p5730
(lp5731
S'70s'
p5732
asS'1316'
p5733
(lp5734
S'70s'
p5735
asS'1315'
p5736
(lp5737
S'90s'
p5738
asS'1314'
p5739
(lp5740
S'70s'
p5741
asS'1313'
p5742
(lp5743
S'70s'
p5744
asS'1312'
p5745
(lp5746
S'70s'
p5747
asS'1311'
p5748
(lp5749
S'70s'
p5750
asS'1310'
p5751
(lp5752
S'70s'
p5753
asS'1319'
p5754
(lp5755
S'70s'
p5756
asS'1318'
p5757
(lp5758
S'70s'
p5759
asS'2460'
p5760
(lp5761
S'80s'
p5762
asS'1010'
p5763
(lp5764
S'90s'
p5765
asS'1011'
p5766
(lp5767
S'90s'
p5768
asS'319'
p5769
(lp5770
S'70s'
p5771
asS'318'
p5772
(lp5773
S'70s'
p5774
asS'313'
p5775
(lp5776
S'70s'
p5777
asS'312'
p5778
(lp5779
S'70s'
p5780
asS'311'
p5781
(lp5782
S'60s'
p5783
asS'310'
p5784
(lp5785
S'70s'
p5786
asS'317'
p5787
(lp5788
S'70s'
p5789
asS'316'
p5790
(lp5791
S'70s'
p5792
asS'315'
p5793
(lp5794
S'70s'
p5795
asS'314'
p5796
(lp5797
S'70s'
p5798
asS'1520'
p5799
(lp5800
S'90s'
p5801
asS'2756'
p5802
(lp5803
S'90s'
p5804
asS'2757'
p5805
(lp5806
S'60s'
p5807
asS'2026'
p5808
(lp5809
S'90s'
p5810
asS'1335'
p5811
(lp5812
S'90s'
p5813
asS'2755'
p5814
(lp5815
S'90s'
p5816
asS'442'
p5817
(lp5818
S'90s'
p5819
asS'2752'
p5820
(lp5821
S'80s'
p5822
asS'441'
p5823
(lp5824
S'90s'
p5825
asS'2753'
p5826
(lp5827
S'80s'
p5828
asS'1336'
p5829
(lp5830
S'90s'
p5831
asS'2750'
p5832
(lp5833
S'80s'
p5834
asS'447'
p5835
(lp5836
S'90s'
p5837
asS'2751'
p5838
(lp5839
S'90s'
p5840
asS'1330'
p5841
(lp5842
S'70s'
p5843
asS'1333'
p5844
(lp5845
S'70s'
p5846
asS'444'
p5847
(lp5848
S'90s'
p5849
asS'2908'
p5850
(lp5851
S'90s'
p5852
asS'630'
p5853
(lp5854
S'90s'
p5855
asS'2461'
p5856
(lp5857
S'80s'
p5858
asS'2299'
p5859
(lp5860
S'60s'
p5861
asS'2298'
p5862
(lp5863
S'60s'
p5864
asS'2293'
p5865
(lp5866
S'60s'
p5867
asS'2292'
p5868
(lp5869
S'60s'
p5870
asS'2291'
p5871
(lp5872
S'60s'
p5873
asS'2290'
p5874
(lp5875
S'60s'
p5876
asS'2297'
p5877
(lp5878
S'60s'
p5879
asS'2296'
p5880
(lp5881
S'60s'
p5882
asS'2295'
p5883
(lp5884
S'70s'
p5885
asS'2294'
p5886
(lp5887
S'90s'
p5888
asS'2569'
p5889
(lp5890
S'90s'
p5891
asS'2568'
p5892
(lp5893
S'90s'
p5894
asS'2561'
p5895
(lp5896
S'90s'
p5897
asS'2560'
p5898
(lp5899
S'90s'
p5900
asS'2563'
p5901
(lp5902
S'90s'
p5903
asS'2562'
p5904
(lp5905
S'60s'
p5906
asS'2565'
p5907
(lp5908
S'90s'
p5909
asS'2564'
p5910
(lp5911
S'90s'
p5912
asS'2567'
p5913
(lp5914
S'90s'
p5915
asS'2566'
p5916
(lp5917
S'90s'
p5918
asS'908'
p5919
(lp5920
S'90s'
p5921
asS'2369'
p5922
(lp5923
S'70s'
p5924
asS'2368'
p5925
(lp5926
S'70s'
p5927
asS'2367'
p5928
(lp5929
S'70s'
p5930
asS'2366'
p5931
(lp5932
S'70s'
p5933
asS'2365'
p5934
(lp5935
S'70s'
p5936
asS'2364'
p5937
(lp5938
S'70s'
p5939
asS'2363'
p5940
(lp5941
S'70s'
p5942
asS'2362'
p5943
(lp5944
S'70s'
p5945
asS'2361'
p5946
(lp5947
S'70s'
p5948
asS'2360'
p5949
(lp5950
S'70s'
p5951
asS'2587'
p5952
(lp5953
S'90s'
p5954
asS'2586'
p5955
(lp5956
S'90s'
p5957
asS'2585'
p5958
(lp5959
S'90s'
p5960
asS'2584'
p5961
(lp5962
S'90s'
p5963
asS'2583'
p5964
(lp5965
S'90s'
p5966
asS'2582'
p5967
(lp5968
S'90s'
p5969
asS'2581'
p5970
(lp5971
S'90s'
p5972
asS'2580'
p5973
(lp5974
S'90s'
p5975
asS'402'
p5976
(lp5977
S'90s'
p5978
asS'2589'
p5979
(lp5980
S'90s'
p5981
asS'2588'
p5982
(lp5983
S'90s'
p5984
asS'1861'
p5985
(lp5986
S'70s'
p5987
asS'1860'
p5988
(lp5989
S'70s'
p5990
asS'1863'
p5991
(lp5992
S'60s'
p5993
asS'1862'
p5994
(lp5995
S'70s'
p5996
asS'1865'
p5997
(lp5998
S'70s'
p5999
asS'1864'
p6000
(lp6001
S'70s'
p6002
asS'1867'
p6003
(lp6004
S'70s'
p6005
asS'1866'
p6006
(lp6007
S'70s'
p6008
asS'1869'
p6009
(lp6010
S'70s'
p6011
asS'1868'
p6012
(lp6013
S'70s'
p6014
asS'964'
p6015
(lp6016
S'80s'
p6017
asS'965'
p6018
(lp6019
S'80s'
p6020
asS'966'
p6021
(lp6022
S'80s'
p6023
asS'967'
p6024
(lp6025
S'90s'
p6026
asS'960'
p6027
(lp6028
S'80s'
p6029
asS'961'
p6030
(lp6031
S'80s'
p6032
asS'962'
p6033
(lp6034
S'80s'
p6035
asS'963'
p6036
(lp6037
S'80s'
p6038
asS'401'
p6039
(lp6040
S'90s'
p6041
asS'968'
p6042
(lp6043
S'80s'
p6044
asS'969'
p6045
(lp6046
S'90s'
p6047
asS'2109'
p6048
(lp6049
S'70s'
p6050
asS'2108'
p6051
(lp6052
S'90s'
p6053
asS'2103'
p6054
(lp6055
S'70s'
p6056
asS'2102'
p6057
(lp6058
S'70s'
p6059
asS'2101'
p6060
(lp6061
S'70s'
p6062
asS'2100'
p6063
(lp6064
S'60s'
p6065
asS'2107'
p6066
(lp6067
S'70s'
p6068
asS'2106'
p6069
(lp6070
S'70s'
p6071
asS'2105'
p6072
(lp6073
S'70s'
p6074
asS'2104'
p6075
(lp6076
S'70s'
p6077
asS'2639'
p6078
(lp6079
S'70s'
p6080
asS'2638'
p6081
(lp6082
S'70s'
p6083
asS'635'
p6084
(lp6085
S'90s'
p6086
asS'2635'
p6087
(lp6088
S'70s'
p6089
asS'2634'
p6090
(lp6091
S'70s'
p6092
asS'2637'
p6093
(lp6094
S'70s'
p6095
asS'2636'
p6096
(lp6097
S'70s'
p6098
asS'2631'
p6099
(lp6100
S'90s'
p6101
asS'2630'
p6102
(lp6103
S'70s'
p6104
asS'2633'
p6105
(lp6106
S'90s'
p6107
asS'2632'
p6108
(lp6109
S'70s'
p6110
asS'1560'
p6111
(lp6112
S'90s'
p6113
asS'1241'
p6114
(lp6115
S'80s'
p6116
asS'878'
p6117
(lp6118
S'60s'
p6119
asS'879'
p6120
(lp6121
S'80s'
p6122
asS'876'
p6123
(lp6124
S'60s'
p6125
asS'877'
p6126
(lp6127
S'60s'
p6128
asS'874'
p6129
(lp6130
S'60s'
p6131
asS'875'
p6132
(lp6133
S'60s'
p6134
asS'872'
p6135
(lp6136
S'60s'
p6137
asS'1243'
p6138
(lp6139
S'80s'
p6140
asS'870'
p6141
(lp6142
S'90s'
p6143
asS'871'
p6144
(lp6145
S'90s'
p6146
asS'2037'
p6147
(lp6148
S'60s'
p6149
asS'2036'
p6150
(lp6151
S'60s'
p6152
asS'2035'
p6153
(lp6154
S'60s'
p6155
asS'2034'
p6156
(lp6157
S'60s'
p6158
asS'2033'
p6159
(lp6160
S'60s'
p6161
asS'2744'
p6162
(lp6163
S'80s'
p6164
asS'2031'
p6165
(lp6166
S'60s'
p6167
asS'2030'
p6168
(lp6169
S'60s'
p6170
asS'9'
(lp6171
S'60s'
p6172
asS'645'
p6173
(lp6174
S'60s'
p6175
asS'2039'
p6176
(lp6177
S'60s'
p6178
asS'644'
p6179
(lp6180
S'70s'
p6181
asS'890'
p6182
(lp6183
S'70s'
p6184
asS'891'
p6185
(lp6186
S'70s'
p6187
asS'892'
p6188
(lp6189
S'70s'
p6190
asS'893'
p6191
(lp6192
S'90s'
p6193
asS'894'
p6194
(lp6195
S'90s'
p6196
asS'895'
p6197
(lp6198
S'70s'
p6199
asS'896'
p6200
(lp6201
S'70s'
p6202
asS'897'
p6203
(lp6204
S'80s'
p6205
asS'898'
p6206
(lp6207
S'70s'
p6208
asS'899'
p6209
(lp6210
S'90s'
p6211
asS'1246'
p6212
(lp6213
S'80s'
p6214
asS'649'
p6215
(lp6216
S'90s'
p6217
asS'1247'
p6218
(lp6219
S'80s'
p6220
asS'648'
p6221
(lp6222
S'90s'
p6223
asS'641'
p6224
(lp6225
S'90s'
p6226
asS'1964'
p6227
(lp6228
S'80s'
p6229
asS'1965'
p6230
(lp6231
S'90s'
p6232
asS'1966'
p6233
(lp6234
S'90s'
p6235
asS'1788'
p6236
(lp6237
S'60s'
p6238
asS'1789'
p6239
(lp6240
S'70s'
p6241
asS'768'
p6242
(lp6243
S'60s'
p6244
asS'769'
p6245
(lp6246
S'60s'
p6247
asS'2961'
p6248
(lp6249
S'90s'
p6250
asS'2960'
p6251
(lp6252
S'70s'
p6253
asS'2963'
p6254
(lp6255
S'90s'
p6256
asS'2962'
p6257
(lp6258
S'90s'
p6259
asS'1780'
p6260
(lp6261
S'70s'
p6262
asS'1781'
p6263
(lp6264
S'70s'
p6265
asS'1782'
p6266
(lp6267
S'70s'
p6268
asS'1783'
p6269
(lp6270
S'70s'
p6271
asS'1784'
p6272
(lp6273
S'70s'
p6274
asS'1785'
p6275
(lp6276
S'70s'
p6277
asS'1786'
p6278
(lp6279
S'70s'
p6280
asS'1787'
p6281
(lp6282
S'70s'
p6283
asS'1962'
p6284
(lp6285
S'80s'
p6286
asS'1963'
p6287
(lp6288
S'90s'
p6289
asS'1078'
p6290
(lp6291
S'90s'
p6292
asS'1079'
p6293
(lp6294
S'90s'
p6295
asS'1076'
p6296
(lp6297
S'90s'
p6298
asS'643'
p6299
(lp6300
S'90s'
p6301
asS'1074'
p6302
(lp6303
S'90s'
p6304
asS'1075'
p6305
(lp6306
S'90s'
p6307
asS'1072'
p6308
(lp6309
S'90s'
p6310
asS'1073'
p6311
(lp6312
S'90s'
p6313
asS'1070'
p6314
(lp6315
S'70s'
p6316
asS'1071'
p6317
(lp6318
S'90s'
p6319
asS'1678'
p6320
(lp6321
S'70s'
p6322
asS'1679'
p6323
(lp6324
S'90s'
p6325
asS'1674'
p6326
(lp6327
S'90s'
p6328
asS'1675'
p6329
(lp6330
S'90s'
p6331
asS'1676'
p6332
(lp6333
S'90s'
p6334
asS'1677'
p6335
(lp6336
S'90s'
p6337
asS'1670'
p6338
(lp6339
S'90s'
p6340
asS'1671'
p6341
(lp6342
S'90s'
p6343
asS'1672'
p6344
(lp6345
S'90s'
p6346
asS'1673'
p6347
(lp6348
S'60s'
p6349
asS'1094'
p6350
(lp6351
S'90s'
p6352
asS'1095'
p6353
(lp6354
S'90s'
p6355
asS'1096'
p6356
(lp6357
S'90s'
p6358
asS'1097'
p6359
(lp6360
S'90s'
p6361
asS'678'
p6362
(lp6363
S'60s'
p6364
asS'679'
p6365
(lp6366
S'60s'
p6367
asS'1092'
p6368
(lp6369
S'90s'
p6370
asS'642'
p6371
(lp6372
S'90s'
p6373
asS'674'
p6374
(lp6375
S'60s'
p6376
asS'675'
p6377
(lp6378
S'60s'
p6379
asS'676'
p6380
(lp6381
S'60s'
p6382
asS'677'
p6383
(lp6384
S'60s'
p6385
asS'670'
p6386
(lp6387
S'60s'
p6388
asS'671'
p6389
(lp6390
S'60s'
p6391
asS'672'
p6392
(lp6393
S'60s'
p6394
asS'673'
p6395
(lp6396
S'60s'
p6397
asS'1997'
p6398
(lp6399
S'90s'
p6400
asS'1418'
p6401
(lp6402
S'90s'
p6403
asS'1419'
p6404
(lp6405
S'90s'
p6406
asS'1410'
p6407
(lp6408
S'90s'
p6409
asS'1411'
p6410
(lp6411
S'90s'
p6412
asS'1412'
p6413
(lp6414
S'90s'
p6415
asS'1413'
p6416
(lp6417
S'90s'
p6418
asS'1414'
p6419
(lp6420
S'90s'
p6421
asS'1415'
p6422
(lp6423
S'90s'
p6424
asS'1416'
p6425
(lp6426
S'90s'
p6427
asS'1417'
p6428
(lp6429
S'90s'
p6430
asS'1322'
p6431
(lp6432
S'70s'
p6433
asS'1323'
p6434
(lp6435
S'70s'
p6436
asS'1320'
p6437
(lp6438
S'70s'
p6439
asS'1321'
p6440
(lp6441
S'70s'
p6442
asS'1326'
p6443
(lp6444
S'70s'
p6445
asS'1327'
p6446
(lp6447
S'70s'
p6448
asS'1324'
p6449
(lp6450
S'90s'
p6451
asS'1325'
p6452
(lp6453
S'90s'
p6454
asS'1328'
p6455
(lp6456
S'70s'
p6457
asS'1329'
p6458
(lp6459
S'70s'
p6460
asS'2494'
p6461
(lp6462
S'90s'
p6463
asS'1480'
p6464
(lp6465
S'90s'
p6466
asS'2496'
p6467
(lp6468
S'90s'
p6469
asS'647'
p6470
(lp6471
S'90s'
p6472
asS'1524'
p6473
(lp6474
S'60s'
p6475
asS'1525'
p6476
(lp6477
S'60s'
p6478
asS'1526'
p6479
(lp6480
S'60s'
p6481
asS'1527'
p6482
(lp6483
S'60s'
p6484
asS'1252'
p6485
(lp6486
S'90s'
p6487
asS'1521'
p6488
(lp6489
S'60s'
p6490
asS'1522'
p6491
(lp6492
S'60s'
p6493
asS'1523'
p6494
(lp6495
S'60s'
p6496
asS'1528'
p6497
(lp6498
S'60s'
p6499
asS'1529'
p6500
(lp6501
S'60s'
p6502
asS'1258'
p6503
(lp6504
S'90s'
p6505
asS'1259'
p6506
(lp6507
S'90s'
p6508
asS'308'
p6509
(lp6510
S'60s'
p6511
asS'309'
p6512
(lp6513
S'60s'
p6514
asS'300'
p6515
(lp6516
S'90s'
p6517
asS'301'
p6518
(lp6519
S'60s'
p6520
asS'302'
p6521
(lp6522
S'60s'
p6523
asS'303'
p6524
(lp6525
S'60s'
p6526
asS'304'
p6527
(lp6528
S'60s'
p6529
asS'305'
p6530
(lp6531
S'90s'
p6532
asS'306'
p6533
(lp6534
S'60s'
p6535
asS'307'
p6536
(lp6537
S'60s'
p6538
asS'2254'
p6539
(lp6540
S'90s'
p6541
asS'2978'
p6542
(lp6543
S'90s'
p6544
asS'2979'
p6545
(lp6546
S'90s'
p6547
asS'1655'
p6548
(lp6549
S'90s'
p6550
asS'2475'
p6551
(lp6552
S'80s'
p6553
asS'2474'
p6554
(lp6555
S'80s'
p6556
asS'1105'
p6557
(lp6558
S'90s'
p6559
asS'2974'
p6560
(lp6561
S'90s'
p6562
asS'2975'
p6563
(lp6564
S'90s'
p6565
asS'1446'
p6566
(lp6567
S'90s'
p6568
asS'473'
p6569
(lp6570
S'60s'
p6571
asS'2479'
p6572
(lp6573
S'80s'
p6574
asS'2478'
p6575
(lp6576
S'80s'
p6577
asS'623'
p6578
(lp6579
S'90s'
p6580
asS'470'
p6581
(lp6582
S'60s'
p6583
asS'2990'
p6584
(lp6585
S'90s'
p6586
asS'2358'
p6587
(lp6588
S'70s'
p6589
asS'2359'
p6590
(lp6591
S'70s'
p6592
asS'2352'
p6593
(lp6594
S'70s'
p6595
asS'2353'
p6596
(lp6597
S'70s'
p6598
asS'2350'
p6599
(lp6600
S'70s'
p6601
asS'2351'
p6602
(lp6603
S'80s'
p6604
asS'2356'
p6605
(lp6606
S'70s'
p6607
asS'2357'
p6608
(lp6609
S'70s'
p6610
asS'2354'
p6611
(lp6612
S'70s'
p6613
asS'2355'
p6614
(lp6615
S'70s'
p6616
asS'2991'
p6617
(lp6618
S'90s'
p6619
asS'1898'
p6620
(lp6621
S'80s'
p6622
asS'1899'
p6623
(lp6624
S'80s'
p6625
asS'1894'
p6626
(lp6627
S'80s'
p6628
asS'1895'
p6629
(lp6630
S'80s'
p6631
asS'1896'
p6632
(lp6633
S'90s'
p6634
asS'1897'
p6635
(lp6636
S'80s'
p6637
asS'1890'
p6638
(lp6639
S'70s'
p6640
asS'476'
p6641
(lp6642
S'60s'
p6643
asS'1892'
p6644
(lp6645
S'80s'
p6646
asS'1893'
p6647
(lp6648
S'80s'
p6649
asS'2136'
p6650
(lp6651
S'70s'
p6652
asS'2137'
p6653
(lp6654
S'70s'
p6655
asS'2134'
p6656
(lp6657
S'70s'
p6658
asS'2135'
p6659
(lp6660
S'70s'
p6661
asS'2132'
p6662
(lp6663
S'90s'
p6664
asS'2133'
p6665
(lp6666
S'70s'
p6667
asS'2130'
p6668
(lp6669
S'70s'
p6670
asS'2131'
p6671
(lp6672
S'70s'
p6673
asS'951'
p6674
(lp6675
S'90s'
p6676
asS'950'
p6677
(lp6678
S'90s'
p6679
asS'953'
p6680
(lp6681
S'90s'
p6682
asS'952'
p6683
(lp6684
S'90s'
p6685
asS'955'
p6686
(lp6687
S'90s'
p6688
asS'954'
p6689
(lp6690
S'90s'
p6691
asS'2138'
p6692
(lp6693
S'70s'
p6694
asS'2139'
p6695
(lp6696
S'70s'
p6697
asS'1442'
p6698
(lp6699
S'90s'
p6700
asS'477'
p6701
(lp6702
S'60s'
p6703
asS'2648'
p6704
(lp6705
S'70s'
p6706
asS'2649'
p6707
(lp6708
S'80s'
p6709
asS'2640'
p6710
(lp6711
S'70s'
p6712
asS'2641'
p6713
(lp6714
S'70s'
p6715
asS'2642'
p6716
(lp6717
S'70s'
p6718
asS'2643'
p6719
(lp6720
S'70s'
p6721
asS'2644'
p6722
(lp6723
S'70s'
p6724
asS'2645'
p6725
(lp6726
S'70s'
p6727
asS'2646'
p6728
(lp6729
S'70s'
p6730
asS'2647'
p6731
(lp6732
S'70s'
p6733
asS'2002'
p6734
(lp6735
S'90s'
p6736
asS'2003'
p6737
(lp6738
S'70s'
p6739
asS'2000'
p6740
(lp6741
S'90s'
p6742
asS'2001'
p6743
(lp6744
S'90s'
p6745
asS'2006'
p6746
(lp6747
S'70s'
p6748
asS'2007'
p6749
(lp6750
S'70s'
p6751
asS'2004'
p6752
(lp6753
S'70s'
p6754
asS'2005'
p6755
(lp6756
S'70s'
p6757
asS'2008'
p6758
(lp6759
S'90s'
p6760
asS'2009'
p6761
(lp6762
S'90s'
p6763
asS'1263'
p6764
(lp6765
S'90s'
p6766
asS'1262'
p6767
(lp6768
S'90s'
p6769
asS'2176'
p6770
(lp6771
S'90s'
p6772
asS'1261'
p6773
(lp6774
S'90s'
p6775
asS'2177'
p6776
(lp6777
S'90s'
p6778
asS'2910'
p6779
(lp6780
S'70s'
p6781
asS'2911'
p6782
(lp6783
S'70s'
p6784
asS'1799'
p6785
(lp6786
S'70s'
p6787
asS'2913'
p6788
(lp6789
S'70s'
p6790
asS'2914'
p6791
(lp6792
S'70s'
p6793
asS'2915'
p6794
(lp6795
S'90s'
p6796
asS'719'
p6797
(lp6798
S'70s'
p6799
asS'718'
p6800
(lp6801
S'70s'
p6802
asS'717'
p6803
(lp6804
S'70s'
p6805
asS'716'
p6806
(lp6807
S'70s'
p6808
asS'1791'
p6809
(lp6810
S'70s'
p6811
asS'714'
p6812
(lp6813
S'70s'
p6814
asS'1797'
p6815
(lp6816
S'70s'
p6817
asS'1796'
p6818
(lp6819
S'70s'
p6820
asS'711'
p6821
(lp6822
S'70s'
p6823
asS'710'
p6824
(lp6825
S'70s'
p6826
asS'1265'
p6827
(lp6828
S'90s'
p6829
asS'1264'
p6830
(lp6831
S'90s'
p6832
asS'917'
p6833
(lp6834
S'90s'
p6835
asS'1069'
p6836
(lp6837
S'90s'
p6838
asS'1068'
p6839
(lp6840
S'90s'
p6841
asS'916'
p6842
(lp6843
S'90s'
p6844
asS'1061'
p6845
(lp6846
S'90s'
p6847
asS'1060'
p6848
(lp6849
S'60s'
p6850
asS'1063'
p6851
(lp6852
S'90s'
p6853
asS'1062'
p6854
(lp6855
S'90s'
p6856
asS'1065'
p6857
(lp6858
S'90s'
p6859
asS'1064'
p6860
(lp6861
S'90s'
p6862
asS'1067'
p6863
(lp6864
S'90s'
p6865
asS'1066'
p6866
(lp6867
S'90s'
p6868
asS'1669'
p6869
(lp6870
S'90s'
p6871
asS'1668'
p6872
(lp6873
S'90s'
p6874
asS'1667'
p6875
(lp6876
S'90s'
p6877
asS'1666'
p6878
(lp6879
S'90s'
p6880
asS'1665'
p6881
(lp6882
S'90s'
p6883
asS'1664'
p6884
(lp6885
S'90s'
p6886
asS'1663'
p6887
(lp6888
S'90s'
p6889
asS'1662'
p6890
(lp6891
S'90s'
p6892
asS'1661'
p6893
(lp6894
S'90s'
p6895
asS'1660'
p6896
(lp6897
S'90s'
p6898
asS'591'
p6899
(lp6900
S'90s'
p6901
asS'590'
p6902
(lp6903
S'90s'
p6904
asS'593'
p6905
(lp6906
S'90s'
p6907
asS'592'
p6908
(lp6909
S'90s'
p6910
asS'595'
p6911
(lp6912
S'90s'
p6913
asS'594'
p6914
(lp6915
S'90s'
p6916
asS'597'
p6917
(lp6918
S'90s'
p6919
asS'596'
p6920
(lp6921
S'90s'
p6922
asS'599'
p6923
(lp6924
S'80s'
p6925
asS'598'
p6926
(lp6927
S'90s'
p6928
asS'1089'
p6929
(lp6930
S'90s'
p6931
asS'1088'
p6932
(lp6933
S'90s'
p6934
asS'2828'
p6935
(lp6936
S'90s'
p6937
asS'2829'
p6938
(lp6939
S'90s'
p6940
asS'2824'
p6941
(lp6942
S'90s'
p6943
asS'2825'
p6944
(lp6945
S'90s'
p6946
asS'2826'
p6947
(lp6948
S'90s'
p6949
asS'2827'
p6950
(lp6951
S'90s'
p6952
asS'2820'
p6953
(lp6954
S'90s'
p6955
asS'2821'
p6956
(lp6957
S'90s'
p6958
asS'2822'
p6959
(lp6960
S'90s'
p6961
asS'2823'
p6962
(lp6963
S'80s'
p6964
asS'1409'
p6965
(lp6966
S'60s'
p6967
asS'1408'
p6968
(lp6969
S'60s'
p6970
asS'1403'
p6971
(lp6972
S'80s'
p6973
asS'1402'
p6974
(lp6975
S'90s'
p6976
asS'1401'
p6977
(lp6978
S'90s'
p6979
asS'1400'
p6980
(lp6981
S'90s'
p6982
asS'1407'
p6983
(lp6984
S'90s'
p6985
asS'1406'
p6986
(lp6987
S'90s'
p6988
asS'1405'
p6989
(lp6990
S'90s'
p6991
asS'1404'
p6992
(lp6993
S'90s'
p6994
asS'692'
p6995
(lp6996
S'60s'
p6997
asS'449'
p6998
(lp6999
S'90s'
p7000
asS'448'
p7001
(lp7002
S'90s'
p7003
asS'1339'
p7004
(lp7005
S'70s'
p7006
asS'1338'
p7007
(lp7008
S'90s'
p7009
asS'693'
p7010
(lp7011
S'60s'
p7012
asS'443'
p7013
(lp7014
S'90s'
p7015
asS'1334'
p7016
(lp7017
S'70s'
p7018
asS'1337'
p7019
(lp7020
S'70s'
p7021
asS'440'
p7022
(lp7023
S'90s'
p7024
asS'1331'
p7025
(lp7026
S'70s'
p7027
asS'690'
p7028
(lp7029
S'60s'
p7030
asS'445'
p7031
(lp7032
S'60s'
p7033
asS'1332'
p7034
(lp7035
S'70s'
p7036
asS'691'
p7037
(lp7038
S'60s'
p7039
asS'696'
p7040
(lp7041
S'60s'
p7042
asS'697'
p7043
(lp7044
S'60s'
p7045
asS'39'
p7046
(lp7047
S'70s'
p7048
asS'38'
p7049
(lp7050
S'70s'
p7051
asS'694'
p7052
(lp7053
S'60s'
p7054
asS'33'
p7055
(lp7056
S'70s'
p7057
asS'32'
p7058
(lp7059
S'70s'
p7060
asS'31'
p7061
(lp7062
S'70s'
p7063
asS'30'
p7064
(lp7065
S'70s'
p7066
asS'37'
p7067
(lp7068
S'70s'
p7069
asS'36'
p7070
(lp7071
S'70s'
p7072
asS'35'
p7073
(lp7074
S'70s'
p7075
asS'34'
p7076
(lp7077
S'70s'
p7078
asS'1537'
p7079
(lp7080
S'60s'
p7081
asS'1240'
p7082
(lp7083
S'80s'
p7084
asS'1535'
p7085
(lp7086
S'70s'
p7087
asS'1534'
p7088
(lp7089
S'80s'
p7090
asS'1533'
p7091
(lp7092
S'60s'
p7093
asS'1532'
p7094
(lp7095
S'60s'
p7096
asS'1531'
p7097
(lp7098
S'60s'
p7099
asS'1530'
p7100
(lp7101
S'60s'
p7102
asS'1249'
p7103
(lp7104
S'90s'
p7105
asS'1248'
p7106
(lp7107
S'60s'
p7108
asS'1539'
p7109
(lp7110
S'60s'
p7111
asS'1538'
p7112
(lp7113
S'60s'
p7114
asS'339'
p7115
(lp7116
S'70s'
p7117
asS'338'
p7118
(lp7119
S'70s'
p7120
asS'335'
p7121
(lp7122
S'80s'
p7123
asS'334'
p7124
(lp7125
S'70s'
p7126
asS'337'
p7127
(lp7128
S'70s'
p7129
asS'336'
p7130
(lp7131
S'70s'
p7132
asS'331'
p7133
(lp7134
S'80s'
p7135
asS'330'
p7136
(lp7137
S'70s'
p7138
asS'333'
p7139
(lp7140
S'70s'
p7141
asS'332'
p7142
(lp7143
S'70s'
p7144
asS'543'
p7145
(lp7146
S'80s'
p7147
asS'1085'
p7148
(lp7149
S'90s'
p7150
asS'1464'
p7151
(lp7152
S'90s'
p7153
asS'1462'
p7154
(lp7155
S'90s'
p7156
asS'1101'
p7157
(lp7158
S'90s'
p7159
asS'152'
p7160
(lp7161
S'90s'
p7162
asS'1991'
p7163
(lp7164
S'90s'
p7165
asS'2345'
p7166
(lp7167
S'70s'
p7168
asS'2344'
p7169
(lp7170
S'70s'
p7171
asS'2347'
p7172
(lp7173
S'70s'
p7174
asS'2346'
p7175
(lp7176
S'70s'
p7177
asS'2341'
p7178
(lp7179
S'70s'
p7180
asS'2340'
p7181
(lp7182
S'90s'
p7183
asS'2343'
p7184
(lp7185
S'70s'
p7186
asS'2342'
p7187
(lp7188
S'70s'
p7189
asS'2349'
p7190
(lp7191
S'90s'
p7192
asS'2348'
p7193
(lp7194
S'70s'
p7195
asS'1350'
p7196
(lp7197
S'70s'
p7198
asS'1889'
p7199
(lp7200
S'80s'
p7201
asS'1888'
p7202
(lp7203
S'80s'
p7204
asS'1887'
p7205
(lp7206
S'80s'
p7207
asS'1886'
p7208
(lp7209
S'80s'
p7210
asS'1885'
p7211
(lp7212
S'80s'
p7213
asS'1884'
p7214
(lp7215
S'80s'
p7216
asS'1883'
p7217
(lp7218
S'80s'
p7219
asS'1882'
p7220
(lp7221
S'90s'
p7222
asS'1881'
p7223
(lp7224
S'80s'
p7225
asS'1880'
p7226
(lp7227
S'80s'
p7228
asS'2121'
p7229
(lp7230
S'60s'
p7231
asS'2120'
p7232
(lp7233
S'60s'
p7234
asS'2123'
p7235
(lp7236
S'70s'
p7237
asS'2122'
p7238
(lp7239
S'70s'
p7240
asS'2125'
p7241
(lp7242
S'90s'
p7243
asS'2124'
p7244
(lp7245
S'70s'
p7246
asS'948'
p7247
(lp7248
S'90s'
p7249
asS'2126'
p7250
(lp7251
S'90s'
p7252
asS'2129'
p7253
(lp7254
S'70s'
p7255
asS'2128'
p7256
(lp7257
S'70s'
p7258
asS'944'
p7259
(lp7260
S'90s'
p7261
asS'945'
p7262
(lp7263
S'90s'
p7264
asS'942'
p7265
(lp7266
S'70s'
p7267
asS'943'
p7268
(lp7269
S'90s'
p7270
asS'940'
p7271
(lp7272
S'70s'
p7273
asS'941'
p7274
(lp7275
S'70s'
p7276
asS'2659'
p7277
(lp7278
S'70s'
p7279
asS'2658'
p7280
(lp7281
S'70s'
p7282
asS'2653'
p7283
(lp7284
S'90s'
p7285
asS'2652'
p7286
(lp7287
S'70s'
p7288
asS'2651'
p7289
(lp7290
S'60s'
p7291
asS'2650'
p7292
(lp7293
S'80s'
p7294
asS'2657'
p7295
(lp7296
S'70s'
p7297
asS'2656'
p7298
(lp7299
S'70s'
p7300
asS'2655'
p7301
(lp7302
S'70s'
p7303
asS'2654'
p7304
(lp7305
S'70s'
p7306
asS'133'
p7307
(lp7308
S'90s'
p7309
asS'132'
p7310
(lp7311
S'90s'
p7312
asS'131'
p7313
(lp7314
S'90s'
p7315
asS'130'
p7316
(lp7317
S'90s'
p7318
asS'137'
p7319
(lp7320
S'90s'
p7321
asS'136'
p7322
(lp7323
S'90s'
p7324
asS'135'
p7325
(lp7326
S'90s'
p7327
asS'134'
p7328
(lp7329
S'80s'
p7330
asS'139'
p7331
(lp7332
S'90s'
p7333
asS'138'
p7334
(lp7335
S'90s'
p7336
asS'2019'
p7337
(lp7338
S'90s'
p7339
asS'2018'
p7340
(lp7341
S'90s'
p7342
asS'2015'
p7343
(lp7344
S'90s'
p7345
asS'2014'
p7346
(lp7347
S'90s'
p7348
asS'2017'
p7349
(lp7350
S'90s'
p7351
asS'2016'
p7352
(lp7353
S'90s'
p7354
asS'2011'
p7355
(lp7356
S'90s'
p7357
asS'2010'
p7358
(lp7359
S'90s'
p7360
asS'2013'
p7361
(lp7362
S'90s'
p7363
asS'182'
p7364
(lp7365
S'90s'
p7366
asS'2847'
p7367
(lp7368
S'90s'
p7369
asS'158'
p7370
(lp7371
S'90s'
p7372
asS'2903'
p7373
(lp7374
S'60s'
p7375
asS'2902'
p7376
(lp7377
S'60s'
p7378
asS'2901'
p7379
(lp7380
S'60s'
p7381
asS'2900'
p7382
(lp7383
S'60s'
p7384
asS'708'
p7385
(lp7386
S'70s'
p7387
asS'709'
p7388
(lp7389
S'70s'
p7390
asS'2905'
p7391
(lp7392
S'60s'
p7393
asS'2904'
p7394
(lp7395
S'90s'
p7396
asS'704'
p7397
(lp7398
S'90s'
p7399
asS'705'
p7400
(lp7401
S'70s'
p7402
asS'706'
p7403
(lp7404
S'70s'
p7405
asS'707'
p7406
(lp7407
S'70s'
p7408
asS'700'
p7409
(lp7410
S'60s'
p7411
asS'701'
p7412
(lp7413
S'60s'
p7414
asS'702'
p7415
(lp7416
S'70s'
p7417
asS'703'
p7418
(lp7419
S'70s'
p7420
asS'88'
p7421
(lp7422
S'80s'
p7423
asS'89'
p7424
(lp7425
S'80s'
p7426
asS'82'
p7427
(lp7428
S'70s'
p7429
asS'83'
p7430
(lp7431
S'80s'
p7432
asS'80'
p7433
(lp7434
S'60s'
p7435
asS'81'
p7436
(lp7437
S'80s'
p7438
asS'86'
p7439
(lp7440
S'80s'
p7441
asS'87'
p7442
(lp7443
S'80s'
p7444
asS'84'
p7445
(lp7446
S'80s'
p7447
asS'85'
p7448
(lp7449
S'80s'
p7450
asS'1658'
p7451
(lp7452
S'90s'
p7453
asS'1659'
p7454
(lp7455
S'90s'
p7456
asS'2487'
p7457
(lp7458
S'90s'
p7459
asS'1652'
p7460
(lp7461
S'60s'
p7462
asS'410'
p7463
(lp7464
S'90s'
p7465
asS'1650'
p7466
(lp7467
S'90s'
p7468
asS'1651'
p7469
(lp7470
S'90s'
p7471
asS'1656'
p7472
(lp7473
S'90s'
p7474
asS'1657'
p7475
(lp7476
S'90s'
p7477
asS'1654'
p7478
(lp7479
S'90s'
p7480
asS'411'
p7481
(lp7482
S'90s'
p7483
asS'586'
p7484
(lp7485
S'90s'
p7486
asS'587'
p7487
(lp7488
S'90s'
p7489
asS'584'
p7490
(lp7491
S'90s'
p7492
asS'585'
p7493
(lp7494
S'90s'
p7495
asS'582'
p7496
(lp7497
S'90s'
p7498
asS'583'
p7499
(lp7500
S'90s'
p7501
asS'580'
p7502
(lp7503
S'90s'
p7504
asS'581'
p7505
(lp7506
S'90s'
p7507
asS'1984'
p7508
(lp7509
S'90s'
p7510
asS'588'
p7511
(lp7512
S'90s'
p7513
asS'589'
p7514
(lp7515
S'90s'
p7516
asS'1633'
p7517
(lp7518
S'90s'
p7519
asS'2839'
p7520
(lp7521
S'90s'
p7522
asS'2838'
p7523
(lp7524
S'60s'
p7525
asS'2837'
p7526
(lp7527
S'90s'
p7528
asS'1982'
p7529
(lp7530
S'90s'
p7531
asS'2835'
p7532
(lp7533
S'90s'
p7534
asS'149'
p7535
(lp7536
S'90s'
p7537
asS'2833'
p7538
(lp7539
S'90s'
p7540
asS'2832'
p7541
(lp7542
S'90s'
p7543
asS'2831'
p7544
(lp7545
S'60s'
p7546
asS'1983'
p7547
(lp7548
S'90s'
p7549
asS'1436'
p7550
(lp7551
S'80s'
p7552
asS'1437'
p7553
(lp7554
S'90s'
p7555
asS'1434'
p7556
(lp7557
S'90s'
p7558
asS'1435'
p7559
(lp7560
S'90s'
p7561
asS'1432'
p7562
(lp7563
S'90s'
p7564
asS'1433'
p7565
(lp7566
S'90s'
p7567
asS'1430'
p7568
(lp7569
S'90s'
p7570
asS'1431'
p7571
(lp7572
S'90s'
p7573
asS'418'
p7574
(lp7575
S'90s'
p7576
asS'1981'
p7577
(lp7578
S'90s'
p7579
asS'1438'
p7580
(lp7581
S'90s'
p7582
asS'1439'
p7583
(lp7584
S'90s'
p7585
asS'1260'
p7586
(lp7587
S'90s'
p7588
asS'1541'
p7589
(lp7590
S'90s'
p7591
asS'458'
p7592
(lp7593
S'60s'
p7594
asS'1349'
p7595
(lp7596
S'70s'
p7597
asS'1340'
p7598
(lp7599
S'60s'
p7600
asS'451'
p7601
(lp7602
S'90s'
p7603
asS'1342'
p7604
(lp7605
S'60s'
p7606
asS'453'
p7607
(lp7608
S'60s'
p7609
asS'454'
p7610
(lp7611
S'60s'
p7612
asS'455'
p7613
(lp7614
S'60s'
p7615
asS'456'
p7616
(lp7617
S'60s'
p7618
asS'1347'
p7619
(lp7620
S'70s'
p7621
asS'1082'
p7622
(lp7623
S'90s'
p7624
asS'1266'
p7625
(lp7626
S'90s'
p7627
asS'656'
p7628
(lp7629
S'70s'
p7630
asS'1503'
p7631
(lp7632
S'60s'
p7633
asS'654'
p7634
(lp7635
S'60s'
p7636
asS'655'
p7637
(lp7638
S'60s'
p7639
asS'1506'
p7640
(lp7641
S'60s'
p7642
asS'1507'
p7643
(lp7644
S'60s'
p7645
asS'1504'
p7646
(lp7647
S'60s'
p7648
asS'1505'
p7649
(lp7650
S'60s'
p7651
asS'1508'
p7652
(lp7653
S'60s'
p7654
asS'1509'
p7655
(lp7656
S'60s'
p7657
asS'658'
p7658
(lp7659
S'60s'
p7660
asS'659'
p7661
(lp7662
S'60s'
p7663
asS'2127'
p7664
(lp7665
S'90s'
p7666
asS'949'
p7667
(lp7668
S'90s'
p7669
asS'946'
p7670
(lp7671
S'90s'
p7672
asS'947'
p7673
(lp7674
S'90s'
p7675
asS'631'
p7676
(lp7677
S'90s'
p7678
asS'2815'
p7679
(lp7680
S'90s'
p7681
asS'2814'
p7682
(lp7683
S'90s'
p7684
asS'1081'
p7685
(lp7686
S'90s'
p7687
asS'322'
p7688
(lp7689
S'70s'
p7690
asS'323'
p7691
(lp7692
S'70s'
p7693
asS'320'
p7694
(lp7695
S'70s'
p7696
asS'321'
p7697
(lp7698
S'70s'
p7699
asS'326'
p7700
(lp7701
S'70s'
p7702
asS'327'
p7703
(lp7704
S'70s'
p7705
asS'324'
p7706
(lp7707
S'70s'
p7708
asS'325'
p7709
(lp7710
S'70s'
p7711
asS'328'
p7712
(lp7713
S'70s'
p7714
asS'329'
p7715
(lp7716
S'70s'
p7717
asS'2819'
p7718
(lp7719
S'90s'
p7720
asS'565'
p7721
(lp7722
S'90s'
p7723
asS'2330'
p7724
(lp7725
S'60s'
p7726
asS'2331'
p7727
(lp7728
S'60s'
p7729
asS'2332'
p7730
(lp7731
S'90s'
p7732
asS'2333'
p7733
(lp7734
S'60s'
p7735
asS'2334'
p7736
(lp7737
S'80s'
p7738
asS'2335'
p7739
(lp7740
S'60s'
p7741
asS'2336'
p7742
(lp7743
S'60s'
p7744
asS'2337'
p7745
(lp7746
S'60s'
p7747
asS'2338'
p7748
(lp7749
S'70s'
p7750
asS'2339'
p7751
(lp7752
S'70s'
p7753
asS'1341'
p7754
(lp7755
S'90s'
p7756
asS'1995'
p7757
(lp7758
S'90s'
p7759
asS'2958'
p7760
(lp7761
S'90s'
p7762
asS'2959'
p7763
(lp7764
S'90s'
p7765
asS'1592'
p7766
(lp7767
S'60s'
p7768
asS'2488'
p7769
(lp7770
S'90s'
p7771
asS'2489'
p7772
(lp7773
S'90s'
p7774
asS'2486'
p7775
(lp7776
S'90s'
p7777
asS'2950'
p7778
(lp7779
S'80s'
p7780
asS'2484'
p7781
(lp7782
S'90s'
p7783
asS'2485'
p7784
(lp7785
S'90s'
p7786
asS'2482'
p7787
(lp7788
S'80s'
p7789
asS'2483'
p7790
(lp7791
S'70s'
p7792
asS'2480'
p7793
(lp7794
S'80s'
p7795
asS'2481'
p7796
(lp7797
S'80s'
p7798
asS'2248'
p7799
(lp7800
S'90s'
p7801
asS'2249'
p7802
(lp7803
S'90s'
p7804
asS'2244'
p7805
(lp7806
S'60s'
p7807
asS'2245'
p7808
(lp7809
S'90s'
p7810
asS'2246'
p7811
(lp7812
S'90s'
p7813
asS'2247'
p7814
(lp7815
S'90s'
p7816
asS'2240'
p7817
(lp7818
S'60s'
p7819
asS'2241'
p7820
(lp7821
S'70s'
p7822
asS'2242'
p7823
(lp7824
S'60s'
p7825
asS'2243'
p7826
(lp7827
S'60s'
p7828
asS'2464'
p7829
(lp7830
S'80s'
p7831
asS'2465'
p7832
(lp7833
S'80s'
p7834
asS'2466'
p7835
(lp7836
S'80s'
p7837
asS'2467'
p7838
(lp7839
S'80s'
p7840
asS'991'
p7841
(lp7842
S'60s'
p7843
asS'990'
p7844
(lp7845
S'60s'
p7846
asS'2462'
p7847
(lp7848
S'80s'
p7849
asS'2463'
p7850
(lp7851
S'80s'
p7852
asS'2468'
p7853
(lp7854
S'80s'
p7855
asS'2469'
p7856
(lp7857
S'80s'
p7858
asS'120'
p7859
(lp7860
S'90s'
p7861
asS'121'
p7862
(lp7863
S'90s'
p7864
asS'122'
p7865
(lp7866
S'90s'
p7867
asS'123'
p7868
(lp7869
S'90s'
p7870
asS'124'
p7871
(lp7872
S'70s'
p7873
asS'125'
p7874
(lp7875
S'90s'
p7876
asS'126'
p7877
(lp7878
S'70s'
p7879
asS'127'
p7880
(lp7881
S'90s'
p7882
asS'128'
p7883
(lp7884
S'90s'
p7885
asS'129'
p7886
(lp7887
S'60s'
p7888
asS'2068'
p7889
(lp7890
S'60s'
p7891
asS'2069'
p7892
(lp7893
S'60s'
p7894
asS'2798'
p7895
(lp7896
S'90s'
p7897
asS'2799'
p7898
(lp7899
S'90s'
p7900
asS'2060'
p7901
(lp7902
S'60s'
p7903
asS'2061'
p7904
(lp7905
S'60s'
p7906
asS'2062'
p7907
(lp7908
S'60s'
p7909
asS'2063'
p7910
(lp7911
S'60s'
p7912
asS'2064'
p7913
(lp7914
S'60s'
p7915
asS'2065'
p7916
(lp7917
S'80s'
p7918
asS'2066'
p7919
(lp7920
S'60s'
p7921
asS'2067'
p7922
(lp7923
S'60s'
p7924
asS'1086'
p7925
(lp7926
S'90s'
p7927
asS'2666'
p7928
(lp7929
S'70s'
p7930
asS'2667'
p7931
(lp7932
S'70s'
p7933
asS'2664'
p7934
(lp7935
S'70s'
p7936
asS'2665'
p7937
(lp7938
S'70s'
p7939
asS'2662'
p7940
(lp7941
S'70s'
p7942
asS'2663'
p7943
(lp7944
S'70s'
p7945
asS'2660'
p7946
(lp7947
S'70s'
p7948
asS'2661'
p7949
(lp7950
S'70s'
p7951
asS'722'
p7952
(lp7953
S'60s'
p7954
asS'2668'
p7955
(lp7956
S'70s'
p7957
asS'2669'
p7958
(lp7959
S'70s'
p7960
asS'2938'
p7961
(lp7962
S'80s'
p7963
asS'2939'
p7964
(lp7965
S'80s'
p7966
asS'2936'
p7967
(lp7968
S'80s'
p7969
asS'2937'
p7970
(lp7971
S'80s'
p7972
asS'2934'
p7973
(lp7974
S'90s'
p7975
asS'2935'
p7976
(lp7977
S'70s'
p7978
asS'2932'
p7979
(lp7980
S'60s'
p7981
asS'2933'
p7982
(lp7983
S'70s'
p7984
asS'2930'
p7985
(lp7986
S'70s'
p7987
asS'2931'
p7988
(lp7989
S'70s'
p7990
asS'1645'
p7991
(lp7992
S'90s'
p7993
asS'1644'
p7994
(lp7995
S'90s'
p7996
asS'1647'
p7997
(lp7998
S'90s'
p7999
asS'1646'
p8000
(lp8001
S'90s'
p8002
asS'1641'
p8003
(lp8004
S'90s'
p8005
asS'1640'
p8006
(lp8007
S'90s'
p8008
asS'1643'
p8009
(lp8010
S'90s'
p8011
asS'1642'
p8012
(lp8013
S'90s'
p8014
asS'1396'
p8015
(lp8016
S'90s'
p8017
asS'1835'
p8018
(lp8019
S'90s'
p8020
asS'1649'
p8021
(lp8022
S'90s'
p8023
asS'1648'
p8024
(lp8025
S'90s'
p8026
asS'1742'
p8027
(lp8028
S'90s'
p8029
asS'729'
p8030
(lp8031
S'60s'
p8032
asS'2012'
p8033
(lp8034
S'90s'
p8035
asS'579'
p8036
(lp8037
S'90s'
p8038
asS'578'
p8039
(lp8040
S'90s'
p8041
asS'573'
p8042
(lp8043
S'90s'
p8044
asS'572'
p8045
(lp8046
S'90s'
p8047
asS'571'
p8048
(lp8049
S'90s'
p8050
asS'570'
p8051
(lp8052
S'90s'
p8053
asS'577'
p8054
(lp8055
S'90s'
p8056
asS'576'
p8057
(lp8058
S'90s'
p8059
asS'575'
p8060
(lp8061
S'90s'
p8062
asS'574'
p8063
(lp8064
S'90s'
p8065
asS'2808'
p8066
(lp8067
S'90s'
p8068
asS'2809'
p8069
(lp8070
S'90s'
p8071
asS'2802'
p8072
(lp8073
S'90s'
p8074
asS'2803'
p8075
(lp8076
S'90s'
p8077
asS'2800'
p8078
(lp8079
S'90s'
p8080
asS'2801'
p8081
(lp8082
S'90s'
p8083
asS'2806'
p8084
(lp8085
S'70s'
p8086
asS'2807'
p8087
(lp8088
S'90s'
p8089
asS'2804'
p8090
(lp8091
S'90s'
p8092
asS'600'
p8093
(lp8094
S'90s'
p8095
asS'1421'
p8096
(lp8097
S'90s'
p8098
asS'1420'
p8099
(lp8100
S'70s'
p8101
asS'1423'
p8102
(lp8103
S'90s'
p8104
asS'1422'
p8105
(lp8106
S'90s'
p8107
asS'1425'
p8108
(lp8109
S'80s'
p8110
asS'1424'
p8111
(lp8112
S'90s'
p8113
asS'1427'
p8114
(lp8115
S'90s'
p8116
asS'2155'
p8117
(lp8118
S'80s'
p8119
asS'1429'
p8120
(lp8121
S'90s'
p8122
asS'1428'
p8123
(lp8124
S'90s'
p8125
asS'2404'
p8126
(lp8127
S'60s'
p8128
asS'731'
p8129
(lp8130
S'60s'
p8131
asS'730'
p8132
(lp8133
S'60s'
p8134
asS'733'
p8135
(lp8136
S'90s'
p8137
asS'732'
p8138
(lp8139
S'60s'
p8140
asS'735'
p8141
(lp8142
S'90s'
p8143
asS'734'
p8144
(lp8145
S'60s'
p8146
asS'737'
p8147
(lp8148
S'60s'
p8149
asS'736'
p8150
(lp8151
S'60s'
p8152
asS'739'
p8153
(lp8154
S'60s'
p8155
asS'2150'
p8156
(lp8157
S'70s'
p8158
asS'1084'
p8159
(lp8160
S'90s'
p8161
asS'2151'
p8162
(lp8163
S'70s'
p8164
asS'1359'
p8165
(lp8166
S'70s'
p8167
asS'1358'
p8168
(lp8169
S'60s'
p8170
asS'469'
p8171
(lp8172
S'90s'
p8173
asS'2152'
p8174
(lp8175
S'70s'
p8176
asS'1353'
p8177
(lp8178
S'70s'
p8179
asS'1352'
p8180
(lp8181
S'70s'
p8182
asS'1351'
p8183
(lp8184
S'70s'
p8185
asS'2153'
p8186
(lp8187
S'70s'
p8188
asS'1357'
p8189
(lp8190
S'70s'
p8191
asS'460'
p8192
(lp8193
S'60s'
p8194
asS'463'
p8195
(lp8196
S'60s'
p8197
asS'462'
p8198
(lp8199
S'60s'
p8200
asS'2225'
p8201
(lp8202
S'90s'
p8203
asS'1273'
p8204
(lp8205
S'90s'
p8206
asS'2158'
p8207
(lp8208
S'60s'
p8209
asS'2159'
p8210
(lp8211
S'80s'
p8212
asS'1519'
p8213
(lp8214
S'60s'
p8215
asS'1518'
p8216
(lp8217
S'60s'
p8218
asS'1515'
p8219
(lp8220
S'60s'
p8221
asS'1514'
p8222
(lp8223
S'60s'
p8224
asS'1517'
p8225
(lp8226
S'60s'
p8227
asS'2409'
p8228
(lp8229
S'60s'
p8230
asS'1511'
p8231
(lp8232
S'60s'
p8233
asS'1510'
p8234
(lp8235
S'60s'
p8236
asS'1513'
p8237
(lp8238
S'60s'
p8239
asS'1512'
p8240
(lp8241
S'60s'
p8242
asS'723'
p8243
(lp8244
S'60s'
p8245
asS'617'
p8246
(lp8247
S'90s'
p8248
asS'357'
p8249
(lp8250
S'70s'
p8251
asS'356'
p8252
(lp8253
S'70s'
p8254
asS'355'
p8255
(lp8256
S'70s'
p8257
asS'354'
p8258
(lp8259
S'70s'
p8260
asS'353'
p8261
(lp8262
S'70s'
p8263
asS'352'
p8264
(lp8265
S'70s'
p8266
asS'351'
p8267
(lp8268
S'70s'
p8269
asS'350'
p8270
(lp8271
S'70s'
p8272
asS'359'
p8273
(lp8274
S'80s'
p8275
asS'358'
p8276
(lp8277
S'80s'
p8278
asS'1033'
p8279
(lp8280
S'90s'
p8281
asS'2323'
p8282
(lp8283
S'90s'
p8284
asS'2322'
p8285
(lp8286
S'60s'
p8287
asS'2321'
p8288
(lp8289
S'60s'
p8290
asS'2320'
p8291
(lp8292
S'60s'
p8293
asS'2327'
p8294
(lp8295
S'60s'
p8296
asS'2326'
p8297
(lp8298
S'60s'
p8299
asS'2325'
p8300
(lp8301
S'60s'
p8302
asS'2324'
p8303
(lp8304
S'60s'
p8305
asS'2329'
p8306
(lp8307
S'60s'
p8308
asS'2328'
p8309
(lp8310
S'60s'
p8311
asS'1113'
p8312
(lp8313
S'90s'
p8314
asS'289'
p8315
(lp8316
S'60s'
p8317
asS'288'
p8318
(lp8319
S'60s'
p8320
asS'1112'
p8321
(lp8322
S'80s'
p8323
asS'2830'
p8324
(lp8325
S'90s'
p8326
asS'281'
p8327
(lp8328
S'70s'
p8329
asS'280'
p8330
(lp8331
S'70s'
p8332
asS'283'
p8333
(lp8334
S'70s'
p8335
asS'282'
p8336
(lp8337
S'70s'
p8338
asS'285'
p8339
(lp8340
S'60s'
p8341
asS'284'
p8342
(lp8343
S'70s'
p8344
asS'287'
p8345
(lp8346
S'60s'
p8347
asS'286'
p8348
(lp8349
S'60s'
p8350
asS'1441'
p8351
(lp8352
S'90s'
p8353
asS'1116'
p8354
(lp8355
S'60s'
p8356
asS'263'
p8357
(lp8358
S'70s'
p8359
asS'262'
p8360
(lp8361
S'80s'
p8362
asS'261'
p8363
(lp8364
S'70s'
p8365
asS'260'
p8366
(lp8367
S'70s'
p8368
asS'267'
p8369
(lp8370
S'70s'
p8371
asS'266'
p8372
(lp8373
S'70s'
p8374
asS'265'
p8375
(lp8376
S'70s'
p8377
asS'264'
p8378
(lp8379
S'70s'
p8380
asS'1031'
p8381
(lp8382
S'90s'
p8383
asS'269'
p8384
(lp8385
S'70s'
p8386
asS'268'
p8387
(lp8388
S'80s'
p8389
asS'1290'
p8390
(lp8391
S'80s'
p8392
asS'2499'
p8393
(lp8394
S'90s'
p8395
asS'2498'
p8396
(lp8397
S'90s'
p8398
asS'1291'
p8399
(lp8400
S'70s'
p8401
asS'2491'
p8402
(lp8403
S'90s'
p8404
asS'2490'
p8405
(lp8406
S'90s'
p8407
asS'2493'
p8408
(lp8409
S'90s'
p8410
asS'2492'
p8411
(lp8412
S'90s'
p8413
asS'2495'
p8414
(lp8415
S'90s'
p8416
asS'2192'
p8417
(lp8418
S'90s'
p8419
asS'2497'
p8420
(lp8421
S'90s'
p8422
asS'1297'
p8423
(lp8424
S'70s'
p8425
asS'2193'
p8426
(lp8427
S'90s'
p8428
asS'1566'
p8429
(lp8430
S'80s'
p8431
asS'2259'
p8432
(lp8433
S'90s'
p8434
asS'2258'
p8435
(lp8436
S'90s'
p8437
asS'2257'
p8438
(lp8439
S'90s'
p8440
asS'2256'
p8441
(lp8442
S'90s'
p8443
asS'2255'
p8444
(lp8445
S'90s'
p8446
asS'1295'
p8447
(lp8448
S'70s'
p8449
asS'2253'
p8450
(lp8451
S'90s'
p8452
asS'2252'
p8453
(lp8454
S'60s'
p8455
asS'2251'
p8456
(lp8457
S'90s'
p8458
asS'2250'
p8459
(lp8460
S'70s'
p8461
asS'2477'
p8462
(lp8463
S'80s'
p8464
asS'2476'
p8465
(lp8466
S'90s'
p8467
asS'988'
p8468
(lp8469
S'60s'
p8470
asS'989'
p8471
(lp8472
S'60s'
p8473
asS'2473'
p8474
(lp8475
S'80s'
p8476
asS'2472'
p8477
(lp8478
S'70s'
p8479
asS'2471'
p8480
(lp8481
S'80s'
p8482
asS'2470'
p8483
(lp8484
S'80s'
p8485
asS'982'
p8486
(lp8487
S'80s'
p8488
asS'983'
p8489
(lp8490
S'80s'
p8491
asS'980'
p8492
(lp8493
S'80s'
p8494
asS'981'
p8495
(lp8496
S'80s'
p8497
asS'986'
p8498
(lp8499
S'60s'
p8500
asS'987'
p8501
(lp8502
S'90s'
p8503
asS'984'
p8504
(lp8505
S'80s'
p8506
asS'985'
p8507
(lp8508
S'60s'
p8509
asS'115'
p8510
(lp8511
S'70s'
p8512
asS'114'
p8513
(lp8514
S'70s'
p8515
asS'117'
p8516
(lp8517
S'90s'
p8518
asS'116'
p8519
(lp8520
S'70s'
p8521
asS'111'
p8522
(lp8523
S'70s'
p8524
asS'110'
p8525
(lp8526
S'70s'
p8527
asS'113'
p8528
(lp8529
S'70s'
p8530
asS'112'
p8531
(lp8532
S'70s'
p8533
asS'119'
p8534
(lp8535
S'90s'
p8536
asS'118'
p8537
(lp8538
S'70s'
p8539
asS'2785'
p8540
(lp8541
S'90s'
p8542
asS'2784'
p8543
(lp8544
S'90s'
p8545
asS'2787'
p8546
(lp8547
S'90s'
p8548
asS'2786'
p8549
(lp8550
S'90s'
p8551
asS'2781'
p8552
(lp8553
S'90s'
p8554
asS'2780'
p8555
(lp8556
S'80s'
p8557
asS'2783'
p8558
(lp8559
S'90s'
p8560
asS'2782'
p8561
(lp8562
S'90s'
p8563
asS'2789'
p8564
(lp8565
S'90s'
p8566
asS'2788'
p8567
(lp8568
S'90s'
p8569
asS'2079'
p8570
(lp8571
S'70s'
p8572
asS'2078'
p8573
(lp8574
S'70s'
p8575
asS'2073'
p8576
(lp8577
S'60s'
p8578
asS'2072'
p8579
(lp8580
S'60s'
p8581
asS'2071'
p8582
(lp8583
S'60s'
p8584
asS'2070'
p8585
(lp8586
S'60s'
p8587
asS'2077'
p8588
(lp8589
S'70s'
p8590
asS'2076'
p8591
(lp8592
S'70s'
p8593
asS'2075'
p8594
(lp8595
S'70s'
p8596
asS'2074'
p8597
(lp8598
S'70s'
p8599
asS'2671'
p8600
(lp8601
S'70s'
p8602
asS'2670'
p8603
(lp8604
S'70s'
p8605
asS'2673'
p8606
(lp8607
S'70s'
p8608
asS'2672'
p8609
(lp8610
S'70s'
p8611
asS'2675'
p8612
(lp8613
S'70s'
p8614
asS'2674'
p8615
(lp8616
S'70s'
p8617
asS'2677'
p8618
(lp8619
S'60s'
p8620
asS'2676'
p8621
(lp8622
S'70s'
p8623
asS'2679'
p8624
(lp8625
S'60s'
p8626
asS'2678'
p8627
(lp8628
S'60s'
p8629
asS'2929'
p8630
(lp8631
S'70s'
p8632
asS'2928'
p8633
(lp8634
S'70s'
p8635
asS'2921'
p8636
(lp8637
S'70s'
p8638
asS'2920'
p8639
(lp8640
S'90s'
p8641
asS'2923'
p8642
(lp8643
S'70s'
p8644
asS'2922'
p8645
(lp8646
S'70s'
p8647
asS'2925'
p8648
(lp8649
S'70s'
p8650
asS'2924'
p8651
(lp8652
S'70s'
p8653
asS'2927'
p8654
(lp8655
S'70s'
p8656
asS'2926'
p8657
(lp8658
S'70s'
p8659
asS'2907'
p8660
(lp8661
S'70s'
p8662
asS'2906'
p8663
(lp8664
S'70s'
p8665
asS'1630'
p8666
(lp8667
S'90s'
p8668
asS'1631'
p8669
(lp8670
S'90s'
p8671
asS'1632'
p8672
(lp8673
S'90s'
p8674
asS'484'
p8675
(lp8676
S'70s'
p8677
asS'1634'
p8678
(lp8679
S'90s'
p8680
asS'1635'
p8681
(lp8682
S'90s'
p8683
asS'1636'
p8684
(lp8685
S'90s'
p8686
asS'1637'
p8687
(lp8688
S'90s'
p8689
asS'1638'
p8690
(lp8691
S'90s'
p8692
asS'1639'
p8693
(lp8694
S'90s'
p8695
asS'1988'
p8696
(lp8697
S'60s'
p8698
asS'1989'
p8699
(lp8700
S'80s'
p8701
asS'2909'
p8702
(lp8703
S'70s'
p8704
asS'568'
p8705
(lp8706
S'90s'
p8707
asS'569'
p8708
(lp8709
S'90s'
p8710
asS'2817'
p8711
(lp8712
S'90s'
p8713
asS'2816'
p8714
(lp8715
S'90s'
p8716
asS'2811'
p8717
(lp8718
S'90s'
p8719
asS'2810'
p8720
(lp8721
S'60s'
p8722
asS'2813'
p8723
(lp8724
S'90s'
p8725
asS'2812'
p8726
(lp8727
S'90s'
p8728
asS'560'
p8729
(lp8730
S'90s'
p8731
asS'561'
p8732
(lp8733
S'90s'
p8734
asS'562'
p8735
(lp8736
S'90s'
p8737
asS'563'
p8738
(lp8739
S'60s'
p8740
asS'564'
p8741
(lp8742
S'90s'
p8743
asS'2818'
p8744
(lp8745
S'90s'
p8746
asS'566'
p8747
(lp8748
S'90s'
p8749
asS'567'
p8750
(lp8751
S'90s'
p8752
asS'1188'
p8753
(lp8754
S'70s'
p8755
asS'1189'
p8756
(lp8757
S'80s'
p8758
asS'1186'
p8759
(lp8760
S'70s'
p8761
asS'1187'
p8762
(lp8763
S'70s'
p8764
asS'1184'
p8765
(lp8766
S'70s'
p8767
asS'1185'
p8768
(lp8769
S'80s'
p8770
asS'1182'
p8771
(lp8772
S'60s'
p8773
asS'1183'
p8774
(lp8775
S'60s'
p8776
asS'1180'
p8777
(lp8778
S'60s'
p8779
asS'1181'
p8780
(lp8781
S'60s'
p8782
asS'726'
p8783
(lp8784
S'60s'
p8785
asS'727'
p8786
(lp8787
S'60s'
p8788
asS'724'
p8789
(lp8790
S'70s'
p8791
asS'725'
p8792
(lp8793
S'60s'
p8794
asS'1748'
p8795
(lp8796
S'60s'
p8797
asS'1749'
p8798
(lp8799
S'60s'
p8800
asS'720'
p8801
(lp8802
S'70s'
p8803
asS'721'
p8804
(lp8805
S'60s'
p8806
asS'1744'
p8807
(lp8808
S'60s'
p8809
asS'1745'
p8810
(lp8811
S'60s'
p8812
asS'1746'
p8813
(lp8814
S'60s'
p8815
asS'1747'
p8816
(lp8817
S'60s'
p8818
asS'1740'
p8819
(lp8820
S'60s'
p8821
asS'1741'
p8822
(lp8823
S'60s'
p8824
asS'728'
p8825
(lp8826
S'60s'
p8827
asS'1743'
p8828
(lp8829
S'70s'
p8830
asS'1164'
p8831
(lp8832
S'60s'
p8833
asS'1165'
p8834
(lp8835
S'60s'
p8836
asS'1166'
p8837
(lp8838
S'90s'
p8839
asS'1167'
p8840
(lp8841
S'60s'
p8842
asS'1160'
p8843
(lp8844
S'60s'
p8845
asS'1161'
p8846
(lp8847
S'60s'
p8848
asS'1162'
p8849
(lp8850
S'60s'
p8851
asS'1163'
p8852
(lp8853
S'60s'
p8854
asS'1168'
p8855
(lp8856
S'60s'
p8857
asS'1169'
p8858
(lp8859
S'60s'
p8860
asS'472'
p8861
(lp8862
S'60s'
p8863
asS'48'
p8864
(lp8865
S'70s'
p8866
asS'49'
p8867
(lp8868
S'70s'
p8869
asS'46'
p8870
(lp8871
S'90s'
p8872
asS'47'
p8873
(lp8874
S'70s'
p8875
asS'44'
p8876
(lp8877
S'70s'
p8878
asS'45'
p8879
(lp8880
S'70s'
p8881
asS'42'
p8882
(lp8883
S'70s'
p8884
asS'43'
p8885
(lp8886
S'70s'
p8887
asS'40'
p8888
(lp8889
S'70s'
p8890
asS'41'
p8891
(lp8892
S'70s'
p8893
asS'1568'
p8894
(lp8895
S'70s'
p8896
asS'1569'
p8897
(lp8898
S'70s'
p8899
asS'1298'
p8900
(lp8901
S'90s'
p8902
asS'1299'
p8903
(lp8904
S'70s'
p8905
asS'1292'
p8906
(lp8907
S'70s'
p8908
asS'1293'
p8909
(lp8910
S'70s'
p8911
asS'1562'
p8912
(lp8913
S'70s'
p8914
asS'1563'
p8915
(lp8916
S'70s'
p8917
asS'1296'
p8918
(lp8919
S'70s'
p8920
asS'1565'
p8921
(lp8922
S'70s'
p8923
asS'1294'
p8924
(lp8925
S'70s'
p8926
asS'1567'
p8927
(lp8928
S'70s'
p8929
asS'1713'
p8930
(lp8931
S'90s'
p8932
asS'474'
p8933
(lp8934
S'60s'
p8935
asS'796'
p8936
(lp8937
S'90s'
p8938
asS'475'
p8939
(lp8940
S'60s'
p8941
asS'1711'
p8942
(lp8943
S'90s'
p8944
asS'613'
p8945
(lp8946
S'90s'
p8947
asS'1710'
p8948
(lp8949
S'90s'
p8950
asS'1717'
p8951
(lp8952
S'90s'
p8953
asS'1716'
p8954
(lp8955
S'90s'
p8956
asS'1715'
p8957
(lp8958
S'90s'
p8959
asS'2032'
p8960
(lp8961
S'90s'
p8962
asS'790'
p8963
(lp8964
S'90s'
p8965
asS'1366'
p8966
(lp8967
S'70s'
p8968
asS'1367'
p8969
(lp8970
S'70s'
p8971
asS'1364'
p8972
(lp8973
S'70s'
p8974
asS'1365'
p8975
(lp8976
S'70s'
p8977
asS'1362'
p8978
(lp8979
S'70s'
p8980
asS'1363'
p8981
(lp8982
S'70s'
p8983
asS'1360'
p8984
(lp8985
S'70s'
p8986
asS'1361'
p8987
(lp8988
S'70s'
p8989
asS'478'
p8990
(lp8991
S'70s'
p8992
asS'479'
p8993
(lp8994
S'70s'
p8995
asS'1368'
p8996
(lp8997
S'70s'
p8998
asS'1369'
p8999
(lp9000
S'80s'
p9001
ass.