(dp1
S'X'
(dp2
S'1200'
p3
(lp4
S'dance_lvl_2'
p5
asS'1866'
p6
(lp7
S'dance_lvl_3'
p8
asS'2030'
p9
(lp10
S'dance_lvl_3'
p11
asS'344'
p12
(lp13
S'dance_lvl_2'
p14
asS'345'
p15
(lp16
S'dance_lvl_2'
p17
asS'346'
p18
(lp19
S'dance_lvl_2'
p20
asS'347'
p21
(lp22
S'dance_lvl_2'
p23
asS'340'
p24
(lp25
S'dance_lvl_2'
p26
asS'341'
p27
(lp28
S'dance_lvl_2'
p29
asS'342'
p30
(lp31
S'dance_lvl_2'
p32
asS'343'
p33
(lp34
S'dance_lvl_2'
p35
asS'2918'
p36
(lp37
S'dance_lvl_2'
p38
asS'348'
p39
(lp40
S'dance_lvl_2'
p41
asS'349'
p42
(lp43
S'dance_lvl_2'
p44
asS'2919'
p45
(lp46
S'dance_lvl_2'
p47
asS'1653'
p48
(lp49
S'dance_lvl_3'
p50
asS'2318'
p51
(lp52
S'dance_lvl_1'
p53
asS'2319'
p54
(lp55
S'dance_lvl_1'
p56
asS'2316'
p57
(lp58
S'dance_lvl_2'
p59
asS'2317'
p60
(lp61
S'dance_lvl_1'
p62
asS'2314'
p63
(lp64
S'dance_lvl_1'
p65
asS'2315'
p66
(lp67
S'dance_lvl_1'
p68
asS'2312'
p69
(lp70
S'dance_lvl_1'
p71
asS'2313'
p72
(lp73
S'dance_lvl_1'
p74
asS'2310'
p75
(lp76
S'dance_lvl_1'
p77
asS'2311'
p78
(lp79
S'dance_lvl_1'
p80
asS'298'
p81
(lp82
S'dance_lvl_1'
p83
asS'299'
p84
(lp85
S'dance_lvl_1'
p86
asS'296'
p87
(lp88
S'dance_lvl_1'
p89
asS'297'
p90
(lp91
S'dance_lvl_1'
p92
asS'294'
p93
(lp94
S'dance_lvl_1'
p95
asS'295'
p96
(lp97
S'dance_lvl_3'
p98
asS'292'
p99
(lp100
S'dance_lvl_2'
p101
asS'293'
p102
(lp103
S'dance_lvl_1'
p104
asS'290'
p105
(lp106
S'dance_lvl_1'
p107
asS'291'
p108
(lp109
S'dance_lvl_3'
p110
asS'2147'
p111
(lp112
S'dance_lvl_2'
p113
asS'270'
p114
(lp115
S'dance_lvl_1'
p116
asS'271'
p117
(lp118
S'dance_lvl_3'
p119
asS'272'
p120
(lp121
S'dance_lvl_3'
p122
asS'273'
p123
(lp124
S'dance_lvl_3'
p125
asS'274'
p126
(lp127
S'dance_lvl_3'
p128
asS'275'
p129
(lp130
S'dance_lvl_3'
p131
asS'276'
p132
(lp133
S'dance_lvl_3'
p134
asS'277'
p135
(lp136
S'dance_lvl_3'
p137
asS'278'
p138
(lp139
S'dance_lvl_3'
p140
asS'279'
p141
(lp142
S'dance_lvl_3'
p143
asS'2146'
p144
(lp145
S'dance_lvl_2'
p146
asS'2268'
p147
(lp148
S'dance_lvl_3'
p149
asS'2269'
p150
(lp151
S'dance_lvl_1'
p152
asS'2262'
p153
(lp154
S'dance_lvl_2'
p155
asS'2263'
p156
(lp157
S'dance_lvl_2'
p158
asS'2260'
p159
(lp160
S'dance_lvl_2'
p161
asS'2261'
p162
(lp163
S'dance_lvl_2'
p164
asS'2266'
p165
(lp166
S'dance_lvl_3'
p167
asS'2267'
p168
(lp169
S'dance_lvl_3'
p170
asS'2264'
p171
(lp172
S'dance_lvl_3'
p173
asS'2265'
p174
(lp175
S'dance_lvl_3'
p176
asS'2442'
p177
(lp178
S'dance_lvl_3'
p179
asS'2443'
p180
(lp181
S'dance_lvl_3'
p182
asS'2440'
p183
(lp184
S'dance_lvl_1'
p185
asS'2441'
p186
(lp187
S'dance_lvl_2'
p188
asS'2446'
p189
(lp190
S'dance_lvl_1'
p191
asS'2447'
p192
(lp193
S'dance_lvl_2'
p194
asS'2444'
p195
(lp196
S'dance_lvl_2'
p197
asS'1004'
p198
(lp199
S'dance_lvl_1'
p200
asS'2448'
p201
(lp202
S'dance_lvl_2'
p203
asS'2449'
p204
(lp205
S'dance_lvl_2'
p206
asS'108'
p207
(lp208
S'dance_lvl_1'
p209
asS'109'
p210
(lp211
S'dance_lvl_2'
p212
asS'1370'
p213
(lp214
S'dance_lvl_3'
p215
asS'102'
p216
(lp217
S'dance_lvl_3'
p218
asS'103'
p219
(lp220
S'dance_lvl_1'
p221
asS'100'
p222
(lp223
S'dance_lvl_1'
p224
asS'101'
p225
(lp226
S'dance_lvl_2'
p227
asS'106'
p228
(lp229
S'dance_lvl_1'
p230
asS'107'
p231
(lp232
S'dance_lvl_1'
p233
asS'104'
p234
(lp235
S'dance_lvl_1'
p236
asS'105'
p237
(lp238
S'dance_lvl_1'
p239
asS'2046'
p240
(lp241
S'dance_lvl_3'
p242
asS'2047'
p243
(lp244
S'dance_lvl_3'
p245
asS'2044'
p246
(lp247
S'dance_lvl_3'
p248
asS'2045'
p249
(lp250
S'dance_lvl_3'
p251
asS'2042'
p252
(lp253
S'dance_lvl_3'
p254
asS'2043'
p255
(lp256
S'dance_lvl_3'
p257
asS'2040'
p258
(lp259
S'dance_lvl_1'
p260
asS'2041'
p261
(lp262
S'dance_lvl_1'
p263
asS'2048'
p264
(lp265
S'dance_lvl_3'
p266
asS'2049'
p267
(lp268
S'dance_lvl_1'
p269
asS'1373'
p270
(lp271
S'dance_lvl_3'
p272
asS'1372'
p273
(lp274
S'dance_lvl_3'
p275
asS'2737'
p276
(lp277
S'dance_lvl_3'
p278
asS'2836'
p279
(lp280
S'dance_lvl_2'
p281
asS'1784'
p282
(lp283
S'dance_lvl_2'
p284
asS'1375'
p285
(lp286
S'dance_lvl_3'
p287
asS'2688'
p288
(lp289
S'dance_lvl_1'
p290
asS'2689'
p291
(lp292
S'dance_lvl_1'
p293
asS'2684'
p294
(lp295
S'dance_lvl_1'
p296
asS'2685'
p297
(lp298
S'dance_lvl_2'
p299
asS'2686'
p300
(lp301
S'dance_lvl_1'
p302
asS'2687'
p303
(lp304
S'dance_lvl_1'
p305
asS'2680'
p306
(lp307
S'dance_lvl_1'
p308
asS'2681'
p309
(lp310
S'dance_lvl_1'
p311
asS'2682'
p312
(lp313
S'dance_lvl_1'
p314
asS'2683'
p315
(lp316
S'dance_lvl_1'
p317
asS'1374'
p318
(lp319
S'dance_lvl_3'
p320
asS'99'
p321
(lp322
S'dance_lvl_1'
p323
asS'98'
p324
(lp325
S'dance_lvl_1'
p326
asS'91'
p327
(lp328
S'dance_lvl_2'
p329
asS'90'
p330
(lp331
S'dance_lvl_3'
p332
asS'93'
p333
(lp334
S'dance_lvl_3'
p335
asS'92'
p336
(lp337
S'dance_lvl_3'
p338
asS'95'
p339
(lp340
S'dance_lvl_1'
p341
asS'94'
p342
(lp343
S'dance_lvl_1'
p344
asS'97'
p345
(lp346
S'dance_lvl_1'
p347
asS'96'
p348
(lp349
S'dance_lvl_1'
p350
asS'1623'
p351
(lp352
S'dance_lvl_3'
p353
asS'1622'
p354
(lp355
S'dance_lvl_3'
p356
asS'1621'
p357
(lp358
S'dance_lvl_3'
p359
asS'1620'
p360
(lp361
S'dance_lvl_3'
p362
asS'1627'
p363
(lp364
S'dance_lvl_3'
p365
asS'1626'
p366
(lp367
S'dance_lvl_3'
p368
asS'1997'
p369
(lp370
S'dance_lvl_1'
p371
asS'1624'
p372
(lp373
S'dance_lvl_2'
p374
asS'1999'
p375
(lp376
S'dance_lvl_3'
p377
asS'1998'
p378
(lp379
S'dance_lvl_3'
p380
asS'1629'
p381
(lp382
S'dance_lvl_1'
p383
asS'1377'
p384
(lp385
S'dance_lvl_3'
p386
asS'2860'
p387
(lp388
S'dance_lvl_2'
p389
asS'2861'
p390
(lp391
S'dance_lvl_2'
p392
asS'2862'
p393
(lp394
S'dance_lvl_2'
p395
asS'2863'
p396
(lp397
S'dance_lvl_2'
p398
asS'559'
p399
(lp400
S'dance_lvl_1'
p401
asS'558'
p402
(lp403
S'dance_lvl_1'
p404
asS'2866'
p405
(lp406
S'dance_lvl_3'
p407
asS'2867'
p408
(lp409
S'dance_lvl_2'
p410
asS'555'
p411
(lp412
S'dance_lvl_1'
p413
asS'554'
p414
(lp415
S'dance_lvl_1'
p416
asS'557'
p417
(lp418
S'dance_lvl_1'
p419
asS'556'
p420
(lp421
S'dance_lvl_1'
p422
asS'551'
p423
(lp424
S'dance_lvl_1'
p425
asS'550'
p426
(lp427
S'dance_lvl_1'
p428
asS'553'
p429
(lp430
S'dance_lvl_1'
p431
asS'552'
p432
(lp433
S'dance_lvl_1'
p434
asS'2744'
p435
(lp436
S'dance_lvl_3'
p437
asS'1199'
p438
(lp439
S'dance_lvl_2'
p440
asS'1198'
p441
(lp442
S'dance_lvl_2'
p443
asS'1191'
p444
(lp445
S'dance_lvl_2'
p446
asS'1190'
p447
(lp448
S'dance_lvl_2'
p449
asS'1193'
p450
(lp451
S'dance_lvl_2'
p452
asS'1192'
p453
(lp454
S'dance_lvl_2'
p455
asS'1195'
p456
(lp457
S'dance_lvl_1'
p458
asS'1194'
p459
(lp460
S'dance_lvl_1'
p461
asS'1197'
p462
(lp463
S'dance_lvl_2'
p464
asS'1196'
p465
(lp466
S'dance_lvl_2'
p467
asS'1759'
p468
(lp469
S'dance_lvl_2'
p470
asS'1758'
p471
(lp472
S'dance_lvl_2'
p473
asS'1757'
p474
(lp475
S'dance_lvl_2'
p476
asS'1756'
p477
(lp478
S'dance_lvl_3'
p479
asS'1755'
p480
(lp481
S'dance_lvl_2'
p482
asS'1754'
p483
(lp484
S'dance_lvl_2'
p485
asS'1753'
p486
(lp487
S'dance_lvl_2'
p488
asS'1752'
p489
(lp490
S'dance_lvl_2'
p491
asS'1751'
p492
(lp493
S'dance_lvl_2'
p494
asS'1750'
p495
(lp496
S'dance_lvl_2'
p497
asS'1177'
p498
(lp499
S'dance_lvl_1'
p500
asS'1176'
p501
(lp502
S'dance_lvl_1'
p503
asS'1175'
p504
(lp505
S'dance_lvl_1'
p506
asS'1174'
p507
(lp508
S'dance_lvl_1'
p509
asS'1173'
p510
(lp511
S'dance_lvl_1'
p512
asS'1172'
p513
(lp514
S'dance_lvl_1'
p515
asS'1171'
p516
(lp517
S'dance_lvl_1'
p518
asS'1170'
p519
(lp520
S'dance_lvl_2'
p521
asS'1179'
p522
(lp523
S'dance_lvl_1'
p524
asS'1178'
p525
(lp526
S'dance_lvl_1'
p527
asS'511'
p528
(lp529
S'dance_lvl_3'
p530
asS'510'
p531
(lp532
S'dance_lvl_3'
p533
asS'1005'
p534
(lp535
S'dance_lvl_2'
p536
asS'644'
p537
(lp538
S'dance_lvl_3'
p539
asS'1285'
p540
(lp541
S'dance_lvl_1'
p542
asS'1284'
p543
(lp544
S'dance_lvl_1'
p545
asS'1287'
p546
(lp547
S'dance_lvl_1'
p548
asS'1286'
p549
(lp550
S'dance_lvl_1'
p551
asS'1281'
p552
(lp553
S'dance_lvl_1'
p554
asS'1280'
p555
(lp556
S'dance_lvl_2'
p557
asS'1283'
p558
(lp559
S'dance_lvl_1'
p560
asS'1282'
p561
(lp562
S'dance_lvl_2'
p563
asS'1003'
p564
(lp565
S'dance_lvl_1'
p566
asS'1289'
p567
(lp568
S'dance_lvl_1'
p569
asS'1288'
p570
(lp571
S'dance_lvl_1'
p572
asS'1002'
p573
(lp574
S'dance_lvl_1'
p575
asS'1579'
p576
(lp577
S'dance_lvl_1'
p578
asS'1578'
p579
(lp580
S'dance_lvl_1'
p581
asS'689'
p582
(lp583
S'dance_lvl_1'
p584
asS'688'
p585
(lp586
S'dance_lvl_1'
p587
asS'685'
p588
(lp589
S'dance_lvl_1'
p590
asS'684'
p591
(lp592
S'dance_lvl_1'
p593
asS'687'
p594
(lp595
S'dance_lvl_1'
p596
asS'686'
p597
(lp598
S'dance_lvl_1'
p599
asS'681'
p600
(lp601
S'dance_lvl_1'
p602
asS'680'
p603
(lp604
S'dance_lvl_1'
p605
asS'683'
p606
(lp607
S'dance_lvl_1'
p608
asS'682'
p609
(lp610
S'dance_lvl_1'
p611
asS'1348'
p612
(lp613
S'dance_lvl_2'
p614
asS'1226'
p615
(lp616
S'dance_lvl_1'
p617
asS'1240'
p618
(lp619
S'dance_lvl_3'
p620
asS'1225'
p621
(lp622
S'dance_lvl_3'
p623
asS'620'
p624
(lp625
S'dance_lvl_3'
p626
asS'1223'
p627
(lp628
S'dance_lvl_3'
p629
asS'1222'
p630
(lp631
S'dance_lvl_3'
p632
asS'2741'
p633
(lp634
S'dance_lvl_3'
p635
asS'1221'
p636
(lp637
S'dance_lvl_3'
p638
asS'2740'
p639
(lp640
S'dance_lvl_3'
p641
asS'1243'
p642
(lp643
S'dance_lvl_3'
p644
asS'1220'
p645
(lp646
S'dance_lvl_3'
p647
asS'2743'
p648
(lp649
S'dance_lvl_3'
p650
asS'407'
p651
(lp652
S'dance_lvl_3'
p653
asS'450'
p654
(lp655
S'dance_lvl_1'
p656
asS'405'
p657
(lp658
S'dance_lvl_3'
p659
asS'404'
p660
(lp661
S'dance_lvl_3'
p662
asS'403'
p663
(lp664
S'dance_lvl_3'
p665
asS'402'
p666
(lp667
S'dance_lvl_1'
p668
asS'401'
p669
(lp670
S'dance_lvl_1'
p671
asS'400'
p672
(lp673
S'dance_lvl_1'
p674
asS'1379'
p675
(lp676
S'dance_lvl_3'
p677
asS'1378'
p678
(lp679
S'dance_lvl_3'
p680
asS'1342'
p681
(lp682
S'dance_lvl_1'
p683
asS'409'
p684
(lp685
S'dance_lvl_2'
p686
asS'408'
p687
(lp688
S'dance_lvl_3'
p689
asS'1343'
p690
(lp691
S'dance_lvl_1'
p692
asS'2747'
p693
(lp694
S'dance_lvl_3'
p695
asS'1242'
p696
(lp697
S'dance_lvl_3'
p698
asS'1344'
p699
(lp700
S'dance_lvl_3'
p701
asS'2148'
p702
(lp703
S'dance_lvl_2'
p704
asS'455'
p705
(lp706
S'dance_lvl_1'
p707
asS'2749'
p708
(lp709
S'dance_lvl_3'
p710
asS'1346'
p711
(lp712
S'dance_lvl_1'
p713
asS'1347'
p714
(lp715
S'dance_lvl_2'
p716
asS'1245'
p717
(lp718
S'dance_lvl_3'
p719
asS'379'
p720
(lp721
S'dance_lvl_1'
p722
asS'378'
p723
(lp724
S'dance_lvl_1'
p725
asS'371'
p726
(lp727
S'dance_lvl_3'
p728
asS'370'
p729
(lp730
S'dance_lvl_3'
p731
asS'373'
p732
(lp733
S'dance_lvl_3'
p734
asS'372'
p735
(lp736
S'dance_lvl_3'
p737
asS'375'
p738
(lp739
S'dance_lvl_3'
p740
asS'374'
p741
(lp742
S'dance_lvl_3'
p743
asS'377'
p744
(lp745
S'dance_lvl_3'
p746
asS'376'
p747
(lp748
S'dance_lvl_3'
p749
asS'393'
p750
(lp751
S'dance_lvl_1'
p752
asS'392'
p753
(lp754
S'dance_lvl_1'
p755
asS'391'
p756
(lp757
S'dance_lvl_2'
p758
asS'390'
p759
(lp760
S'dance_lvl_1'
p761
asS'397'
p762
(lp763
S'dance_lvl_1'
p764
asS'396'
p765
(lp766
S'dance_lvl_1'
p767
asS'395'
p768
(lp769
S'dance_lvl_1'
p770
asS'394'
p771
(lp772
S'dance_lvl_1'
p773
asS'399'
p774
(lp775
S'dance_lvl_1'
p776
asS'398'
p777
(lp778
S'dance_lvl_1'
p779
asS'2309'
p780
(lp781
S'dance_lvl_1'
p782
asS'2308'
p783
(lp784
S'dance_lvl_1'
p785
asS'2301'
p786
(lp787
S'dance_lvl_1'
p788
asS'2300'
p789
(lp790
S'dance_lvl_1'
p791
asS'2303'
p792
(lp793
S'dance_lvl_1'
p794
asS'2302'
p795
(lp796
S'dance_lvl_1'
p797
asS'2305'
p798
(lp799
S'dance_lvl_2'
p800
asS'2304'
p801
(lp802
S'dance_lvl_1'
p803
asS'2307'
p804
(lp805
S'dance_lvl_1'
p806
asS'2306'
p807
(lp808
S'dance_lvl_1'
p809
asS'1246'
p810
(lp811
S'dance_lvl_3'
p812
asS'245'
p813
(lp814
S'dance_lvl_2'
p815
asS'244'
p816
(lp817
S'dance_lvl_2'
p818
asS'247'
p819
(lp820
S'dance_lvl_2'
p821
asS'246'
p822
(lp823
S'dance_lvl_2'
p824
asS'241'
p825
(lp826
S'dance_lvl_2'
p827
asS'240'
p828
(lp829
S'dance_lvl_1'
p830
asS'243'
p831
(lp832
S'dance_lvl_2'
p833
asS'242'
p834
(lp835
S'dance_lvl_2'
p836
asS'249'
p837
(lp838
S'dance_lvl_2'
p839
asS'248'
p840
(lp841
S'dance_lvl_3'
p842
asS'2275'
p843
(lp844
S'dance_lvl_3'
p845
asS'2274'
p846
(lp847
S'dance_lvl_3'
p848
asS'2277'
p849
(lp850
S'dance_lvl_1'
p851
asS'2276'
p852
(lp853
S'dance_lvl_1'
p854
asS'2271'
p855
(lp856
S'dance_lvl_3'
p857
asS'2270'
p858
(lp859
S'dance_lvl_1'
p860
asS'2273'
p861
(lp862
S'dance_lvl_3'
p863
asS'2272'
p864
(lp865
S'dance_lvl_3'
p866
asS'2279'
p867
(lp868
S'dance_lvl_1'
p869
asS'2278'
p870
(lp871
S'dance_lvl_3'
p872
asS'2154'
p873
(lp874
S'dance_lvl_3'
p875
asS'2459'
p876
(lp877
S'dance_lvl_3'
p878
asS'2458'
p879
(lp880
S'dance_lvl_1'
p881
asS'2156'
p882
(lp883
S'dance_lvl_3'
p884
asS'2455'
p885
(lp886
S'dance_lvl_2'
p887
asS'2454'
p888
(lp889
S'dance_lvl_2'
p890
asS'2457'
p891
(lp892
S'dance_lvl_3'
p893
asS'2456'
p894
(lp895
S'dance_lvl_3'
p896
asS'2451'
p897
(lp898
S'dance_lvl_2'
p899
asS'2450'
p900
(lp901
S'dance_lvl_2'
p902
asS'2453'
p903
(lp904
S'dance_lvl_2'
p905
asS'2452'
p906
(lp907
S'dance_lvl_2'
p908
asS'2155'
p909
(lp910
S'dance_lvl_3'
p911
asS'179'
p912
(lp913
S'dance_lvl_1'
p914
asS'178'
p915
(lp916
S'dance_lvl_1'
p917
asS'177'
p918
(lp919
S'dance_lvl_1'
p920
asS'176'
p921
(lp922
S'dance_lvl_1'
p923
asS'175'
p924
(lp925
S'dance_lvl_3'
p926
asS'174'
p927
(lp928
S'dance_lvl_1'
p929
asS'173'
p930
(lp931
S'dance_lvl_1'
p932
asS'172'
p933
(lp934
S'dance_lvl_3'
p935
asS'171'
p936
(lp937
S'dance_lvl_3'
p938
asS'170'
p939
(lp940
S'dance_lvl_3'
p941
asS'2051'
p942
(lp943
S'dance_lvl_3'
p944
asS'656'
p945
(lp946
S'dance_lvl_1'
p947
asS'2053'
p948
(lp949
S'dance_lvl_3'
p950
asS'1111'
p951
(lp952
S'dance_lvl_3'
p953
asS'2055'
p954
(lp955
S'dance_lvl_3'
p956
asS'2054'
p957
(lp958
S'dance_lvl_3'
p959
asS'2057'
p960
(lp961
S'dance_lvl_1'
p962
asS'657'
p963
(lp964
S'dance_lvl_3'
p965
asS'2059'
p966
(lp967
S'dance_lvl_1'
p968
asS'2058'
p969
(lp970
S'dance_lvl_3'
p971
asS'1500'
p972
(lp973
S'dance_lvl_1'
p974
asS'970'
p975
(lp976
S'dance_lvl_3'
p977
asS'1501'
p978
(lp979
S'dance_lvl_1'
p980
asS'1506'
p981
(lp982
S'dance_lvl_1'
p983
asS'1507'
p984
(lp985
S'dance_lvl_1'
p986
asS'1110'
p987
(lp988
S'dance_lvl_3'
p989
asS'1367'
p990
(lp991
S'dance_lvl_2'
p992
asS'650'
p993
(lp994
S'dance_lvl_3'
p995
asS'651'
p996
(lp997
S'dance_lvl_3'
p998
asS'2157'
p999
(lp1000
S'dance_lvl_3'
p1001
asS'2150'
p1002
(lp1003
S'dance_lvl_2'
p1004
asS'1977'
p1005
(lp1006
S'dance_lvl_2'
p1007
asS'2699'
p1008
(lp1009
S'dance_lvl_1'
p1010
asS'2698'
p1011
(lp1012
S'dance_lvl_1'
p1013
asS'2697'
p1014
(lp1015
S'dance_lvl_1'
p1016
asS'2696'
p1017
(lp1018
S'dance_lvl_1'
p1019
asS'2695'
p1020
(lp1021
S'dance_lvl_1'
p1022
asS'2694'
p1023
(lp1024
S'dance_lvl_1'
p1025
asS'2693'
p1026
(lp1027
S'dance_lvl_2'
p1028
asS'2692'
p1029
(lp1030
S'dance_lvl_1'
p1031
asS'2691'
p1032
(lp1033
S'dance_lvl_1'
p1034
asS'2690'
p1035
(lp1036
S'dance_lvl_1'
p1037
asS'1974'
p1038
(lp1039
S'dance_lvl_2'
p1040
asS'1973'
p1041
(lp1042
S'dance_lvl_2'
p1043
asS'1972'
p1044
(lp1045
S'dance_lvl_2'
p1046
asS'1607'
p1047
(lp1048
S'dance_lvl_3'
p1049
asS'1606'
p1050
(lp1051
S'dance_lvl_3'
p1052
asS'1362'
p1053
(lp1054
S'dance_lvl_2'
p1055
asS'1968'
p1056
(lp1057
S'dance_lvl_3'
p1058
asS'1969'
p1059
(lp1060
S'dance_lvl_2'
p1061
asS'1618'
p1062
(lp1063
S'dance_lvl_3'
p1064
asS'1619'
p1065
(lp1066
S'dance_lvl_3'
p1067
asS'1964'
p1068
(lp1069
S'dance_lvl_2'
p1070
asS'1965'
p1071
(lp1072
S'dance_lvl_2'
p1073
asS'1614'
p1074
(lp1075
S'dance_lvl_2'
p1076
asS'1615'
p1077
(lp1078
S'dance_lvl_2'
p1079
asS'1960'
p1080
(lp1081
S'dance_lvl_2'
p1082
asS'1613'
p1083
(lp1084
S'dance_lvl_3'
p1085
asS'1962'
p1086
(lp1087
S'dance_lvl_2'
p1088
asS'1611'
p1089
(lp1090
S'dance_lvl_2'
p1091
asS'1363'
p1092
(lp1093
S'dance_lvl_2'
p1094
asS'2873'
p1095
(lp1096
S'dance_lvl_1'
p1097
asS'2872'
p1098
(lp1099
S'dance_lvl_2'
p1100
asS'2871'
p1101
(lp1102
S'dance_lvl_2'
p1103
asS'2870'
p1104
(lp1105
S'dance_lvl_2'
p1106
asS'2877'
p1107
(lp1108
S'dance_lvl_2'
p1109
asS'2876'
p1110
(lp1111
S'dance_lvl_2'
p1112
asS'2875'
p1113
(lp1114
S'dance_lvl_2'
p1115
asS'2874'
p1116
(lp1117
S'dance_lvl_1'
p1118
asS'2153'
p1119
(lp1120
S'dance_lvl_2'
p1121
asS'2879'
p1122
(lp1123
S'dance_lvl_2'
p1124
asS'2878'
p1125
(lp1126
S'dance_lvl_2'
p1127
asS'2544'
p1128
(lp1129
S'dance_lvl_3'
p1130
asS'1768'
p1131
(lp1132
S'dance_lvl_2'
p1133
asS'1769'
p1134
(lp1135
S'dance_lvl_2'
p1136
asS'1762'
p1137
(lp1138
S'dance_lvl_2'
p1139
asS'1763'
p1140
(lp1141
S'dance_lvl_2'
p1142
asS'1760'
p1143
(lp1144
S'dance_lvl_2'
p1145
asS'1761'
p1146
(lp1147
S'dance_lvl_2'
p1148
asS'1766'
p1149
(lp1150
S'dance_lvl_2'
p1151
asS'1767'
p1152
(lp1153
S'dance_lvl_2'
p1154
asS'1764'
p1155
(lp1156
S'dance_lvl_2'
p1157
asS'1765'
p1158
(lp1159
S'dance_lvl_2'
p1160
asS'1142'
p1161
(lp1162
S'dance_lvl_2'
p1163
asS'1143'
p1164
(lp1165
S'dance_lvl_2'
p1166
asS'1140'
p1167
(lp1168
S'dance_lvl_2'
p1169
asS'1141'
p1170
(lp1171
S'dance_lvl_2'
p1172
asS'1146'
p1173
(lp1174
S'dance_lvl_2'
p1175
asS'1147'
p1176
(lp1177
S'dance_lvl_1'
p1178
asS'1144'
p1179
(lp1180
S'dance_lvl_2'
p1181
asS'1145'
p1182
(lp1183
S'dance_lvl_2'
p1184
asS'1148'
p1185
(lp1186
S'dance_lvl_1'
p1187
asS'1149'
p1188
(lp1189
S'dance_lvl_1'
p1190
asS'2967'
p1191
(lp1192
S'dance_lvl_1'
p1193
asS'769'
p1194
(lp1195
S'dance_lvl_1'
p1196
asS'692'
p1197
(lp1198
S'dance_lvl_1'
p1199
asS'1547'
p1200
(lp1201
S'dance_lvl_1'
p1202
asS'1544'
p1203
(lp1204
S'dance_lvl_1'
p1205
asS'1545'
p1206
(lp1207
S'dance_lvl_1'
p1208
asS'1542'
p1209
(lp1210
S'dance_lvl_1'
p1211
asS'1543'
p1212
(lp1213
S'dance_lvl_1'
p1214
asS'1540'
p1215
(lp1216
S'dance_lvl_1'
p1217
asS'1541'
p1218
(lp1219
S'dance_lvl_1'
p1220
asS'698'
p1221
(lp1222
S'dance_lvl_2'
p1223
asS'699'
p1224
(lp1225
S'dance_lvl_3'
p1226
asS'1548'
p1227
(lp1228
S'dance_lvl_2'
p1229
asS'1549'
p1230
(lp1231
S'dance_lvl_2'
p1232
asS'542'
p1233
(lp1234
S'dance_lvl_3'
p1235
asS'1780'
p1236
(lp1237
S'dance_lvl_2'
p1238
asS'540'
p1239
(lp1240
S'dance_lvl_3'
p1241
asS'541'
p1242
(lp1243
S'dance_lvl_3'
p1244
asS'546'
p1245
(lp1246
S'dance_lvl_1'
p1247
asS'547'
p1248
(lp1249
S'dance_lvl_1'
p1250
asS'544'
p1251
(lp1252
S'dance_lvl_3'
p1253
asS'545'
p1254
(lp1255
S'dance_lvl_1'
p1256
asS'548'
p1257
(lp1258
S'dance_lvl_1'
p1259
asS'549'
p1260
(lp1261
S'dance_lvl_1'
p1262
asS'760'
p1263
(lp1264
S'dance_lvl_3'
p1265
asS'761'
p1266
(lp1267
S'dance_lvl_3'
p1268
asS'766'
p1269
(lp1270
S'dance_lvl_1'
p1271
asS'767'
p1272
(lp1273
S'dance_lvl_1'
p1274
asS'1786'
p1275
(lp1276
S'dance_lvl_2'
p1277
asS'1787'
p1278
(lp1279
S'dance_lvl_2'
p1280
asS'414'
p1281
(lp1282
S'dance_lvl_2'
p1283
asS'415'
p1284
(lp1285
S'dance_lvl_2'
p1286
asS'416'
p1287
(lp1288
S'dance_lvl_2'
p1289
asS'417'
p1290
(lp1291
S'dance_lvl_2'
p1292
asS'410'
p1293
(lp1294
S'dance_lvl_2'
p1295
asS'1389'
p1296
(lp1297
S'dance_lvl_1'
p1298
asS'412'
p1299
(lp1300
S'dance_lvl_2'
p1301
asS'413'
p1302
(lp1303
S'dance_lvl_1'
p1304
asS'1384'
p1305
(lp1306
S'dance_lvl_1'
p1307
asS'1385'
p1308
(lp1309
S'dance_lvl_1'
p1310
asS'1386'
p1311
(lp1312
S'dance_lvl_1'
p1313
asS'1387'
p1314
(lp1315
S'dance_lvl_2'
p1316
asS'418'
p1317
(lp1318
S'dance_lvl_2'
p1319
asS'1381'
p1320
(lp1321
S'dance_lvl_1'
p1322
asS'1382'
p1323
(lp1324
S'dance_lvl_1'
p1325
asS'1383'
p1326
(lp1327
S'dance_lvl_1'
p1328
asS'1254'
p1329
(lp1330
S'dance_lvl_2'
p1331
asS'2445'
p1332
(lp1333
S'dance_lvl_2'
p1334
asS'368'
p1335
(lp1336
S'dance_lvl_1'
p1337
asS'369'
p1338
(lp1339
S'dance_lvl_3'
p1340
asS'366'
p1341
(lp1342
S'dance_lvl_3'
p1343
asS'367'
p1344
(lp1345
S'dance_lvl_3'
p1346
asS'364'
p1347
(lp1348
S'dance_lvl_3'
p1349
asS'365'
p1350
(lp1351
S'dance_lvl_2'
p1352
asS'362'
p1353
(lp1354
S'dance_lvl_3'
p1355
asS'363'
p1356
(lp1357
S'dance_lvl_2'
p1358
asS'360'
p1359
(lp1360
S'dance_lvl_3'
p1361
asS'361'
p1362
(lp1363
S'dance_lvl_3'
p1364
asS'2098'
p1365
(lp1366
S'dance_lvl_2'
p1367
asS'380'
p1368
(lp1369
S'dance_lvl_1'
p1370
asS'381'
p1371
(lp1372
S'dance_lvl_1'
p1373
asS'382'
p1374
(lp1375
S'dance_lvl_1'
p1376
asS'383'
p1377
(lp1378
S'dance_lvl_1'
p1379
asS'384'
p1380
(lp1381
S'dance_lvl_1'
p1382
asS'385'
p1383
(lp1384
S'dance_lvl_1'
p1385
asS'386'
p1386
(lp1387
S'dance_lvl_1'
p1388
asS'387'
p1389
(lp1390
S'dance_lvl_1'
p1391
asS'388'
p1392
(lp1393
S'dance_lvl_1'
p1394
asS'389'
p1395
(lp1396
S'dance_lvl_1'
p1397
asS'1253'
p1398
(lp1399
S'dance_lvl_2'
p1400
asS'1077'
p1401
(lp1402
S'dance_lvl_3'
p1403
asS'2190'
p1404
(lp1405
S'dance_lvl_1'
p1406
asS'2191'
p1407
(lp1408
S'dance_lvl_1'
p1409
asS'258'
p1410
(lp1411
S'dance_lvl_2'
p1412
asS'2193'
p1413
(lp1414
S'dance_lvl_1'
p1415
asS'2194'
p1416
(lp1417
S'dance_lvl_1'
p1418
asS'2195'
p1419
(lp1420
S'dance_lvl_1'
p1421
asS'2196'
p1422
(lp1423
S'dance_lvl_2'
p1424
asS'2197'
p1425
(lp1426
S'dance_lvl_1'
p1427
asS'252'
p1428
(lp1429
S'dance_lvl_2'
p1430
asS'253'
p1431
(lp1432
S'dance_lvl_2'
p1433
asS'250'
p1434
(lp1435
S'dance_lvl_2'
p1436
asS'251'
p1437
(lp1438
S'dance_lvl_1'
p1439
asS'256'
p1440
(lp1441
S'dance_lvl_3'
p1442
asS'257'
p1443
(lp1444
S'dance_lvl_2'
p1445
asS'254'
p1446
(lp1447
S'dance_lvl_3'
p1448
asS'255'
p1449
(lp1450
S'dance_lvl_2'
p1451
asS'2200'
p1452
(lp1453
S'dance_lvl_1'
p1454
asS'2201'
p1455
(lp1456
S'dance_lvl_1'
p1457
asS'2202'
p1458
(lp1459
S'dance_lvl_1'
p1460
asS'2203'
p1461
(lp1462
S'dance_lvl_1'
p1463
asS'2204'
p1464
(lp1465
S'dance_lvl_1'
p1466
asS'2205'
p1467
(lp1468
S'dance_lvl_1'
p1469
asS'2206'
p1470
(lp1471
S'dance_lvl_1'
p1472
asS'2207'
p1473
(lp1474
S'dance_lvl_1'
p1475
asS'2208'
p1476
(lp1477
S'dance_lvl_1'
p1478
asS'2209'
p1479
(lp1480
S'dance_lvl_1'
p1481
asS'1251'
p1482
(lp1483
S'dance_lvl_2'
p1484
asS'1679'
p1485
(lp1486
S'dance_lvl_2'
p1487
asS'2428'
p1488
(lp1489
S'dance_lvl_2'
p1490
asS'2429'
p1491
(lp1492
S'dance_lvl_1'
p1493
asS'2420'
p1494
(lp1495
S'dance_lvl_2'
p1496
asS'2421'
p1497
(lp1498
S'dance_lvl_2'
p1499
asS'2422'
p1500
(lp1501
S'dance_lvl_2'
p1502
asS'2423'
p1503
(lp1504
S'dance_lvl_2'
p1505
asS'2424'
p1506
(lp1507
S'dance_lvl_2'
p1508
asS'900'
p1509
(lp1510
S'dance_lvl_2'
p1511
asS'2426'
p1512
(lp1513
S'dance_lvl_3'
p1514
asS'2427'
p1515
(lp1516
S'dance_lvl_2'
p1517
asS'901'
p1518
(lp1519
S'dance_lvl_2'
p1520
asS'168'
p1521
(lp1522
S'dance_lvl_3'
p1523
asS'169'
p1524
(lp1525
S'dance_lvl_3'
p1526
asS'164'
p1527
(lp1528
S'dance_lvl_3'
p1529
asS'165'
p1530
(lp1531
S'dance_lvl_3'
p1532
asS'166'
p1533
(lp1534
S'dance_lvl_3'
p1535
asS'167'
p1536
(lp1537
S'dance_lvl_3'
p1538
asS'160'
p1539
(lp1540
S'dance_lvl_1'
p1541
asS'161'
p1542
(lp1543
S'dance_lvl_3'
p1544
asS'162'
p1545
(lp1546
S'dance_lvl_3'
p1547
asS'163'
p1548
(lp1549
S'dance_lvl_3'
p1550
asS'2518'
p1551
(lp1552
S'dance_lvl_2'
p1553
asS'2519'
p1554
(lp1555
S'dance_lvl_2'
p1556
asS'1980'
p1557
(lp1558
S'dance_lvl_2'
p1559
asS'2514'
p1560
(lp1561
S'dance_lvl_2'
p1562
asS'2515'
p1563
(lp1564
S'dance_lvl_3'
p1565
asS'2516'
p1566
(lp1567
S'dance_lvl_2'
p1568
asS'2517'
p1569
(lp1570
S'dance_lvl_2'
p1571
asS'2510'
p1572
(lp1573
S'dance_lvl_1'
p1574
asS'2511'
p1575
(lp1576
S'dance_lvl_1'
p1577
asS'2512'
p1578
(lp1579
S'dance_lvl_2'
p1580
asS'2513'
p1581
(lp1582
S'dance_lvl_2'
p1583
asS'2734'
p1584
(lp1585
S'dance_lvl_3'
p1586
asS'2735'
p1587
(lp1588
S'dance_lvl_3'
p1589
asS'2736'
p1590
(lp1591
S'dance_lvl_3'
p1592
asS'909'
p1593
(lp1594
S'dance_lvl_3'
p1595
asS'2730'
p1596
(lp1597
S'dance_lvl_3'
p1598
asS'2731'
p1599
(lp1600
S'dance_lvl_3'
p1601
asS'2732'
p1602
(lp1603
S'dance_lvl_3'
p1604
asS'2733'
p1605
(lp1606
S'dance_lvl_3'
p1607
asS'2738'
p1608
(lp1609
S'dance_lvl_3'
p1610
asS'2739'
p1611
(lp1612
S'dance_lvl_3'
p1613
asS'1106'
p1614
(lp1615
S'dance_lvl_3'
p1616
asS'1090'
p1617
(lp1618
S'dance_lvl_3'
p1619
asS'609'
p1620
(lp1621
S'dance_lvl_3'
p1622
asS'1091'
p1623
(lp1624
S'dance_lvl_3'
p1625
asS'1814'
p1626
(lp1627
S'dance_lvl_1'
p1628
asS'1815'
p1629
(lp1630
S'dance_lvl_1'
p1631
asS'1816'
p1632
(lp1633
S'dance_lvl_1'
p1634
asS'1817'
p1635
(lp1636
S'dance_lvl_1'
p1637
asS'1810'
p1638
(lp1639
S'dance_lvl_1'
p1640
asS'1811'
p1641
(lp1642
S'dance_lvl_1'
p1643
asS'1812'
p1644
(lp1645
S'dance_lvl_1'
p1646
asS'1813'
p1647
(lp1648
S'dance_lvl_1'
p1649
asS'1818'
p1650
(lp1651
S'dance_lvl_1'
p1652
asS'1819'
p1653
(lp1654
S'dance_lvl_1'
p1655
asS'1098'
p1656
(lp1657
S'dance_lvl_3'
p1658
asS'1099'
p1659
(lp1660
S'dance_lvl_3'
p1661
asS'1609'
p1662
(lp1663
S'dance_lvl_3'
p1664
asS'1608'
p1665
(lp1666
S'dance_lvl_3'
p1667
asS'2166'
p1668
(lp1669
S'dance_lvl_3'
p1670
asS'1979'
p1671
(lp1672
S'dance_lvl_2'
p1673
asS'1978'
p1674
(lp1675
S'dance_lvl_2'
p1676
asS'1601'
p1677
(lp1678
S'dance_lvl_1'
p1679
asS'1600'
p1680
(lp1681
S'dance_lvl_2'
p1682
asS'1603'
p1683
(lp1684
S'dance_lvl_1'
p1685
asS'1602'
p1686
(lp1687
S'dance_lvl_1'
p1688
asS'1605'
p1689
(lp1690
S'dance_lvl_1'
p1691
asS'1604'
p1692
(lp1693
S'dance_lvl_1'
p1694
asS'1971'
p1695
(lp1696
S'dance_lvl_2'
p1697
asS'1970'
p1698
(lp1699
S'dance_lvl_1'
p1700
asS'809'
p1701
(lp1702
S'dance_lvl_1'
p1703
asS'808'
p1704
(lp1705
S'dance_lvl_1'
p1706
asS'803'
p1707
(lp1708
S'dance_lvl_2'
p1709
asS'802'
p1710
(lp1711
S'dance_lvl_2'
p1712
asS'801'
p1713
(lp1714
S'dance_lvl_2'
p1715
asS'800'
p1716
(lp1717
S'dance_lvl_2'
p1718
asS'807'
p1719
(lp1720
S'dance_lvl_1'
p1721
asS'806'
p1722
(lp1723
S'dance_lvl_2'
p1724
asS'805'
p1725
(lp1726
S'dance_lvl_2'
p1727
asS'804'
p1728
(lp1729
S'dance_lvl_2'
p1730
asS'2848'
p1731
(lp1732
S'dance_lvl_1'
p1733
asS'2849'
p1734
(lp1735
S'dance_lvl_3'
p1736
asS'2846'
p1737
(lp1738
S'dance_lvl_3'
p1739
asS'1102'
p1740
(lp1741
S'dance_lvl_3'
p1742
asS'2844'
p1743
(lp1744
S'dance_lvl_3'
p1745
asS'2845'
p1746
(lp1747
S'dance_lvl_3'
p1748
asS'2842'
p1749
(lp1750
S'dance_lvl_3'
p1751
asS'2843'
p1752
(lp1753
S'dance_lvl_3'
p1754
asS'2840'
p1755
(lp1756
S'dance_lvl_2'
p1757
asS'2841'
p1758
(lp1759
S'dance_lvl_3'
p1760
asS'1775'
p1761
(lp1762
S'dance_lvl_2'
p1763
asS'1774'
p1764
(lp1765
S'dance_lvl_2'
p1766
asS'1777'
p1767
(lp1768
S'dance_lvl_2'
p1769
asS'1776'
p1770
(lp1771
S'dance_lvl_2'
p1772
asS'1771'
p1773
(lp1774
S'dance_lvl_2'
p1775
asS'1770'
p1776
(lp1777
S'dance_lvl_2'
p1778
asS'1773'
p1779
(lp1780
S'dance_lvl_2'
p1781
asS'1772'
p1782
(lp1783
S'dance_lvl_2'
p1784
asS'1779'
p1785
(lp1786
S'dance_lvl_2'
p1787
asS'1778'
p1788
(lp1789
S'dance_lvl_2'
p1790
asS'2998'
p1791
(lp1792
S'dance_lvl_2'
p1793
asS'1159'
p1794
(lp1795
S'dance_lvl_1'
p1796
asS'1158'
p1797
(lp1798
S'dance_lvl_1'
p1799
asS'1550'
p1800
(lp1801
S'dance_lvl_2'
p1802
asS'1155'
p1803
(lp1804
S'dance_lvl_3'
p1805
asS'1154'
p1806
(lp1807
S'dance_lvl_1'
p1808
asS'1157'
p1809
(lp1810
S'dance_lvl_1'
p1811
asS'1156'
p1812
(lp1813
S'dance_lvl_1'
p1814
asS'1151'
p1815
(lp1816
S'dance_lvl_1'
p1817
asS'1150'
p1818
(lp1819
S'dance_lvl_1'
p1820
asS'1153'
p1821
(lp1822
S'dance_lvl_1'
p1823
asS'1152'
p1824
(lp1825
S'dance_lvl_1'
p1826
asS'59'
p1827
(lp1828
S'dance_lvl_3'
p1829
asS'58'
p1830
(lp1831
S'dance_lvl_3'
p1832
asS'1551'
p1833
(lp1834
S'dance_lvl_2'
p1835
asS'2999'
p1836
(lp1837
S'dance_lvl_1'
p1838
asS'1553'
p1839
(lp1840
S'dance_lvl_2'
p1841
asS'1552'
p1842
(lp1843
S'dance_lvl_2'
p1844
asS'1555'
p1845
(lp1846
S'dance_lvl_2'
p1847
asS'1554'
p1848
(lp1849
S'dance_lvl_2'
p1850
asS'1557'
p1851
(lp1852
S'dance_lvl_2'
p1853
asS'1556'
p1854
(lp1855
S'dance_lvl_2'
p1856
asS'55'
p1857
(lp1858
S'dance_lvl_2'
p1859
asS'54'
p1860
(lp1861
S'dance_lvl_2'
p1862
asS'2992'
p1863
(lp1864
S'dance_lvl_1'
p1865
asS'56'
p1866
(lp1867
S'dance_lvl_1'
p1868
asS'51'
p1869
(lp1870
S'dance_lvl_2'
p1871
asS'50'
p1872
(lp1873
S'dance_lvl_2'
p1874
asS'2996'
p1875
(lp1876
S'dance_lvl_1'
p1877
asS'2997'
p1878
(lp1879
S'dance_lvl_1'
p1880
asS'537'
p1881
(lp1882
S'dance_lvl_3'
p1883
asS'2990'
p1884
(lp1885
S'dance_lvl_1'
p1886
asS'535'
p1887
(lp1888
S'dance_lvl_3'
p1889
asS'534'
p1890
(lp1891
S'dance_lvl_3'
p1892
asS'533'
p1893
(lp1894
S'dance_lvl_3'
p1895
asS'532'
p1896
(lp1897
S'dance_lvl_3'
p1898
asS'531'
p1899
(lp1900
S'dance_lvl_2'
p1901
asS'1558'
p1902
(lp1903
S'dance_lvl_2'
p1904
asS'57'
p1905
(lp1906
S'dance_lvl_3'
p1907
asS'539'
p1908
(lp1909
S'dance_lvl_2'
p1910
asS'538'
p1911
(lp1912
S'dance_lvl_3'
p1913
asS'1976'
p1914
(lp1915
S'dance_lvl_2'
p1916
asS'2994'
p1917
(lp1918
S'dance_lvl_1'
p1919
asS'2995'
p1920
(lp1921
S'dance_lvl_1'
p1922
asS'53'
p1923
(lp1924
S'dance_lvl_1'
p1925
asS'52'
p1926
(lp1927
S'dance_lvl_2'
p1928
asS'1975'
p1929
(lp1930
S'dance_lvl_2'
p1931
asS'536'
p1932
(lp1933
S'dance_lvl_3'
p1934
asS'429'
p1935
(lp1936
S'dance_lvl_3'
p1937
asS'428'
p1938
(lp1939
S'dance_lvl_3'
p1940
asS'1399'
p1941
(lp1942
S'dance_lvl_1'
p1943
asS'1398'
p1944
(lp1945
S'dance_lvl_3'
p1946
asS'421'
p1947
(lp1948
S'dance_lvl_2'
p1949
asS'420'
p1950
(lp1951
S'dance_lvl_2'
p1952
asS'1395'
p1953
(lp1954
S'dance_lvl_1'
p1955
asS'422'
p1956
(lp1957
S'dance_lvl_2'
p1958
asS'425'
p1959
(lp1960
S'dance_lvl_2'
p1961
asS'1392'
p1962
(lp1963
S'dance_lvl_1'
p1964
asS'1391'
p1965
(lp1966
S'dance_lvl_1'
p1967
asS'1390'
p1968
(lp1969
S'dance_lvl_1'
p1970
asS'530'
p1971
(lp1972
S'dance_lvl_3'
p1973
asS'853'
p1974
(lp1975
S'dance_lvl_2'
p1976
asS'1321'
p1977
(lp1978
S'dance_lvl_2'
p1979
asS'2565'
p1980
(lp1981
S'dance_lvl_3'
p1982
asS'2183'
p1983
(lp1984
S'dance_lvl_1'
p1985
asS'2182'
p1986
(lp1987
S'dance_lvl_1'
p1988
asS'2181'
p1989
(lp1990
S'dance_lvl_1'
p1991
asS'2180'
p1992
(lp1993
S'dance_lvl_1'
p1994
asS'2187'
p1995
(lp1996
S'dance_lvl_2'
p1997
asS'2186'
p1998
(lp1999
S'dance_lvl_1'
p2000
asS'229'
p2001
(lp2002
S'dance_lvl_2'
p2003
asS'228'
p2004
(lp2005
S'dance_lvl_2'
p2006
asS'227'
p2007
(lp2008
S'dance_lvl_2'
p2009
asS'226'
p2010
(lp2011
S'dance_lvl_1'
p2012
asS'2189'
p2013
(lp2014
S'dance_lvl_1'
p2015
asS'2188'
p2016
(lp2017
S'dance_lvl_1'
p2018
asS'223'
p2019
(lp2020
S'dance_lvl_1'
p2021
asS'222'
p2022
(lp2023
S'dance_lvl_1'
p2024
asS'221'
p2025
(lp2026
S'dance_lvl_1'
p2027
asS'220'
p2028
(lp2029
S'dance_lvl_1'
p2030
asS'2213'
p2031
(lp2032
S'dance_lvl_2'
p2033
asS'2212'
p2034
(lp2035
S'dance_lvl_2'
p2036
asS'2211'
p2037
(lp2038
S'dance_lvl_2'
p2039
asS'2210'
p2040
(lp2041
S'dance_lvl_3'
p2042
asS'2217'
p2043
(lp2044
S'dance_lvl_2'
p2045
asS'2216'
p2046
(lp2047
S'dance_lvl_2'
p2048
asS'2215'
p2049
(lp2050
S'dance_lvl_2'
p2051
asS'2214'
p2052
(lp2053
S'dance_lvl_2'
p2054
asS'2219'
p2055
(lp2056
S'dance_lvl_2'
p2057
asS'2218'
p2058
(lp2059
S'dance_lvl_2'
p2060
asS'2230'
p2061
(lp2062
S'dance_lvl_3'
p2063
asS'151'
p2064
(lp2065
S'dance_lvl_2'
p2066
asS'150'
p2067
(lp2068
S'dance_lvl_2'
p2069
asS'153'
p2070
(lp2071
S'dance_lvl_2'
p2072
asS'152'
p2073
(lp2074
S'dance_lvl_2'
p2075
asS'155'
p2076
(lp2077
S'dance_lvl_3'
p2078
asS'154'
p2079
(lp2080
S'dance_lvl_2'
p2081
asS'157'
p2082
(lp2083
S'dance_lvl_3'
p2084
asS'156'
p2085
(lp2086
S'dance_lvl_3'
p2087
asS'159'
p2088
(lp2089
S'dance_lvl_2'
p2090
asS'2432'
p2091
(lp2092
S'dance_lvl_2'
p2093
asS'2431'
p2094
(lp2095
S'dance_lvl_2'
p2096
asS'2430'
p2097
(lp2098
S'dance_lvl_2'
p2099
asS'2437'
p2100
(lp2101
S'dance_lvl_2'
p2102
asS'2436'
p2103
(lp2104
S'dance_lvl_2'
p2105
asS'2435'
p2106
(lp2107
S'dance_lvl_2'
p2108
asS'2434'
p2109
(lp2110
S'dance_lvl_1'
p2111
asS'2236'
p2112
(lp2113
S'dance_lvl_1'
p2114
asS'2509'
p2115
(lp2116
S'dance_lvl_1'
p2117
asS'2508'
p2118
(lp2119
S'dance_lvl_1'
p2120
asS'2507'
p2121
(lp2122
S'dance_lvl_1'
p2123
asS'2506'
p2124
(lp2125
S'dance_lvl_1'
p2126
asS'2505'
p2127
(lp2128
S'dance_lvl_1'
p2129
asS'2504'
p2130
(lp2131
S'dance_lvl_1'
p2132
asS'2503'
p2133
(lp2134
S'dance_lvl_1'
p2135
asS'2502'
p2136
(lp2137
S'dance_lvl_1'
p2138
asS'2501'
p2139
(lp2140
S'dance_lvl_1'
p2141
asS'2500'
p2142
(lp2143
S'dance_lvl_1'
p2144
asS'2727'
p2145
(lp2146
S'dance_lvl_3'
p2147
asS'2726'
p2148
(lp2149
S'dance_lvl_3'
p2150
asS'2725'
p2151
(lp2152
S'dance_lvl_3'
p2153
asS'2724'
p2154
(lp2155
S'dance_lvl_3'
p2156
asS'2723'
p2157
(lp2158
S'dance_lvl_2'
p2159
asS'2722'
p2160
(lp2161
S'dance_lvl_2'
p2162
asS'2721'
p2163
(lp2164
S'dance_lvl_2'
p2165
asS'2720'
p2166
(lp2167
S'dance_lvl_2'
p2168
asS'2729'
p2169
(lp2170
S'dance_lvl_3'
p2171
asS'2728'
p2172
(lp2173
S'dance_lvl_3'
p2174
asS'1807'
p2175
(lp2176
S'dance_lvl_1'
p2177
asS'1806'
p2178
(lp2179
S'dance_lvl_1'
p2180
asS'1805'
p2181
(lp2182
S'dance_lvl_2'
p2183
asS'1804'
p2184
(lp2185
S'dance_lvl_2'
p2186
asS'1803'
p2187
(lp2188
S'dance_lvl_2'
p2189
asS'1802'
p2190
(lp2191
S'dance_lvl_2'
p2192
asS'1801'
p2193
(lp2194
S'dance_lvl_1'
p2195
asS'1800'
p2196
(lp2197
S'dance_lvl_2'
p2198
asS'1809'
p2199
(lp2200
S'dance_lvl_1'
p2201
asS'1808'
p2202
(lp2203
S'dance_lvl_1'
p2204
asS'1256'
p2205
(lp2206
S'dance_lvl_2'
p2207
asS'1948'
p2208
(lp2209
S'dance_lvl_2'
p2210
asS'1949'
p2211
(lp2212
S'dance_lvl_1'
p2213
asS'1257'
p2214
(lp2215
S'dance_lvl_2'
p2216
asS'1942'
p2217
(lp2218
S'dance_lvl_3'
p2219
asS'1943'
p2220
(lp2221
S'dance_lvl_3'
p2222
asS'1940'
p2223
(lp2224
S'dance_lvl_3'
p2225
asS'1941'
p2226
(lp2227
S'dance_lvl_3'
p2228
asS'1946'
p2229
(lp2230
S'dance_lvl_1'
p2231
asS'1947'
p2232
(lp2233
S'dance_lvl_1'
p2234
asS'1944'
p2235
(lp2236
S'dance_lvl_1'
p2237
asS'1945'
p2238
(lp2239
S'dance_lvl_1'
p2240
asS'818'
p2241
(lp2242
S'dance_lvl_2'
p2243
asS'0'
(lp2244
S'dance_lvl_1'
p2245
asS'1255'
p2246
(lp2247
S'dance_lvl_2'
p2248
asS'810'
p2249
(lp2250
S'dance_lvl_1'
p2251
asS'1252'
p2252
(lp2253
S'dance_lvl_2'
p2254
asS'812'
p2255
(lp2256
S'dance_lvl_1'
p2257
asS'813'
p2258
(lp2259
S'dance_lvl_1'
p2260
asS'814'
p2261
(lp2262
S'dance_lvl_1'
p2263
asS'815'
p2264
(lp2265
S'dance_lvl_1'
p2266
asS'816'
p2267
(lp2268
S'dance_lvl_2'
p2269
asS'817'
p2270
(lp2271
S'dance_lvl_2'
p2272
asS'2859'
p2273
(lp2274
S'dance_lvl_2'
p2275
asS'2858'
p2276
(lp2277
S'dance_lvl_1'
p2278
asS'1250'
p2279
(lp2280
S'dance_lvl_2'
p2281
asS'1990'
p2282
(lp2283
S'dance_lvl_3'
p2284
asS'2851'
p2285
(lp2286
S'dance_lvl_1'
p2287
asS'2850'
p2288
(lp2289
S'dance_lvl_3'
p2290
asS'2853'
p2291
(lp2292
S'dance_lvl_1'
p2293
asS'2852'
p2294
(lp2295
S'dance_lvl_1'
p2296
asS'2855'
p2297
(lp2298
S'dance_lvl_1'
p2299
asS'2854'
p2300
(lp2301
S'dance_lvl_1'
p2302
asS'2857'
p2303
(lp2304
S'dance_lvl_2'
p2305
asS'2856'
p2306
(lp2307
S'dance_lvl_1'
p2308
asS'1490'
p2309
(lp2310
S'dance_lvl_3'
p2311
asS'1491'
p2312
(lp2313
S'dance_lvl_1'
p2314
asS'1492'
p2315
(lp2316
S'dance_lvl_3'
p2317
asS'1493'
p2318
(lp2319
S'dance_lvl_1'
p2320
asS'1267'
p2321
(lp2322
S'dance_lvl_2'
p2323
asS'1495'
p2324
(lp2325
S'dance_lvl_1'
p2326
asS'1496'
p2327
(lp2328
S'dance_lvl_1'
p2329
asS'1497'
p2330
(lp2331
S'dance_lvl_1'
p2332
asS'1498'
p2333
(lp2334
S'dance_lvl_1'
p2335
asS'1499'
p2336
(lp2337
S'dance_lvl_1'
p2338
asS'423'
p2339
(lp2340
S'dance_lvl_3'
p2341
asS'1994'
p2342
(lp2343
S'dance_lvl_3'
p2344
asS'1700'
p2345
(lp2346
S'dance_lvl_3'
p2347
asS'1701'
p2348
(lp2349
S'dance_lvl_3'
p2350
asS'1702'
p2351
(lp2352
S'dance_lvl_3'
p2353
asS'1394'
p2354
(lp2355
S'dance_lvl_2'
p2356
asS'1704'
p2357
(lp2358
S'dance_lvl_3'
p2359
asS'1625'
p2360
(lp2361
S'dance_lvl_3'
p2362
asS'1706'
p2363
(lp2364
S'dance_lvl_3'
p2365
asS'1707'
p2366
(lp2367
S'dance_lvl_3'
p2368
asS'1708'
p2369
(lp2370
S'dance_lvl_3'
p2371
asS'1393'
p2372
(lp2373
S'dance_lvl_3'
p2374
asS'1996'
p2375
(lp2376
S'dance_lvl_2'
p2377
asS'424'
p2378
(lp2379
S'dance_lvl_3'
p2380
asS'427'
p2381
(lp2382
S'dance_lvl_3'
p2383
asS'426'
p2384
(lp2385
S'dance_lvl_3'
p2386
asS'1128'
p2387
(lp2388
S'dance_lvl_3'
p2389
asS'1129'
p2390
(lp2391
S'dance_lvl_2'
p2392
asS'1628'
p2393
(lp2394
S'dance_lvl_3'
p2395
asS'1120'
p2396
(lp2397
S'dance_lvl_3'
p2398
asS'1121'
p2399
(lp2400
S'dance_lvl_3'
p2401
asS'1122'
p2402
(lp2403
S'dance_lvl_3'
p2404
asS'1123'
p2405
(lp2406
S'dance_lvl_3'
p2407
asS'1124'
p2408
(lp2409
S'dance_lvl_3'
p2410
asS'1125'
p2411
(lp2412
S'dance_lvl_3'
p2413
asS'1126'
p2414
(lp2415
S'dance_lvl_3'
p2416
asS'1127'
p2417
(lp2418
S'dance_lvl_3'
p2419
asS'2989'
p2420
(lp2421
S'dance_lvl_1'
p2422
asS'2988'
p2423
(lp2424
S'dance_lvl_1'
p2425
asS'2983'
p2426
(lp2427
S'dance_lvl_1'
p2428
asS'2982'
p2429
(lp2430
S'dance_lvl_1'
p2431
asS'2981'
p2432
(lp2433
S'dance_lvl_1'
p2434
asS'2980'
p2435
(lp2436
S'dance_lvl_1'
p2437
asS'2987'
p2438
(lp2439
S'dance_lvl_1'
p2440
asS'2986'
p2441
(lp2442
S'dance_lvl_1'
p2443
asS'2985'
p2444
(lp2445
S'dance_lvl_1'
p2446
asS'2984'
p2447
(lp2448
S'dance_lvl_1'
p2449
asS'524'
p2450
(lp2451
S'dance_lvl_2'
p2452
asS'525'
p2453
(lp2454
S'dance_lvl_1'
p2455
asS'526'
p2456
(lp2457
S'dance_lvl_3'
p2458
asS'527'
p2459
(lp2460
S'dance_lvl_3'
p2461
asS'1018'
p2462
(lp2463
S'dance_lvl_1'
p2464
asS'1019'
p2465
(lp2466
S'dance_lvl_1'
p2467
asS'522'
p2468
(lp2469
S'dance_lvl_2'
p2470
asS'523'
p2471
(lp2472
S'dance_lvl_2'
p2473
asS'1014'
p2474
(lp2475
S'dance_lvl_2'
p2476
asS'1015'
p2477
(lp2478
S'dance_lvl_1'
p2479
asS'1016'
p2480
(lp2481
S'dance_lvl_1'
p2482
asS'1017'
p2483
(lp2484
S'dance_lvl_1'
p2485
asS'1010'
p2486
(lp2487
S'dance_lvl_1'
p2488
asS'1011'
p2489
(lp2490
S'dance_lvl_1'
p2491
asS'1012'
p2492
(lp2493
S'dance_lvl_1'
p2494
asS'1013'
p2495
(lp2496
S'dance_lvl_1'
p2497
asS'1234'
p2498
(lp2499
S'dance_lvl_1'
p2500
asS'1235'
p2501
(lp2502
S'dance_lvl_1'
p2503
asS'1236'
p2504
(lp2505
S'dance_lvl_3'
p2506
asS'1237'
p2507
(lp2508
S'dance_lvl_3'
p2509
asS'1230'
p2510
(lp2511
S'dance_lvl_1'
p2512
asS'1231'
p2513
(lp2514
S'dance_lvl_1'
p2515
asS'1232'
p2516
(lp2517
S'dance_lvl_1'
p2518
asS'1233'
p2519
(lp2520
S'dance_lvl_1'
p2521
asS'1238'
p2522
(lp2523
S'dance_lvl_3'
p2524
asS'1239'
p2525
(lp2526
S'dance_lvl_3'
p2527
asS'438'
p2528
(lp2529
S'dance_lvl_1'
p2530
asS'439'
p2531
(lp2532
S'dance_lvl_1'
p2533
asS'436'
p2534
(lp2535
S'dance_lvl_3'
p2536
asS'437'
p2537
(lp2538
S'dance_lvl_3'
p2539
asS'434'
p2540
(lp2541
S'dance_lvl_3'
p2542
asS'435'
p2543
(lp2544
S'dance_lvl_3'
p2545
asS'432'
p2546
(lp2547
S'dance_lvl_3'
p2548
asS'433'
p2549
(lp2550
S'dance_lvl_3'
p2551
asS'430'
p2552
(lp2553
S'dance_lvl_3'
p2554
asS'431'
p2555
(lp2556
S'dance_lvl_3'
p2557
asS'2864'
p2558
(lp2559
S'dance_lvl_2'
p2560
asS'2865'
p2561
(lp2562
S'dance_lvl_2'
p2563
asS'1967'
p2564
(lp2565
S'dance_lvl_2'
p2566
asS'2868'
p2567
(lp2568
S'dance_lvl_2'
p2569
asS'2869'
p2570
(lp2571
S'dance_lvl_2'
p2572
asS'1697'
p2573
(lp2574
S'dance_lvl_3'
p2575
asS'1961'
p2576
(lp2577
S'dance_lvl_3'
p2578
asS'2464'
p2579
(lp2580
S'dance_lvl_3'
p2581
asS'2465'
p2582
(lp2583
S'dance_lvl_2'
p2584
asS'2466'
p2585
(lp2586
S'dance_lvl_3'
p2587
asS'2467'
p2588
(lp2589
S'dance_lvl_3'
p2590
asS'238'
p2591
(lp2592
S'dance_lvl_1'
p2593
asS'239'
p2594
(lp2595
S'dance_lvl_1'
p2596
asS'234'
p2597
(lp2598
S'dance_lvl_2'
p2599
asS'235'
p2600
(lp2601
S'dance_lvl_2'
p2602
asS'236'
p2603
(lp2604
S'dance_lvl_1'
p2605
asS'237'
p2606
(lp2607
S'dance_lvl_3'
p2608
asS'230'
p2609
(lp2610
S'dance_lvl_2'
p2611
asS'231'
p2612
(lp2613
S'dance_lvl_2'
p2614
asS'232'
p2615
(lp2616
S'dance_lvl_2'
p2617
asS'233'
p2618
(lp2619
S'dance_lvl_2'
p2620
asS'2462'
p2621
(lp2622
S'dance_lvl_3'
p2623
asS'2228'
p2624
(lp2625
S'dance_lvl_1'
p2626
asS'2229'
p2627
(lp2628
S'dance_lvl_2'
p2629
asS'2226'
p2630
(lp2631
S'dance_lvl_2'
p2632
asS'2227'
p2633
(lp2634
S'dance_lvl_2'
p2635
asS'2224'
p2636
(lp2637
S'dance_lvl_2'
p2638
asS'2225'
p2639
(lp2640
S'dance_lvl_2'
p2641
asS'2222'
p2642
(lp2643
S'dance_lvl_2'
p2644
asS'2223'
p2645
(lp2646
S'dance_lvl_2'
p2647
asS'2220'
p2648
(lp2649
S'dance_lvl_2'
p2650
asS'2221'
p2651
(lp2652
S'dance_lvl_2'
p2653
asS'1'
(lp2654
S'dance_lvl_1'
p2655
asS'146'
p2656
(lp2657
S'dance_lvl_2'
p2658
asS'147'
p2659
(lp2660
S'dance_lvl_2'
p2661
asS'144'
p2662
(lp2663
S'dance_lvl_1'
p2664
asS'145'
p2665
(lp2666
S'dance_lvl_2'
p2667
asS'142'
p2668
(lp2669
S'dance_lvl_2'
p2670
asS'143'
p2671
(lp2672
S'dance_lvl_2'
p2673
asS'140'
p2674
(lp2675
S'dance_lvl_2'
p2676
asS'141'
p2677
(lp2678
S'dance_lvl_2'
p2679
asS'2468'
p2680
(lp2681
S'dance_lvl_3'
p2682
asS'148'
p2683
(lp2684
S'dance_lvl_2'
p2685
asS'149'
p2686
(lp2687
S'dance_lvl_2'
p2688
asS'2088'
p2689
(lp2690
S'dance_lvl_2'
p2691
asS'2089'
p2692
(lp2693
S'dance_lvl_2'
p2694
asS'2082'
p2695
(lp2696
S'dance_lvl_2'
p2697
asS'2083'
p2698
(lp2699
S'dance_lvl_2'
p2700
asS'2080'
p2701
(lp2702
S'dance_lvl_2'
p2703
asS'2081'
p2704
(lp2705
S'dance_lvl_2'
p2706
asS'2086'
p2707
(lp2708
S'dance_lvl_3'
p2709
asS'2087'
p2710
(lp2711
S'dance_lvl_2'
p2712
asS'2084'
p2713
(lp2714
S'dance_lvl_2'
p2715
asS'2085'
p2716
(lp2717
S'dance_lvl_2'
p2718
asS'2538'
p2719
(lp2720
S'dance_lvl_1'
p2721
asS'2539'
p2722
(lp2723
S'dance_lvl_2'
p2724
asS'2532'
p2725
(lp2726
S'dance_lvl_1'
p2727
asS'2533'
p2728
(lp2729
S'dance_lvl_1'
p2730
asS'2530'
p2731
(lp2732
S'dance_lvl_1'
p2733
asS'2531'
p2734
(lp2735
S'dance_lvl_1'
p2736
asS'2536'
p2737
(lp2738
S'dance_lvl_1'
p2739
asS'2537'
p2740
(lp2741
S'dance_lvl_2'
p2742
asS'2534'
p2743
(lp2744
S'dance_lvl_1'
p2745
asS'2535'
p2746
(lp2747
S'dance_lvl_1'
p2748
asS'2712'
p2749
(lp2750
S'dance_lvl_2'
p2751
asS'2713'
p2752
(lp2753
S'dance_lvl_2'
p2754
asS'2710'
p2755
(lp2756
S'dance_lvl_2'
p2757
asS'2711'
p2758
(lp2759
S'dance_lvl_2'
p2760
asS'2716'
p2761
(lp2762
S'dance_lvl_2'
p2763
asS'2717'
p2764
(lp2765
S'dance_lvl_2'
p2766
asS'2714'
p2767
(lp2768
S'dance_lvl_2'
p2769
asS'2715'
p2770
(lp2771
S'dance_lvl_2'
p2772
asS'2718'
p2773
(lp2774
S'dance_lvl_2'
p2775
asS'2719'
p2776
(lp2777
S'dance_lvl_2'
p2778
asS'1832'
p2779
(lp2780
S'dance_lvl_1'
p2781
asS'1833'
p2782
(lp2783
S'dance_lvl_1'
p2784
asS'1830'
p2785
(lp2786
S'dance_lvl_2'
p2787
asS'1831'
p2788
(lp2789
S'dance_lvl_1'
p2790
asS'1836'
p2791
(lp2792
S'dance_lvl_1'
p2793
asS'1837'
p2794
(lp2795
S'dance_lvl_1'
p2796
asS'1834'
p2797
(lp2798
S'dance_lvl_1'
p2799
asS'1835'
p2800
(lp2801
S'dance_lvl_1'
p2802
asS'1838'
p2803
(lp2804
S'dance_lvl_1'
p2805
asS'1839'
p2806
(lp2807
S'dance_lvl_1'
p2808
asS'2406'
p2809
(lp2810
S'dance_lvl_1'
p2811
asS'2407'
p2812
(lp2813
S'dance_lvl_1'
p2814
asS'2404'
p2815
(lp2816
S'dance_lvl_1'
p2817
asS'2405'
p2818
(lp2819
S'dance_lvl_1'
p2820
asS'2402'
p2821
(lp2822
S'dance_lvl_1'
p2823
asS'2403'
p2824
(lp2825
S'dance_lvl_1'
p2826
asS'2400'
p2827
(lp2828
S'dance_lvl_1'
p2829
asS'2401'
p2830
(lp2831
S'dance_lvl_1'
p2832
asS'933'
p2833
(lp2834
S'dance_lvl_2'
p2835
asS'932'
p2836
(lp2837
S'dance_lvl_2'
p2838
asS'931'
p2839
(lp2840
S'dance_lvl_2'
p2841
asS'930'
p2842
(lp2843
S'dance_lvl_2'
p2844
asS'937'
p2845
(lp2846
S'dance_lvl_2'
p2847
asS'936'
p2848
(lp2849
S'dance_lvl_2'
p2850
asS'2408'
p2851
(lp2852
S'dance_lvl_1'
p2853
asS'2409'
p2854
(lp2855
S'dance_lvl_1'
p2856
asS'471'
p2857
(lp2858
S'dance_lvl_3'
p2859
asS'1691'
p2860
(lp2861
S'dance_lvl_3'
p2862
asS'1955'
p2863
(lp2864
S'dance_lvl_1'
p2865
asS'1954'
p2866
(lp2867
S'dance_lvl_2'
p2868
asS'1957'
p2869
(lp2870
S'dance_lvl_2'
p2871
asS'1956'
p2872
(lp2873
S'dance_lvl_2'
p2874
asS'1951'
p2875
(lp2876
S'dance_lvl_3'
p2877
asS'1950'
p2878
(lp2879
S'dance_lvl_1'
p2880
asS'1953'
p2881
(lp2882
S'dance_lvl_1'
p2883
asS'1952'
p2884
(lp2885
S'dance_lvl_1'
p2886
asS'1959'
p2887
(lp2888
S'dance_lvl_1'
p2889
asS'1958'
p2890
(lp2891
S'dance_lvl_2'
p2892
asS'829'
p2893
(lp2894
S'dance_lvl_3'
p2895
asS'828'
p2896
(lp2897
S'dance_lvl_2'
p2898
asS'825'
p2899
(lp2900
S'dance_lvl_2'
p2901
asS'824'
p2902
(lp2903
S'dance_lvl_2'
p2904
asS'827'
p2905
(lp2906
S'dance_lvl_2'
p2907
asS'826'
p2908
(lp2909
S'dance_lvl_2'
p2910
asS'821'
p2911
(lp2912
S'dance_lvl_2'
p2913
asS'820'
p2914
(lp2915
S'dance_lvl_2'
p2916
asS'823'
p2917
(lp2918
S'dance_lvl_2'
p2919
asS'822'
p2920
(lp2921
S'dance_lvl_2'
p2922
asS'1993'
p2923
(lp2924
S'dance_lvl_3'
p2925
asS'1483'
p2926
(lp2927
S'dance_lvl_3'
p2928
asS'1482'
p2929
(lp2930
S'dance_lvl_3'
p2931
asS'1481'
p2932
(lp2933
S'dance_lvl_3'
p2934
asS'619'
p2935
(lp2936
S'dance_lvl_3'
p2937
asS'1487'
p2938
(lp2939
S'dance_lvl_3'
p2940
asS'1486'
p2941
(lp2942
S'dance_lvl_3'
p2943
asS'1485'
p2944
(lp2945
S'dance_lvl_3'
p2946
asS'1484'
p2947
(lp2948
S'dance_lvl_3'
p2949
asS'1489'
p2950
(lp2951
S'dance_lvl_3'
p2952
asS'1488'
p2953
(lp2954
S'dance_lvl_3'
p2955
asS'797'
p2956
(lp2957
S'dance_lvl_2'
p2958
asS'796'
p2959
(lp2960
S'dance_lvl_2'
p2961
asS'795'
p2962
(lp2963
S'dance_lvl_3'
p2964
asS'794'
p2965
(lp2966
S'dance_lvl_2'
p2967
asS'793'
p2968
(lp2969
S'dance_lvl_2'
p2970
asS'1716'
p2971
(lp2972
S'dance_lvl_1'
p2973
asS'791'
p2974
(lp2975
S'dance_lvl_2'
p2976
asS'790'
p2977
(lp2978
S'dance_lvl_2'
p2979
asS'1719'
p2980
(lp2981
S'dance_lvl_3'
p2982
asS'1718'
p2983
(lp2984
S'dance_lvl_3'
p2985
asS'2145'
p2986
(lp2987
S'dance_lvl_2'
p2988
asS'799'
p2989
(lp2990
S'dance_lvl_2'
p2991
asS'798'
p2992
(lp2993
S'dance_lvl_2'
p2994
asS'1270'
p2995
(lp2996
S'dance_lvl_2'
p2997
asS'2144'
p2998
(lp2999
S'dance_lvl_2'
p3000
asS'613'
p3001
(lp3002
S'dance_lvl_3'
p3003
asS'2143'
p3004
(lp3005
S'dance_lvl_2'
p3006
asS'1272'
p3007
(lp3008
S'dance_lvl_2'
p3009
asS'2142'
p3010
(lp3011
S'dance_lvl_2'
p3012
asS'1139'
p3013
(lp3014
S'dance_lvl_1'
p3015
asS'1138'
p3016
(lp3017
S'dance_lvl_2'
p3018
asS'2417'
p3019
(lp3020
S'dance_lvl_2'
p3021
asS'1133'
p3022
(lp3023
S'dance_lvl_2'
p3024
asS'1132'
p3025
(lp3026
S'dance_lvl_2'
p3027
asS'1131'
p3028
(lp3029
S'dance_lvl_2'
p3030
asS'1130'
p3031
(lp3032
S'dance_lvl_2'
p3033
asS'1137'
p3034
(lp3035
S'dance_lvl_2'
p3036
asS'1136'
p3037
(lp3038
S'dance_lvl_2'
p3039
asS'1135'
p3040
(lp3041
S'dance_lvl_2'
p3042
asS'1275'
p3043
(lp3044
S'dance_lvl_1'
p3045
asS'2792'
p3046
(lp3047
S'dance_lvl_1'
p3048
asS'614'
p3049
(lp3050
S'dance_lvl_3'
p3051
asS'2793'
p3052
(lp3053
S'dance_lvl_1'
p3054
asS'615'
p3055
(lp3056
S'dance_lvl_3'
p3057
asS'2790'
p3058
(lp3059
S'dance_lvl_1'
p3060
asS'2791'
p3061
(lp3062
S'dance_lvl_1'
p3063
asS'2796'
p3064
(lp3065
S'dance_lvl_1'
p3066
asS'224'
p3067
(lp3068
S'dance_lvl_1'
p3069
asS'188'
p3070
(lp3071
S'dance_lvl_3'
p3072
asS'2065'
p3073
(lp3074
S'dance_lvl_1'
p3075
asS'519'
p3076
(lp3077
S'dance_lvl_3'
p3078
asS'518'
p3079
(lp3080
S'dance_lvl_2'
p3081
asS'2794'
p3082
(lp3083
S'dance_lvl_1'
p3084
asS'1009'
p3085
(lp3086
S'dance_lvl_2'
p3087
asS'1008'
p3088
(lp3089
S'dance_lvl_1'
p3090
asS'1007'
p3091
(lp3092
S'dance_lvl_1'
p3093
asS'1006'
p3094
(lp3095
S'dance_lvl_1'
p3096
asS'513'
p3097
(lp3098
S'dance_lvl_2'
p3099
asS'512'
p3100
(lp3101
S'dance_lvl_2'
p3102
asS'515'
p3103
(lp3104
S'dance_lvl_2'
p3105
asS'514'
p3106
(lp3107
S'dance_lvl_2'
p3108
asS'1001'
p3109
(lp3110
S'dance_lvl_1'
p3111
asS'1000'
p3112
(lp3113
S'dance_lvl_1'
p3114
asS'1227'
p3115
(lp3116
S'dance_lvl_1'
p3117
asS'622'
p3118
(lp3119
S'dance_lvl_1'
p3120
asS'621'
p3121
(lp3122
S'dance_lvl_3'
p3123
asS'1224'
p3124
(lp3125
S'dance_lvl_2'
p3126
asS'627'
p3127
(lp3128
S'dance_lvl_1'
p3129
asS'626'
p3130
(lp3131
S'dance_lvl_1'
p3132
asS'625'
p3133
(lp3134
S'dance_lvl_1'
p3135
asS'624'
p3136
(lp3137
S'dance_lvl_1'
p3138
asS'629'
p3139
(lp3140
S'dance_lvl_1'
p3141
asS'628'
p3142
(lp3143
S'dance_lvl_1'
p3144
asS'1229'
p3145
(lp3146
S'dance_lvl_1'
p3147
asS'1228'
p3148
(lp3149
S'dance_lvl_1'
p3150
asS'2882'
p3151
(lp3152
S'dance_lvl_2'
p3153
asS'2883'
p3154
(lp3155
S'dance_lvl_2'
p3156
asS'2880'
p3157
(lp3158
S'dance_lvl_2'
p3159
asS'2881'
p3160
(lp3161
S'dance_lvl_2'
p3162
asS'2886'
p3163
(lp3164
S'dance_lvl_1'
p3165
asS'2887'
p3166
(lp3167
S'dance_lvl_1'
p3168
asS'2884'
p3169
(lp3170
S'dance_lvl_2'
p3171
asS'2885'
p3172
(lp3173
S'dance_lvl_2'
p3174
asS'2888'
p3175
(lp3176
S'dance_lvl_1'
p3177
asS'2889'
p3178
(lp3179
S'dance_lvl_1'
p3180
asS'2'
(lp3181
S'dance_lvl_1'
p3182
asS'11'
p3183
(lp3184
S'dance_lvl_1'
p3185
asS'10'
p3186
(lp3187
S'dance_lvl_1'
p3188
asS'13'
p3189
(lp3190
S'dance_lvl_1'
p3191
asS'12'
p3192
(lp3193
S'dance_lvl_1'
p3194
asS'15'
p3195
(lp3196
S'dance_lvl_1'
p3197
asS'14'
p3198
(lp3199
S'dance_lvl_3'
p3200
asS'17'
p3201
(lp3202
S'dance_lvl_2'
p3203
asS'16'
p3204
(lp3205
S'dance_lvl_1'
p3206
asS'19'
p3207
(lp3208
S'dance_lvl_2'
p3209
asS'18'
p3210
(lp3211
S'dance_lvl_2'
p3212
asS'928'
p3213
(lp3214
S'dance_lvl_2'
p3215
asS'929'
p3216
(lp3217
S'dance_lvl_2'
p3218
asS'2742'
p3219
(lp3220
S'dance_lvl_3'
p3221
asS'1534'
p3222
(lp3223
S'dance_lvl_3'
p3224
asS'201'
p3225
(lp3226
S'dance_lvl_1'
p3227
asS'200'
p3228
(lp3229
S'dance_lvl_1'
p3230
asS'203'
p3231
(lp3232
S'dance_lvl_1'
p3233
asS'202'
p3234
(lp3235
S'dance_lvl_1'
p3236
asS'205'
p3237
(lp3238
S'dance_lvl_3'
p3239
asS'204'
p3240
(lp3241
S'dance_lvl_1'
p3242
asS'207'
p3243
(lp3244
S'dance_lvl_1'
p3245
asS'206'
p3246
(lp3247
S'dance_lvl_1'
p3248
asS'209'
p3249
(lp3250
S'dance_lvl_2'
p3251
asS'208'
p3252
(lp3253
S'dance_lvl_3'
p3254
asS'2745'
p3255
(lp3256
S'dance_lvl_3'
p3257
asS'1573'
p3258
(lp3259
S'dance_lvl_2'
p3260
asS'1572'
p3261
(lp3262
S'dance_lvl_2'
p3263
asS'1571'
p3264
(lp3265
S'dance_lvl_2'
p3266
asS'2239'
p3267
(lp3268
S'dance_lvl_1'
p3269
asS'2238'
p3270
(lp3271
S'dance_lvl_1'
p3272
asS'1570'
p3273
(lp3274
S'dance_lvl_2'
p3275
asS'2231'
p3276
(lp3277
S'dance_lvl_2'
p3278
asS'1577'
p3279
(lp3280
S'dance_lvl_1'
p3281
asS'2233'
p3282
(lp3283
S'dance_lvl_2'
p3284
asS'2232'
p3285
(lp3286
S'dance_lvl_2'
p3287
asS'2235'
p3288
(lp3289
S'dance_lvl_3'
p3290
asS'2234'
p3291
(lp3292
S'dance_lvl_2'
p3293
asS'2237'
p3294
(lp3295
S'dance_lvl_1'
p3296
asS'1576'
p3297
(lp3298
S'dance_lvl_1'
p3299
asS'1575'
p3300
(lp3301
S'dance_lvl_1'
p3302
asS'1574'
p3303
(lp3304
S'dance_lvl_3'
p3305
asS'2185'
p3306
(lp3307
S'dance_lvl_1'
p3308
asS'2184'
p3309
(lp3310
S'dance_lvl_1'
p3311
asS'2095'
p3312
(lp3313
S'dance_lvl_2'
p3314
asS'2094'
p3315
(lp3316
S'dance_lvl_2'
p3317
asS'2097'
p3318
(lp3319
S'dance_lvl_2'
p3320
asS'2096'
p3321
(lp3322
S'dance_lvl_2'
p3323
asS'2091'
p3324
(lp3325
S'dance_lvl_2'
p3326
asS'2090'
p3327
(lp3328
S'dance_lvl_3'
p3329
asS'2093'
p3330
(lp3331
S'dance_lvl_2'
p3332
asS'2092'
p3333
(lp3334
S'dance_lvl_2'
p3335
asS'2099'
p3336
(lp3337
S'dance_lvl_2'
p3338
asS'225'
p3339
(lp3340
S'dance_lvl_1'
p3341
asS'2525'
p3342
(lp3343
S'dance_lvl_1'
p3344
asS'2524'
p3345
(lp3346
S'dance_lvl_1'
p3347
asS'2527'
p3348
(lp3349
S'dance_lvl_1'
p3350
asS'2526'
p3351
(lp3352
S'dance_lvl_1'
p3353
asS'2521'
p3354
(lp3355
S'dance_lvl_2'
p3356
asS'2520'
p3357
(lp3358
S'dance_lvl_2'
p3359
asS'2523'
p3360
(lp3361
S'dance_lvl_2'
p3362
asS'2522'
p3363
(lp3364
S'dance_lvl_2'
p3365
asS'2529'
p3366
(lp3367
S'dance_lvl_3'
p3368
asS'2528'
p3369
(lp3370
S'dance_lvl_1'
p3371
asS'2709'
p3372
(lp3373
S'dance_lvl_2'
p3374
asS'2708'
p3375
(lp3376
S'dance_lvl_2'
p3377
asS'2705'
p3378
(lp3379
S'dance_lvl_1'
p3380
asS'2704'
p3381
(lp3382
S'dance_lvl_1'
p3383
asS'2707'
p3384
(lp3385
S'dance_lvl_2'
p3386
asS'2706'
p3387
(lp3388
S'dance_lvl_2'
p3389
asS'2701'
p3390
(lp3391
S'dance_lvl_2'
p3392
asS'2700'
p3393
(lp3394
S'dance_lvl_1'
p3395
asS'2703'
p3396
(lp3397
S'dance_lvl_1'
p3398
asS'2702'
p3399
(lp3400
S'dance_lvl_1'
p3401
asS'1829'
p3402
(lp3403
S'dance_lvl_1'
p3404
asS'1828'
p3405
(lp3406
S'dance_lvl_1'
p3407
asS'2951'
p3408
(lp3409
S'dance_lvl_3'
p3410
asS'1825'
p3411
(lp3412
S'dance_lvl_1'
p3413
asS'1824'
p3414
(lp3415
S'dance_lvl_1'
p3416
asS'1827'
p3417
(lp3418
S'dance_lvl_1'
p3419
asS'1826'
p3420
(lp3421
S'dance_lvl_1'
p3422
asS'1821'
p3423
(lp3424
S'dance_lvl_1'
p3425
asS'1820'
p3426
(lp3427
S'dance_lvl_1'
p3428
asS'1823'
p3429
(lp3430
S'dance_lvl_1'
p3431
asS'1822'
p3432
(lp3433
S'dance_lvl_3'
p3434
asS'2411'
p3435
(lp3436
S'dance_lvl_1'
p3437
asS'2410'
p3438
(lp3439
S'dance_lvl_1'
p3440
asS'2413'
p3441
(lp3442
S'dance_lvl_1'
p3443
asS'2412'
p3444
(lp3445
S'dance_lvl_1'
p3446
asS'2415'
p3447
(lp3448
S'dance_lvl_1'
p3449
asS'2414'
p3450
(lp3451
S'dance_lvl_1'
p3452
asS'2141'
p3453
(lp3454
S'dance_lvl_2'
p3455
asS'2140'
p3456
(lp3457
S'dance_lvl_2'
p3458
asS'920'
p3459
(lp3460
S'dance_lvl_2'
p3461
asS'921'
p3462
(lp3463
S'dance_lvl_2'
p3464
asS'922'
p3465
(lp3466
S'dance_lvl_2'
p3467
asS'923'
p3468
(lp3469
S'dance_lvl_2'
p3470
asS'924'
p3471
(lp3472
S'dance_lvl_2'
p3473
asS'925'
p3474
(lp3475
S'dance_lvl_2'
p3476
asS'2149'
p3477
(lp3478
S'dance_lvl_1'
p3479
asS'927'
p3480
(lp3481
S'dance_lvl_2'
p3482
asS'1920'
p3483
(lp3484
S'dance_lvl_1'
p3485
asS'1921'
p3486
(lp3487
S'dance_lvl_1'
p3488
asS'1922'
p3489
(lp3490
S'dance_lvl_1'
p3491
asS'1923'
p3492
(lp3493
S'dance_lvl_1'
p3494
asS'1924'
p3495
(lp3496
S'dance_lvl_1'
p3497
asS'1925'
p3498
(lp3499
S'dance_lvl_1'
p3500
asS'1926'
p3501
(lp3502
S'dance_lvl_2'
p3503
asS'1927'
p3504
(lp3505
S'dance_lvl_2'
p3506
asS'1928'
p3507
(lp3508
S'dance_lvl_2'
p3509
asS'1929'
p3510
(lp3511
S'dance_lvl_2'
p3512
asS'832'
p3513
(lp3514
S'dance_lvl_3'
p3515
asS'833'
p3516
(lp3517
S'dance_lvl_2'
p3518
asS'830'
p3519
(lp3520
S'dance_lvl_3'
p3521
asS'831'
p3522
(lp3523
S'dance_lvl_3'
p3524
asS'836'
p3525
(lp3526
S'dance_lvl_3'
p3527
asS'837'
p3528
(lp3529
S'dance_lvl_3'
p3530
asS'834'
p3531
(lp3532
S'dance_lvl_3'
p3533
asS'835'
p3534
(lp3535
S'dance_lvl_2'
p3536
asS'838'
p3537
(lp3538
S'dance_lvl_3'
p3539
asS'839'
p3540
(lp3541
S'dance_lvl_3'
p3542
asS'3'
(lp3543
S'dance_lvl_1'
p3544
asS'1986'
p3545
(lp3546
S'dance_lvl_3'
p3547
asS'2935'
p3548
(lp3549
S'dance_lvl_2'
p3550
asS'1987'
p3551
(lp3552
S'dance_lvl_3'
p3553
asS'784'
p3554
(lp3555
S'dance_lvl_3'
p3556
asS'785'
p3557
(lp3558
S'dance_lvl_3'
p3559
asS'786'
p3560
(lp3561
S'dance_lvl_3'
p3562
asS'787'
p3563
(lp3564
S'dance_lvl_3'
p3565
asS'780'
p3566
(lp3567
S'dance_lvl_3'
p3568
asS'781'
p3569
(lp3570
S'dance_lvl_2'
p3571
asS'1728'
p3572
(lp3573
S'dance_lvl_1'
p3574
asS'1729'
p3575
(lp3576
S'dance_lvl_1'
p3577
asS'1726'
p3578
(lp3579
S'dance_lvl_1'
p3580
asS'1727'
p3581
(lp3582
S'dance_lvl_1'
p3583
asS'1724'
p3584
(lp3585
S'dance_lvl_3'
p3586
asS'1725'
p3587
(lp3588
S'dance_lvl_1'
p3589
asS'788'
p3590
(lp3591
S'dance_lvl_3'
p3592
asS'1723'
p3593
(lp3594
S'dance_lvl_1'
p3595
asS'1720'
p3596
(lp3597
S'dance_lvl_3'
p3598
asS'1721'
p3599
(lp3600
S'dance_lvl_2'
p3601
asS'2439'
p3602
(lp3603
S'dance_lvl_2'
p3604
asS'60'
p3605
(lp3606
S'dance_lvl_3'
p3607
asS'690'
p3608
(lp3609
S'dance_lvl_2'
p3610
asS'62'
p3611
(lp3612
S'dance_lvl_3'
p3613
asS'2438'
p3614
(lp3615
S'dance_lvl_2'
p3616
asS'3001'
p3617
(lp3618
S'dance_lvl_1'
p3619
asS'3000'
p3620
(lp3621
S'dance_lvl_1'
p3622
asS'66'
p3623
(lp3624
S'dance_lvl_3'
p3625
asS'3002'
p3626
(lp3627
S'dance_lvl_1'
p3628
asS'68'
p3629
(lp3630
S'dance_lvl_3'
p3631
asS'69'
p3632
(lp3633
S'dance_lvl_1'
p3634
asS'1371'
p3635
(lp3636
S'dance_lvl_3'
p3637
asS'1588'
p3638
(lp3639
S'dance_lvl_1'
p3640
asS'1589'
p3641
(lp3642
S'dance_lvl_1'
p3643
asS'406'
p3644
(lp3645
S'dance_lvl_3'
p3646
asS'1582'
p3647
(lp3648
S'dance_lvl_1'
p3649
asS'1583'
p3650
(lp3651
S'dance_lvl_1'
p3652
asS'1580'
p3653
(lp3654
S'dance_lvl_1'
p3655
asS'1581'
p3656
(lp3657
S'dance_lvl_1'
p3658
asS'1586'
p3659
(lp3660
S'dance_lvl_1'
p3661
asS'1587'
p3662
(lp3663
S'dance_lvl_1'
p3664
asS'1584'
p3665
(lp3666
S'dance_lvl_3'
p3667
asS'1585'
p3668
(lp3669
S'dance_lvl_1'
p3670
asS'2433'
p3671
(lp3672
S'dance_lvl_2'
p3673
asS'1038'
p3674
(lp3675
S'dance_lvl_2'
p3676
asS'1039'
p3677
(lp3678
S'dance_lvl_2'
p3679
asS'508'
p3680
(lp3681
S'dance_lvl_3'
p3682
asS'158'
p3683
(lp3684
S'dance_lvl_3'
p3685
asS'506'
p3686
(lp3687
S'dance_lvl_1'
p3688
asS'1033'
p3689
(lp3690
S'dance_lvl_2'
p3691
asS'1030'
p3692
(lp3693
S'dance_lvl_2'
p3694
asS'505'
p3695
(lp3696
S'dance_lvl_2'
p3697
asS'502'
p3698
(lp3699
S'dance_lvl_1'
p3700
asS'503'
p3701
(lp3702
S'dance_lvl_1'
p3703
asS'500'
p3704
(lp3705
S'dance_lvl_1'
p3706
asS'501'
p3707
(lp3708
S'dance_lvl_1'
p3709
asS'1212'
p3710
(lp3711
S'dance_lvl_2'
p3712
asS'1213'
p3713
(lp3714
S'dance_lvl_2'
p3715
asS'1210'
p3716
(lp3717
S'dance_lvl_2'
p3718
asS'1211'
p3719
(lp3720
S'dance_lvl_2'
p3721
asS'1216'
p3722
(lp3723
S'dance_lvl_2'
p3724
asS'635'
p3725
(lp3726
S'dance_lvl_3'
p3727
asS'636'
p3728
(lp3729
S'dance_lvl_3'
p3730
asS'1215'
p3731
(lp3732
S'dance_lvl_2'
p3733
asS'638'
p3734
(lp3735
S'dance_lvl_3'
p3736
asS'639'
p3737
(lp3738
S'dance_lvl_3'
p3739
asS'1218'
p3740
(lp3741
S'dance_lvl_2'
p3742
asS'1219'
p3743
(lp3744
S'dance_lvl_2'
p3745
asS'2416'
p3746
(lp3747
S'dance_lvl_2'
p3748
asS'782'
p3749
(lp3750
S'dance_lvl_2'
p3751
asS'2899'
p3752
(lp3753
S'dance_lvl_1'
p3754
asS'2898'
p3755
(lp3756
S'dance_lvl_1'
p3757
asS'2895'
p3758
(lp3759
S'dance_lvl_1'
p3760
asS'2894'
p3761
(lp3762
S'dance_lvl_1'
p3763
asS'2897'
p3764
(lp3765
S'dance_lvl_1'
p3766
asS'2896'
p3767
(lp3768
S'dance_lvl_1'
p3769
asS'2891'
p3770
(lp3771
S'dance_lvl_2'
p3772
asS'2890'
p3773
(lp3774
S'dance_lvl_1'
p3775
asS'2893'
p3776
(lp3777
S'dance_lvl_2'
p3778
asS'2892'
p3779
(lp3780
S'dance_lvl_1'
p3781
asS'1454'
p3782
(lp3783
S'dance_lvl_2'
p3784
asS'1455'
p3785
(lp3786
S'dance_lvl_2'
p3787
asS'1456'
p3788
(lp3789
S'dance_lvl_2'
p3790
asS'1457'
p3791
(lp3792
S'dance_lvl_2'
p3793
asS'1450'
p3794
(lp3795
S'dance_lvl_2'
p3796
asS'1451'
p3797
(lp3798
S'dance_lvl_2'
p3799
asS'1452'
p3800
(lp3801
S'dance_lvl_2'
p3802
asS'1453'
p3803
(lp3804
S'dance_lvl_2'
p3805
asS'2419'
p3806
(lp3807
S'dance_lvl_2'
p3808
asS'1458'
p3809
(lp3810
S'dance_lvl_3'
p3811
asS'1459'
p3812
(lp3813
S'dance_lvl_3'
p3814
asS'1108'
p3815
(lp3816
S'dance_lvl_3'
p3817
asS'783'
p3818
(lp3819
S'dance_lvl_3'
p3820
asS'1722'
p3821
(lp3822
S'dance_lvl_3'
p3823
asS'789'
p3824
(lp3825
S'dance_lvl_2'
p3826
asS'2418'
p3827
(lp3828
S'dance_lvl_2'
p3829
asS'1897'
p3830
(lp3831
S'dance_lvl_3'
p3832
asS'959'
p3833
(lp3834
S'dance_lvl_3'
p3835
asS'958'
p3836
(lp3837
S'dance_lvl_3'
p3838
asS'2965'
p3839
(lp3840
S'dance_lvl_3'
p3841
asS'216'
p3842
(lp3843
S'dance_lvl_1'
p3844
asS'217'
p3845
(lp3846
S'dance_lvl_1'
p3847
asS'214'
p3848
(lp3849
S'dance_lvl_1'
p3850
asS'215'
p3851
(lp3852
S'dance_lvl_1'
p3853
asS'212'
p3854
(lp3855
S'dance_lvl_1'
p3856
asS'213'
p3857
(lp3858
S'dance_lvl_1'
p3859
asS'210'
p3860
(lp3861
S'dance_lvl_2'
p3862
asS'211'
p3863
(lp3864
S'dance_lvl_3'
p3865
asS'218'
p3866
(lp3867
S'dance_lvl_1'
p3868
asS'219'
p3869
(lp3870
S'dance_lvl_1'
p3871
asS'957'
p3872
(lp3873
S'dance_lvl_3'
p3874
asS'2139'
p3875
(lp3876
S'dance_lvl_2'
p3877
asS'4'
(lp3878
S'dance_lvl_1'
p3879
asS'2669'
p3880
(lp3881
S'dance_lvl_2'
p3882
asS'938'
p3883
(lp3884
S'dance_lvl_2'
p3885
asS'2550'
p3886
(lp3887
S'dance_lvl_3'
p3888
asS'2551'
p3889
(lp3890
S'dance_lvl_3'
p3891
asS'2552'
p3892
(lp3893
S'dance_lvl_3'
p3894
asS'2553'
p3895
(lp3896
S'dance_lvl_2'
p3897
asS'2012'
p3898
(lp3899
S'dance_lvl_3'
p3900
asS'2555'
p3901
(lp3902
S'dance_lvl_3'
p3903
asS'2556'
p3904
(lp3905
S'dance_lvl_3'
p3906
asS'61'
p3907
(lp3908
S'dance_lvl_3'
p3909
asS'2558'
p3910
(lp3911
S'dance_lvl_3'
p3912
asS'2559'
p3913
(lp3914
S'dance_lvl_3'
p3915
asS'2396'
p3916
(lp3917
S'dance_lvl_1'
p3918
asS'2397'
p3919
(lp3920
S'dance_lvl_1'
p3921
asS'2394'
p3922
(lp3923
S'dance_lvl_1'
p3924
asS'63'
p3925
(lp3926
S'dance_lvl_3'
p3927
asS'2392'
p3928
(lp3929
S'dance_lvl_1'
p3930
asS'2393'
p3931
(lp3932
S'dance_lvl_1'
p3933
asS'2390'
p3934
(lp3935
S'dance_lvl_1'
p3936
asS'2391'
p3937
(lp3938
S'dance_lvl_1'
p3939
asS'64'
p3940
(lp3941
S'dance_lvl_3'
p3942
asS'2398'
p3943
(lp3944
S'dance_lvl_1'
p3945
asS'2399'
p3946
(lp3947
S'dance_lvl_1'
p3948
asS'2778'
p3949
(lp3950
S'dance_lvl_1'
p3951
asS'2779'
p3952
(lp3953
S'dance_lvl_1'
p3954
asS'2770'
p3955
(lp3956
S'dance_lvl_1'
p3957
asS'2771'
p3958
(lp3959
S'dance_lvl_1'
p3960
asS'2772'
p3961
(lp3962
S'dance_lvl_1'
p3963
asS'2773'
p3964
(lp3965
S'dance_lvl_1'
p3966
asS'2774'
p3967
(lp3968
S'dance_lvl_1'
p3969
asS'2775'
p3970
(lp3971
S'dance_lvl_1'
p3972
asS'2776'
p3973
(lp3974
S'dance_lvl_3'
p3975
asS'2777'
p3976
(lp3977
S'dance_lvl_1'
p3978
asS'1858'
p3979
(lp3980
S'dance_lvl_2'
p3981
asS'1859'
p3982
(lp3983
S'dance_lvl_2'
p3984
asS'1850'
p3985
(lp3986
S'dance_lvl_2'
p3987
asS'1851'
p3988
(lp3989
S'dance_lvl_1'
p3990
asS'1852'
p3991
(lp3992
S'dance_lvl_1'
p3993
asS'1853'
p3994
(lp3995
S'dance_lvl_1'
p3996
asS'1854'
p3997
(lp3998
S'dance_lvl_1'
p3999
asS'1855'
p4000
(lp4001
S'dance_lvl_1'
p4002
asS'1856'
p4003
(lp4004
S'dance_lvl_2'
p4005
asS'1857'
p4006
(lp4007
S'dance_lvl_2'
p4008
asS'2172'
p4009
(lp4010
S'dance_lvl_1'
p4011
asS'2173'
p4012
(lp4013
S'dance_lvl_3'
p4014
asS'2170'
p4015
(lp4016
S'dance_lvl_3'
p4017
asS'2171'
p4018
(lp4019
S'dance_lvl_1'
p4020
asS'2176'
p4021
(lp4022
S'dance_lvl_1'
p4023
asS'2177'
p4024
(lp4025
S'dance_lvl_1'
p4026
asS'2174'
p4027
(lp4028
S'dance_lvl_3'
p4029
asS'2175'
p4030
(lp4031
S'dance_lvl_1'
p4032
asS'915'
p4033
(lp4034
S'dance_lvl_3'
p4035
asS'914'
p4036
(lp4037
S'dance_lvl_3'
p4038
asS'2178'
p4039
(lp4040
S'dance_lvl_1'
p4041
asS'2179'
p4042
(lp4043
S'dance_lvl_2'
p4044
asS'911'
p4045
(lp4046
S'dance_lvl_3'
p4047
asS'910'
p4048
(lp4049
S'dance_lvl_3'
p4050
asS'913'
p4051
(lp4052
S'dance_lvl_3'
p4053
asS'2152'
p4054
(lp4055
S'dance_lvl_2'
p4056
asS'2604'
p4057
(lp4058
S'dance_lvl_1'
p4059
asS'2605'
p4060
(lp4061
S'dance_lvl_1'
p4062
asS'2606'
p4063
(lp4064
S'dance_lvl_1'
p4065
asS'2607'
p4066
(lp4067
S'dance_lvl_1'
p4068
asS'2600'
p4069
(lp4070
S'dance_lvl_1'
p4071
asS'2601'
p4072
(lp4073
S'dance_lvl_3'
p4074
asS'516'
p4075
(lp4076
S'dance_lvl_2'
p4077
asS'2603'
p4078
(lp4079
S'dance_lvl_1'
p4080
asS'2608'
p4081
(lp4082
S'dance_lvl_1'
p4083
asS'2609'
p4084
(lp4085
S'dance_lvl_3'
p4086
asS'1933'
p4087
(lp4088
S'dance_lvl_3'
p4089
asS'1932'
p4090
(lp4091
S'dance_lvl_3'
p4092
asS'1931'
p4093
(lp4094
S'dance_lvl_2'
p4095
asS'1930'
p4096
(lp4097
S'dance_lvl_2'
p4098
asS'1937'
p4099
(lp4100
S'dance_lvl_2'
p4101
asS'1936'
p4102
(lp4103
S'dance_lvl_3'
p4104
asS'1935'
p4105
(lp4106
S'dance_lvl_3'
p4107
asS'1934'
p4108
(lp4109
S'dance_lvl_3'
p4110
asS'1939'
p4111
(lp4112
S'dance_lvl_3'
p4113
asS'1938'
p4114
(lp4115
S'dance_lvl_3'
p4116
asS'847'
p4117
(lp4118
S'dance_lvl_2'
p4119
asS'846'
p4120
(lp4121
S'dance_lvl_2'
p4122
asS'845'
p4123
(lp4124
S'dance_lvl_2'
p4125
asS'844'
p4126
(lp4127
S'dance_lvl_2'
p4128
asS'843'
p4129
(lp4130
S'dance_lvl_3'
p4131
asS'842'
p4132
(lp4133
S'dance_lvl_1'
p4134
asS'841'
p4135
(lp4136
S'dance_lvl_3'
p4137
asS'840'
p4138
(lp4139
S'dance_lvl_3'
p4140
asS'849'
p4141
(lp4142
S'dance_lvl_2'
p4143
asS'848'
p4144
(lp4145
S'dance_lvl_1'
p4146
asS'1739'
p4147
(lp4148
S'dance_lvl_1'
p4149
asS'1738'
p4150
(lp4151
S'dance_lvl_1'
p4152
asS'1731'
p4153
(lp4154
S'dance_lvl_3'
p4155
asS'1730'
p4156
(lp4157
S'dance_lvl_1'
p4158
asS'1733'
p4159
(lp4160
S'dance_lvl_1'
p4161
asS'1732'
p4162
(lp4163
S'dance_lvl_1'
p4164
asS'1735'
p4165
(lp4166
S'dance_lvl_1'
p4167
asS'1734'
p4168
(lp4169
S'dance_lvl_1'
p4170
asS'1737'
p4171
(lp4172
S'dance_lvl_1'
p4173
asS'1736'
p4174
(lp4175
S'dance_lvl_1'
p4176
asS'753'
p4177
(lp4178
S'dance_lvl_3'
p4179
asS'752'
p4180
(lp4181
S'dance_lvl_3'
p4182
asS'751'
p4183
(lp4184
S'dance_lvl_3'
p4185
asS'750'
p4186
(lp4187
S'dance_lvl_3'
p4188
asS'757'
p4189
(lp4190
S'dance_lvl_3'
p4191
asS'756'
p4192
(lp4193
S'dance_lvl_3'
p4194
asS'755'
p4195
(lp4196
S'dance_lvl_3'
p4197
asS'754'
p4198
(lp4199
S'dance_lvl_3'
p4200
asS'759'
p4201
(lp4202
S'dance_lvl_3'
p4203
asS'509'
p4204
(lp4205
S'dance_lvl_3'
p4206
asS'1595'
p4207
(lp4208
S'dance_lvl_3'
p4209
asS'1032'
p4210
(lp4211
S'dance_lvl_2'
p4212
asS'1597'
p4213
(lp4214
S'dance_lvl_2'
p4215
asS'1596'
p4216
(lp4217
S'dance_lvl_2'
p4218
asS'2958'
p4219
(lp4220
S'dance_lvl_1'
p4221
asS'2959'
p4222
(lp4223
S'dance_lvl_1'
p4224
asS'1593'
p4225
(lp4226
S'dance_lvl_2'
p4227
asS'1592'
p4228
(lp4229
S'dance_lvl_2'
p4230
asS'2954'
p4231
(lp4232
S'dance_lvl_3'
p4233
asS'2955'
p4234
(lp4235
S'dance_lvl_3'
p4236
asS'2956'
p4237
(lp4238
S'dance_lvl_3'
p4239
asS'2957'
p4240
(lp4241
S'dance_lvl_1'
p4242
asS'1599'
p4243
(lp4244
S'dance_lvl_2'
p4245
asS'1598'
p4246
(lp4247
S'dance_lvl_2'
p4248
asS'2952'
p4249
(lp4250
S'dance_lvl_2'
p4251
asS'2953'
p4252
(lp4253
S'dance_lvl_3'
p4254
asS'1025'
p4255
(lp4256
S'dance_lvl_2'
p4257
asS'1024'
p4258
(lp4259
S'dance_lvl_2'
p4260
asS'1027'
p4261
(lp4262
S'dance_lvl_2'
p4263
asS'1026'
p4264
(lp4265
S'dance_lvl_2'
p4266
asS'1021'
p4267
(lp4268
S'dance_lvl_1'
p4269
asS'1020'
p4270
(lp4271
S'dance_lvl_1'
p4272
asS'1023'
p4273
(lp4274
S'dance_lvl_2'
p4275
asS'1022'
p4276
(lp4277
S'dance_lvl_2'
p4278
asS'1036'
p4279
(lp4280
S'dance_lvl_3'
p4281
asS'1029'
p4282
(lp4283
S'dance_lvl_2'
p4284
asS'1028'
p4285
(lp4286
S'dance_lvl_2'
p4287
asS'1037'
p4288
(lp4289
S'dance_lvl_2'
p4290
asS'1034'
p4291
(lp4292
S'dance_lvl_2'
p4293
asS'1035'
p4294
(lp4295
S'dance_lvl_2'
p4296
asS'605'
p4297
(lp4298
S'dance_lvl_3'
p4299
asS'604'
p4300
(lp4301
S'dance_lvl_3'
p4302
asS'607'
p4303
(lp4304
S'dance_lvl_3'
p4305
asS'606'
p4306
(lp4307
S'dance_lvl_2'
p4308
asS'601'
p4309
(lp4310
S'dance_lvl_2'
p4311
asS'1208'
p4312
(lp4313
S'dance_lvl_2'
p4314
asS'603'
p4315
(lp4316
S'dance_lvl_3'
p4317
asS'602'
p4318
(lp4319
S'dance_lvl_3'
p4320
asS'1205'
p4321
(lp4322
S'dance_lvl_2'
p4323
asS'1204'
p4324
(lp4325
S'dance_lvl_2'
p4326
asS'1207'
p4327
(lp4328
S'dance_lvl_2'
p4329
asS'1206'
p4330
(lp4331
S'dance_lvl_2'
p4332
asS'1201'
p4333
(lp4334
S'dance_lvl_2'
p4335
asS'608'
p4336
(lp4337
S'dance_lvl_2'
p4338
asS'1203'
p4339
(lp4340
S'dance_lvl_2'
p4341
asS'1202'
p4342
(lp4343
S'dance_lvl_2'
p4344
asS'1560'
p4345
(lp4346
S'dance_lvl_2'
p4347
asS'634'
p4348
(lp4349
S'dance_lvl_3'
p4350
asS'935'
p4351
(lp4352
S'dance_lvl_2'
p4353
asS'1217'
p4354
(lp4355
S'dance_lvl_3'
p4356
asS'1214'
p4357
(lp4358
S'dance_lvl_3'
p4359
asS'637'
p4360
(lp4361
S'dance_lvl_3'
p4362
asS'1447'
p4363
(lp4364
S'dance_lvl_2'
p4365
asS'1353'
p4366
(lp4367
S'dance_lvl_2'
p4368
asS'1445'
p4369
(lp4370
S'dance_lvl_1'
p4371
asS'1444'
p4372
(lp4373
S'dance_lvl_2'
p4374
asS'1115'
p4375
(lp4376
S'dance_lvl_1'
p4377
asS'1114'
p4378
(lp4379
S'dance_lvl_1'
p4380
asS'1117'
p4381
(lp4382
S'dance_lvl_1'
p4383
asS'1116'
p4384
(lp4385
S'dance_lvl_1'
p4386
asS'1119'
p4387
(lp4388
S'dance_lvl_3'
p4389
asS'1118'
p4390
(lp4391
S'dance_lvl_1'
p4392
asS'1351'
p4393
(lp4394
S'dance_lvl_2'
p4395
asS'1449'
p4396
(lp4397
S'dance_lvl_1'
p4398
asS'1448'
p4399
(lp4400
S'dance_lvl_2'
p4401
asS'1350'
p4402
(lp4403
S'dance_lvl_2'
p4404
asS'1357'
p4405
(lp4406
S'dance_lvl_2'
p4407
asS'1356'
p4408
(lp4409
S'dance_lvl_2'
p4410
asS'1355'
p4411
(lp4412
S'dance_lvl_2'
p4413
asS'489'
p4414
(lp4415
S'dance_lvl_1'
p4416
asS'488'
p4417
(lp4418
S'dance_lvl_1'
p4419
asS'487'
p4420
(lp4421
S'dance_lvl_3'
p4422
asS'486'
p4423
(lp4424
S'dance_lvl_1'
p4425
asS'485'
p4426
(lp4427
S'dance_lvl_2'
p4428
asS'484'
p4429
(lp4430
S'dance_lvl_2'
p4431
asS'483'
p4432
(lp4433
S'dance_lvl_2'
p4434
asS'482'
p4435
(lp4436
S'dance_lvl_2'
p4437
asS'481'
p4438
(lp4439
S'dance_lvl_2'
p4440
asS'480'
p4441
(lp4442
S'dance_lvl_2'
p4443
asS'991'
p4444
(lp4445
S'dance_lvl_1'
p4446
asS'1564'
p4447
(lp4448
S'dance_lvl_2'
p4449
asS'1565'
p4450
(lp4451
S'dance_lvl_2'
p4452
asS'1567'
p4453
(lp4454
S'dance_lvl_3'
p4455
asS'199'
p4456
(lp4457
S'dance_lvl_2'
p4458
asS'198'
p4459
(lp4460
S'dance_lvl_2'
p4461
asS'195'
p4462
(lp4463
S'dance_lvl_1'
p4464
asS'194'
p4465
(lp4466
S'dance_lvl_1'
p4467
asS'197'
p4468
(lp4469
S'dance_lvl_2'
p4470
asS'196'
p4471
(lp4472
S'dance_lvl_1'
p4473
asS'191'
p4474
(lp4475
S'dance_lvl_1'
p4476
asS'190'
p4477
(lp4478
S'dance_lvl_1'
p4479
asS'193'
p4480
(lp4481
S'dance_lvl_1'
p4482
asS'192'
p4483
(lp4484
S'dance_lvl_1'
p4485
asS'2543'
p4486
(lp4487
S'dance_lvl_3'
p4488
asS'2542'
p4489
(lp4490
S'dance_lvl_1'
p4491
asS'2541'
p4492
(lp4493
S'dance_lvl_1'
p4494
asS'2540'
p4495
(lp4496
S'dance_lvl_1'
p4497
asS'2547'
p4498
(lp4499
S'dance_lvl_3'
p4500
asS'2546'
p4501
(lp4502
S'dance_lvl_3'
p4503
asS'2545'
p4504
(lp4505
S'dance_lvl_3'
p4506
asS'1107'
p4507
(lp4508
S'dance_lvl_3'
p4509
asS'2549'
p4510
(lp4511
S'dance_lvl_3'
p4512
asS'2548'
p4513
(lp4514
S'dance_lvl_3'
p4515
asS'1104'
p4516
(lp4517
S'dance_lvl_3'
p4518
asS'2381'
p4519
(lp4520
S'dance_lvl_1'
p4521
asS'2380'
p4522
(lp4523
S'dance_lvl_3'
p4524
asS'2383'
p4525
(lp4526
S'dance_lvl_1'
p4527
asS'2382'
p4528
(lp4529
S'dance_lvl_1'
p4530
asS'2385'
p4531
(lp4532
S'dance_lvl_1'
p4533
asS'2384'
p4534
(lp4535
S'dance_lvl_2'
p4536
asS'2387'
p4537
(lp4538
S'dance_lvl_1'
p4539
asS'2386'
p4540
(lp4541
S'dance_lvl_1'
p4542
asS'2389'
p4543
(lp4544
S'dance_lvl_1'
p4545
asS'2388'
p4546
(lp4547
S'dance_lvl_1'
p4548
asS'1103'
p4549
(lp4550
S'dance_lvl_3'
p4551
asS'2769'
p4552
(lp4553
S'dance_lvl_1'
p4554
asS'2768'
p4555
(lp4556
S'dance_lvl_1'
p4557
asS'1100'
p4558
(lp4559
S'dance_lvl_3'
p4560
asS'2763'
p4561
(lp4562
S'dance_lvl_1'
p4563
asS'2762'
p4564
(lp4565
S'dance_lvl_1'
p4566
asS'2761'
p4567
(lp4568
S'dance_lvl_1'
p4569
asS'2760'
p4570
(lp4571
S'dance_lvl_1'
p4572
asS'2767'
p4573
(lp4574
S'dance_lvl_1'
p4575
asS'2766'
p4576
(lp4577
S'dance_lvl_1'
p4578
asS'2765'
p4579
(lp4580
S'dance_lvl_1'
p4581
asS'2764'
p4582
(lp4583
S'dance_lvl_1'
p4584
asS'902'
p4585
(lp4586
S'dance_lvl_2'
p4587
asS'903'
p4588
(lp4589
S'dance_lvl_2'
p4590
asS'1849'
p4591
(lp4592
S'dance_lvl_1'
p4593
asS'1848'
p4594
(lp4595
S'dance_lvl_1'
p4596
asS'906'
p4597
(lp4598
S'dance_lvl_2'
p4599
asS'907'
p4600
(lp4601
S'dance_lvl_3'
p4602
asS'904'
p4603
(lp4604
S'dance_lvl_2'
p4605
asS'905'
p4606
(lp4607
S'dance_lvl_2'
p4608
asS'1843'
p4609
(lp4610
S'dance_lvl_1'
p4611
asS'1842'
p4612
(lp4613
S'dance_lvl_1'
p4614
asS'1841'
p4615
(lp4616
S'dance_lvl_1'
p4617
asS'1840'
p4618
(lp4619
S'dance_lvl_1'
p4620
asS'1847'
p4621
(lp4622
S'dance_lvl_2'
p4623
asS'1846'
p4624
(lp4625
S'dance_lvl_1'
p4626
asS'1845'
p4627
(lp4628
S'dance_lvl_1'
p4629
asS'1844'
p4630
(lp4631
S'dance_lvl_1'
p4632
asS'2169'
p4633
(lp4634
S'dance_lvl_3'
p4635
asS'2168'
p4636
(lp4637
S'dance_lvl_3'
p4638
asS'2165'
p4639
(lp4640
S'dance_lvl_3'
p4641
asS'2164'
p4642
(lp4643
S'dance_lvl_3'
p4644
asS'2167'
p4645
(lp4646
S'dance_lvl_3'
p4647
asS'1109'
p4648
(lp4649
S'dance_lvl_3'
p4650
asS'2161'
p4651
(lp4652
S'dance_lvl_3'
p4653
asS'2160'
p4654
(lp4655
S'dance_lvl_3'
p4656
asS'2163'
p4657
(lp4658
S'dance_lvl_3'
p4659
asS'2162'
p4660
(lp4661
S'dance_lvl_3'
p4662
asS'2617'
p4663
(lp4664
S'dance_lvl_1'
p4665
asS'2616'
p4666
(lp4667
S'dance_lvl_1'
p4668
asS'2615'
p4669
(lp4670
S'dance_lvl_1'
p4671
asS'2614'
p4672
(lp4673
S'dance_lvl_1'
p4674
asS'2613'
p4675
(lp4676
S'dance_lvl_2'
p4677
asS'2612'
p4678
(lp4679
S'dance_lvl_2'
p4680
asS'2611'
p4681
(lp4682
S'dance_lvl_1'
p4683
asS'2610'
p4684
(lp4685
S'dance_lvl_1'
p4686
asS'2619'
p4687
(lp4688
S'dance_lvl_1'
p4689
asS'2618'
p4690
(lp4691
S'dance_lvl_1'
p4692
asS'1908'
p4693
(lp4694
S'dance_lvl_3'
p4695
asS'1909'
p4696
(lp4697
S'dance_lvl_1'
p4698
asS'1906'
p4699
(lp4700
S'dance_lvl_3'
p4701
asS'1907'
p4702
(lp4703
S'dance_lvl_3'
p4704
asS'1904'
p4705
(lp4706
S'dance_lvl_3'
p4707
asS'1905'
p4708
(lp4709
S'dance_lvl_3'
p4710
asS'1902'
p4711
(lp4712
S'dance_lvl_3'
p4713
asS'1903'
p4714
(lp4715
S'dance_lvl_3'
p4716
asS'1900'
p4717
(lp4718
S'dance_lvl_3'
p4719
asS'1901'
p4720
(lp4721
S'dance_lvl_3'
p4722
asS'854'
p4723
(lp4724
S'dance_lvl_2'
p4725
asS'855'
p4726
(lp4727
S'dance_lvl_2'
p4728
asS'856'
p4729
(lp4730
S'dance_lvl_3'
p4731
asS'857'
p4732
(lp4733
S'dance_lvl_2'
p4734
asS'850'
p4735
(lp4736
S'dance_lvl_2'
p4737
asS'851'
p4738
(lp4739
S'dance_lvl_2'
p4740
asS'852'
p4741
(lp4742
S'dance_lvl_2'
p4743
asS'819'
p4744
(lp4745
S'dance_lvl_2'
p4746
asS'858'
p4747
(lp4748
S'dance_lvl_3'
p4749
asS'859'
p4750
(lp4751
S'dance_lvl_3'
p4752
asS'6'
(lp4753
S'dance_lvl_1'
p4754
asS'2463'
p4755
(lp4756
S'dance_lvl_3'
p4757
asS'811'
p4758
(lp4759
S'dance_lvl_3'
p4760
asS'611'
p4761
(lp4762
S'dance_lvl_3'
p4763
asS'616'
p4764
(lp4765
S'dance_lvl_3'
p4766
asS'740'
p4767
(lp4768
S'dance_lvl_1'
p4769
asS'741'
p4770
(lp4771
S'dance_lvl_1'
p4772
asS'742'
p4773
(lp4774
S'dance_lvl_2'
p4775
asS'743'
p4776
(lp4777
S'dance_lvl_2'
p4778
asS'744'
p4779
(lp4780
S'dance_lvl_3'
p4781
asS'745'
p4782
(lp4783
S'dance_lvl_2'
p4784
asS'746'
p4785
(lp4786
S'dance_lvl_2'
p4787
asS'747'
p4788
(lp4789
S'dance_lvl_2'
p4790
asS'748'
p4791
(lp4792
S'dance_lvl_2'
p4793
asS'749'
p4794
(lp4795
S'dance_lvl_3'
p4796
asS'2912'
p4797
(lp4798
S'dance_lvl_2'
p4799
asS'1798'
p4800
(lp4801
S'dance_lvl_2'
p4802
asS'926'
p4803
(lp4804
S'dance_lvl_2'
p4805
asS'2949'
p4806
(lp4807
S'dance_lvl_3'
p4808
asS'2948'
p4809
(lp4810
S'dance_lvl_3'
p4811
asS'2947'
p4812
(lp4813
S'dance_lvl_3'
p4814
asS'2946'
p4815
(lp4816
S'dance_lvl_1'
p4817
asS'2945'
p4818
(lp4819
S'dance_lvl_3'
p4820
asS'2944'
p4821
(lp4822
S'dance_lvl_3'
p4823
asS'2943'
p4824
(lp4825
S'dance_lvl_3'
p4826
asS'2942'
p4827
(lp4828
S'dance_lvl_3'
p4829
asS'2941'
p4830
(lp4831
S'dance_lvl_3'
p4832
asS'2940'
p4833
(lp4834
S'dance_lvl_3'
p4835
asS'1050'
p4836
(lp4837
S'dance_lvl_2'
p4838
asS'1051'
p4839
(lp4840
S'dance_lvl_1'
p4841
asS'1052'
p4842
(lp4843
S'dance_lvl_2'
p4844
asS'1053'
p4845
(lp4846
S'dance_lvl_2'
p4847
asS'1054'
p4848
(lp4849
S'dance_lvl_2'
p4850
asS'1055'
p4851
(lp4852
S'dance_lvl_2'
p4853
asS'1056'
p4854
(lp4855
S'dance_lvl_2'
p4856
asS'1057'
p4857
(lp4858
S'dance_lvl_2'
p4859
asS'1058'
p4860
(lp4861
S'dance_lvl_3'
p4862
asS'1059'
p4863
(lp4864
S'dance_lvl_3'
p4865
asS'2917'
p4866
(lp4867
S'dance_lvl_2'
p4868
asS'1696'
p4869
(lp4870
S'dance_lvl_3'
p4871
asS'1793'
p4872
(lp4873
S'dance_lvl_2'
p4874
asS'1694'
p4875
(lp4876
S'dance_lvl_3'
p4877
asS'1695'
p4878
(lp4879
S'dance_lvl_3'
p4880
asS'1692'
p4881
(lp4882
S'dance_lvl_3'
p4883
asS'1693'
p4884
(lp4885
S'dance_lvl_3'
p4886
asS'1690'
p4887
(lp4888
S'dance_lvl_1'
p4889
asS'1792'
p4890
(lp4891
S'dance_lvl_2'
p4892
asS'715'
p4893
(lp4894
S'dance_lvl_2'
p4895
asS'1698'
p4896
(lp4897
S'dance_lvl_3'
p4898
asS'1699'
p4899
(lp4900
S'dance_lvl_3'
p4901
asS'1278'
p4902
(lp4903
S'dance_lvl_1'
p4904
asS'1279'
p4905
(lp4906
S'dance_lvl_1'
p4907
asS'618'
p4908
(lp4909
S'dance_lvl_3'
p4910
asS'1790'
p4911
(lp4912
S'dance_lvl_2'
p4913
asS'612'
p4914
(lp4915
S'dance_lvl_1'
p4916
asS'1271'
p4917
(lp4918
S'dance_lvl_2'
p4919
asS'610'
p4920
(lp4921
S'dance_lvl_1'
p4922
asS'1273'
p4923
(lp4924
S'dance_lvl_2'
p4925
asS'1274'
p4926
(lp4927
S'dance_lvl_2'
p4928
asS'617'
p4929
(lp4930
S'dance_lvl_1'
p4931
asS'1276'
p4932
(lp4933
S'dance_lvl_1'
p4934
asS'1277'
p4935
(lp4936
S'dance_lvl_1'
p4937
asS'1795'
p4938
(lp4939
S'dance_lvl_2'
p4940
asS'1794'
p4941
(lp4942
S'dance_lvl_2'
p4943
asS'2469'
p4944
(lp4945
S'dance_lvl_2'
p4946
asS'1472'
p4947
(lp4948
S'dance_lvl_2'
p4949
asS'1473'
p4950
(lp4951
S'dance_lvl_2'
p4952
asS'1470'
p4953
(lp4954
S'dance_lvl_2'
p4955
asS'1471'
p4956
(lp4957
S'dance_lvl_2'
p4958
asS'1476'
p4959
(lp4960
S'dance_lvl_3'
p4961
asS'1477'
p4962
(lp4963
S'dance_lvl_3'
p4964
asS'1474'
p4965
(lp4966
S'dance_lvl_2'
p4967
asS'1475'
p4968
(lp4969
S'dance_lvl_2'
p4970
asS'1494'
p4971
(lp4972
S'dance_lvl_2'
p4973
asS'1478'
p4974
(lp4975
S'dance_lvl_3'
p4976
asS'1479'
p4977
(lp4978
S'dance_lvl_3'
p4979
asS'1304'
p4980
(lp4981
S'dance_lvl_2'
p4982
asS'1305'
p4983
(lp4984
S'dance_lvl_2'
p4985
asS'1306'
p4986
(lp4987
S'dance_lvl_1'
p4988
asS'1307'
p4989
(lp4990
S'dance_lvl_2'
p4991
asS'1300'
p4992
(lp4993
S'dance_lvl_2'
p4994
asS'1301'
p4995
(lp4996
S'dance_lvl_2'
p4997
asS'1302'
p4998
(lp4999
S'dance_lvl_2'
p5000
asS'1303'
p5001
(lp5002
S'dance_lvl_2'
p5003
asS'1308'
p5004
(lp5005
S'dance_lvl_2'
p5006
asS'1309'
p5007
(lp5008
S'dance_lvl_2'
p5009
asS'498'
p5010
(lp5011
S'dance_lvl_1'
p5012
asS'499'
p5013
(lp5014
S'dance_lvl_1'
p5015
asS'494'
p5016
(lp5017
S'dance_lvl_1'
p5018
asS'495'
p5019
(lp5020
S'dance_lvl_1'
p5021
asS'496'
p5022
(lp5023
S'dance_lvl_1'
p5024
asS'497'
p5025
(lp5026
S'dance_lvl_1'
p5027
asS'490'
p5028
(lp5029
S'dance_lvl_1'
p5030
asS'491'
p5031
(lp5032
S'dance_lvl_2'
p5033
asS'492'
p5034
(lp5035
S'dance_lvl_1'
p5036
asS'493'
p5037
(lp5038
S'dance_lvl_3'
p5039
asS'24'
p5040
(lp5041
S'dance_lvl_2'
p5042
asS'25'
p5043
(lp5044
S'dance_lvl_2'
p5045
asS'26'
p5046
(lp5047
S'dance_lvl_2'
p5048
asS'27'
p5049
(lp5050
S'dance_lvl_2'
p5051
asS'20'
p5052
(lp5053
S'dance_lvl_2'
p5054
asS'21'
p5055
(lp5056
S'dance_lvl_2'
p5057
asS'22'
p5058
(lp5059
S'dance_lvl_3'
p5060
asS'23'
p5061
(lp5062
S'dance_lvl_2'
p5063
asS'28'
p5064
(lp5065
S'dance_lvl_2'
p5066
asS'29'
p5067
(lp5068
S'dance_lvl_2'
p5069
asS'1241'
p5070
(lp5071
S'dance_lvl_3'
p5072
asS'1703'
p5073
(lp5074
S'dance_lvl_3'
p5075
asS'1516'
p5076
(lp5077
S'dance_lvl_3'
p5078
asS'1705'
p5079
(lp5080
S'dance_lvl_3'
p5081
asS'1709'
p5082
(lp5083
S'dance_lvl_3'
p5084
asS'597'
p5085
(lp5086
S'dance_lvl_3'
p5087
asS'1785'
p5088
(lp5089
S'dance_lvl_2'
p5090
asS'7'
(lp5091
S'dance_lvl_3'
p5092
asS'1879'
p5093
(lp5094
S'dance_lvl_3'
p5095
asS'2288'
p5096
(lp5097
S'dance_lvl_1'
p5098
asS'2289'
p5099
(lp5100
S'dance_lvl_3'
p5101
asS'2050'
p5102
(lp5103
S'dance_lvl_3'
p5104
asS'2280'
p5105
(lp5106
S'dance_lvl_1'
p5107
asS'2281'
p5108
(lp5109
S'dance_lvl_1'
p5110
asS'2282'
p5111
(lp5112
S'dance_lvl_1'
p5113
asS'2283'
p5114
(lp5115
S'dance_lvl_1'
p5116
asS'2284'
p5117
(lp5118
S'dance_lvl_1'
p5119
asS'2285'
p5120
(lp5121
S'dance_lvl_1'
p5122
asS'2286'
p5123
(lp5124
S'dance_lvl_1'
p5125
asS'2287'
p5126
(lp5127
S'dance_lvl_1'
p5128
asS'2052'
p5129
(lp5130
S'dance_lvl_3'
p5131
asS'1664'
p5132
(lp5133
S'dance_lvl_3'
p5134
asS'2578'
p5135
(lp5136
S'dance_lvl_1'
p5137
asS'2579'
p5138
(lp5139
S'dance_lvl_3'
p5140
asS'2576'
p5141
(lp5142
S'dance_lvl_1'
p5143
asS'2577'
p5144
(lp5145
S'dance_lvl_1'
p5146
asS'2574'
p5147
(lp5148
S'dance_lvl_1'
p5149
asS'2575'
p5150
(lp5151
S'dance_lvl_1'
p5152
asS'2572'
p5153
(lp5154
S'dance_lvl_3'
p5155
asS'2573'
p5156
(lp5157
S'dance_lvl_3'
p5158
asS'2570'
p5159
(lp5160
S'dance_lvl_3'
p5161
asS'2571'
p5162
(lp5163
S'dance_lvl_3'
p5164
asS'2395'
p5165
(lp5166
S'dance_lvl_3'
p5167
asS'2378'
p5168
(lp5169
S'dance_lvl_1'
p5170
asS'2379'
p5171
(lp5172
S'dance_lvl_1'
p5173
asS'2374'
p5174
(lp5175
S'dance_lvl_1'
p5176
asS'2375'
p5177
(lp5178
S'dance_lvl_1'
p5179
asS'2376'
p5180
(lp5181
S'dance_lvl_1'
p5182
asS'2377'
p5183
(lp5184
S'dance_lvl_1'
p5185
asS'2370'
p5186
(lp5187
S'dance_lvl_2'
p5188
asS'2371'
p5189
(lp5190
S'dance_lvl_2'
p5191
asS'2372'
p5192
(lp5193
S'dance_lvl_2'
p5194
asS'2373'
p5195
(lp5196
S'dance_lvl_2'
p5197
asS'2594'
p5198
(lp5199
S'dance_lvl_1'
p5200
asS'2595'
p5201
(lp5202
S'dance_lvl_1'
p5203
asS'2596'
p5204
(lp5205
S'dance_lvl_1'
p5206
asS'2597'
p5207
(lp5208
S'dance_lvl_1'
p5209
asS'2590'
p5210
(lp5211
S'dance_lvl_3'
p5212
asS'2591'
p5213
(lp5214
S'dance_lvl_3'
p5215
asS'2592'
p5216
(lp5217
S'dance_lvl_1'
p5218
asS'2593'
p5219
(lp5220
S'dance_lvl_1'
p5221
asS'2598'
p5222
(lp5223
S'dance_lvl_1'
p5224
asS'2599'
p5225
(lp5226
S'dance_lvl_1'
p5227
asS'1876'
p5228
(lp5229
S'dance_lvl_2'
p5230
asS'1877'
p5231
(lp5232
S'dance_lvl_2'
p5233
asS'1874'
p5234
(lp5235
S'dance_lvl_2'
p5236
asS'1875'
p5237
(lp5238
S'dance_lvl_2'
p5239
asS'1872'
p5240
(lp5241
S'dance_lvl_2'
p5242
asS'1873'
p5243
(lp5244
S'dance_lvl_2'
p5245
asS'1870'
p5246
(lp5247
S'dance_lvl_2'
p5248
asS'1871'
p5249
(lp5250
S'dance_lvl_2'
p5251
asS'600'
p5252
(lp5253
S'dance_lvl_3'
p5254
asS'1083'
p5255
(lp5256
S'dance_lvl_3'
p5257
asS'1878'
p5258
(lp5259
S'dance_lvl_2'
p5260
asS'1082'
p5261
(lp5262
S'dance_lvl_3'
p5263
asS'977'
p5264
(lp5265
S'dance_lvl_3'
p5266
asS'976'
p5267
(lp5268
S'dance_lvl_2'
p5269
asS'975'
p5270
(lp5271
S'dance_lvl_3'
p5272
asS'974'
p5273
(lp5274
S'dance_lvl_3'
p5275
asS'973'
p5276
(lp5277
S'dance_lvl_3'
p5278
asS'972'
p5279
(lp5280
S'dance_lvl_2'
p5281
asS'971'
p5282
(lp5283
S'dance_lvl_3'
p5284
asS'183'
p5285
(lp5286
S'dance_lvl_1'
p5287
asS'1080'
p5288
(lp5289
S'dance_lvl_3'
p5290
asS'979'
p5291
(lp5292
S'dance_lvl_3'
p5293
asS'978'
p5294
(lp5295
S'dance_lvl_3'
p5296
asS'2118'
p5297
(lp5298
S'dance_lvl_1'
p5299
asS'2119'
p5300
(lp5301
S'dance_lvl_1'
p5302
asS'180'
p5303
(lp5304
S'dance_lvl_1'
p5305
asS'181'
p5306
(lp5307
S'dance_lvl_1'
p5308
asS'186'
p5309
(lp5310
S'dance_lvl_3'
p5311
asS'187'
p5312
(lp5313
S'dance_lvl_1'
p5314
asS'184'
p5315
(lp5316
S'dance_lvl_1'
p5317
asS'185'
p5318
(lp5319
S'dance_lvl_1'
p5320
asS'2110'
p5321
(lp5322
S'dance_lvl_2'
p5323
asS'2111'
p5324
(lp5325
S'dance_lvl_1'
p5326
asS'2112'
p5327
(lp5328
S'dance_lvl_2'
p5329
asS'2113'
p5330
(lp5331
S'dance_lvl_1'
p5332
asS'2114'
p5333
(lp5334
S'dance_lvl_1'
p5335
asS'2115'
p5336
(lp5337
S'dance_lvl_1'
p5338
asS'2116'
p5339
(lp5340
S'dance_lvl_1'
p5341
asS'1559'
p5342
(lp5343
S'dance_lvl_2'
p5344
asS'2622'
p5345
(lp5346
S'dance_lvl_1'
p5347
asS'2623'
p5348
(lp5349
S'dance_lvl_1'
p5350
asS'2620'
p5351
(lp5352
S'dance_lvl_1'
p5353
asS'2621'
p5354
(lp5355
S'dance_lvl_1'
p5356
asS'2626'
p5357
(lp5358
S'dance_lvl_2'
p5359
asS'2627'
p5360
(lp5361
S'dance_lvl_2'
p5362
asS'2624'
p5363
(lp5364
S'dance_lvl_2'
p5365
asS'2625'
p5366
(lp5367
S'dance_lvl_2'
p5368
asS'2628'
p5369
(lp5370
S'dance_lvl_1'
p5371
asS'2629'
p5372
(lp5373
S'dance_lvl_2'
p5374
asS'1919'
p5375
(lp5376
S'dance_lvl_1'
p5377
asS'1918'
p5378
(lp5379
S'dance_lvl_1'
p5380
asS'1464'
p5381
(lp5382
S'dance_lvl_2'
p5383
asS'1911'
p5384
(lp5385
S'dance_lvl_1'
p5386
asS'1910'
p5387
(lp5388
S'dance_lvl_3'
p5389
asS'1913'
p5390
(lp5391
S'dance_lvl_1'
p5392
asS'1912'
p5393
(lp5394
S'dance_lvl_1'
p5395
asS'1915'
p5396
(lp5397
S'dance_lvl_1'
p5398
asS'1914'
p5399
(lp5400
S'dance_lvl_1'
p5401
asS'1917'
p5402
(lp5403
S'dance_lvl_1'
p5404
asS'1916'
p5405
(lp5406
S'dance_lvl_1'
p5407
asS'869'
p5408
(lp5409
S'dance_lvl_2'
p5410
asS'868'
p5411
(lp5412
S'dance_lvl_2'
p5413
asS'189'
p5414
(lp5415
S'dance_lvl_1'
p5416
asS'861'
p5417
(lp5418
S'dance_lvl_3'
p5419
asS'860'
p5420
(lp5421
S'dance_lvl_3'
p5422
asS'863'
p5423
(lp5424
S'dance_lvl_3'
p5425
asS'862'
p5426
(lp5427
S'dance_lvl_3'
p5428
asS'865'
p5429
(lp5430
S'dance_lvl_3'
p5431
asS'864'
p5432
(lp5433
S'dance_lvl_3'
p5434
asS'867'
p5435
(lp5436
S'dance_lvl_3'
p5437
asS'866'
p5438
(lp5439
S'dance_lvl_3'
p5440
asS'2024'
p5441
(lp5442
S'dance_lvl_1'
p5443
asS'2025'
p5444
(lp5445
S'dance_lvl_1'
p5446
asS'2026'
p5447
(lp5448
S'dance_lvl_1'
p5449
asS'2027'
p5450
(lp5451
S'dance_lvl_1'
p5452
asS'2020'
p5453
(lp5454
S'dance_lvl_1'
p5455
asS'2021'
p5456
(lp5457
S'dance_lvl_1'
p5458
asS'2022'
p5459
(lp5460
S'dance_lvl_1'
p5461
asS'2023'
p5462
(lp5463
S'dance_lvl_2'
p5464
asS'2117'
p5465
(lp5466
S'dance_lvl_2'
p5467
asS'2028'
p5468
(lp5469
S'dance_lvl_1'
p5470
asS'2029'
p5471
(lp5472
S'dance_lvl_2'
p5473
asS'2758'
p5474
(lp5475
S'dance_lvl_1'
p5476
asS'2759'
p5477
(lp5478
S'dance_lvl_3'
p5479
asS'883'
p5480
(lp5481
S'dance_lvl_3'
p5482
asS'882'
p5483
(lp5484
S'dance_lvl_3'
p5485
asS'881'
p5486
(lp5487
S'dance_lvl_3'
p5488
asS'880'
p5489
(lp5490
S'dance_lvl_3'
p5491
asS'887'
p5492
(lp5493
S'dance_lvl_3'
p5494
asS'886'
p5495
(lp5496
S'dance_lvl_3'
p5497
asS'885'
p5498
(lp5499
S'dance_lvl_3'
p5500
asS'884'
p5501
(lp5502
S'dance_lvl_3'
p5503
asS'889'
p5504
(lp5505
S'dance_lvl_2'
p5506
asS'888'
p5507
(lp5508
S'dance_lvl_3'
p5509
asS'775'
p5510
(lp5511
S'dance_lvl_2'
p5512
asS'774'
p5513
(lp5514
S'dance_lvl_2'
p5515
asS'777'
p5516
(lp5517
S'dance_lvl_2'
p5518
asS'776'
p5519
(lp5520
S'dance_lvl_2'
p5521
asS'771'
p5522
(lp5523
S'dance_lvl_2'
p5524
asS'770'
p5525
(lp5526
S'dance_lvl_1'
p5527
asS'773'
p5528
(lp5529
S'dance_lvl_2'
p5530
asS'772'
p5531
(lp5532
S'dance_lvl_2'
p5533
asS'779'
p5534
(lp5535
S'dance_lvl_2'
p5536
asS'778'
p5537
(lp5538
S'dance_lvl_2'
p5539
asS'419'
p5540
(lp5541
S'dance_lvl_1'
p5542
asS'77'
p5543
(lp5544
S'dance_lvl_1'
p5545
asS'76'
p5546
(lp5547
S'dance_lvl_1'
p5548
asS'75'
p5549
(lp5550
S'dance_lvl_1'
p5551
asS'74'
p5552
(lp5553
S'dance_lvl_1'
p5554
asS'73'
p5555
(lp5556
S'dance_lvl_1'
p5557
asS'72'
p5558
(lp5559
S'dance_lvl_1'
p5560
asS'71'
p5561
(lp5562
S'dance_lvl_1'
p5563
asS'70'
p5564
(lp5565
S'dance_lvl_1'
p5566
asS'2972'
p5567
(lp5568
S'dance_lvl_1'
p5569
asS'2973'
p5570
(lp5571
S'dance_lvl_1'
p5572
asS'2970'
p5573
(lp5574
S'dance_lvl_1'
p5575
asS'2971'
p5576
(lp5577
S'dance_lvl_1'
p5578
asS'2976'
p5579
(lp5580
S'dance_lvl_1'
p5581
asS'2977'
p5582
(lp5583
S'dance_lvl_1'
p5584
asS'79'
p5585
(lp5586
S'dance_lvl_1'
p5587
asS'78'
p5588
(lp5589
S'dance_lvl_1'
p5590
asS'1043'
p5591
(lp5592
S'dance_lvl_2'
p5593
asS'1042'
p5594
(lp5595
S'dance_lvl_1'
p5596
asS'1041'
p5597
(lp5598
S'dance_lvl_2'
p5599
asS'1040'
p5600
(lp5601
S'dance_lvl_2'
p5602
asS'1047'
p5603
(lp5604
S'dance_lvl_2'
p5605
asS'1046'
p5606
(lp5607
S'dance_lvl_2'
p5608
asS'1045'
p5609
(lp5610
S'dance_lvl_2'
p5611
asS'1044'
p5612
(lp5613
S'dance_lvl_2'
p5614
asS'1049'
p5615
(lp5616
S'dance_lvl_2'
p5617
asS'1048'
p5618
(lp5619
S'dance_lvl_2'
p5620
asS'1681'
p5621
(lp5622
S'dance_lvl_2'
p5623
asS'1680'
p5624
(lp5625
S'dance_lvl_2'
p5626
asS'1683'
p5627
(lp5628
S'dance_lvl_3'
p5629
asS'1682'
p5630
(lp5631
S'dance_lvl_2'
p5632
asS'1685'
p5633
(lp5634
S'dance_lvl_2'
p5635
asS'1684'
p5636
(lp5637
S'dance_lvl_2'
p5638
asS'1687'
p5639
(lp5640
S'dance_lvl_2'
p5641
asS'1686'
p5642
(lp5643
S'dance_lvl_2'
p5644
asS'1689'
p5645
(lp5646
S'dance_lvl_3'
p5647
asS'1688'
p5648
(lp5649
S'dance_lvl_2'
p5650
asS'1269'
p5651
(lp5652
S'dance_lvl_2'
p5653
asS'1268'
p5654
(lp5655
S'dance_lvl_2'
p5656
asS'669'
p5657
(lp5658
S'dance_lvl_1'
p5659
asS'668'
p5660
(lp5661
S'dance_lvl_1'
p5662
asS'667'
p5663
(lp5664
S'dance_lvl_2'
p5665
asS'666'
p5666
(lp5667
S'dance_lvl_1'
p5668
asS'665'
p5669
(lp5670
S'dance_lvl_3'
p5671
asS'664'
p5672
(lp5673
S'dance_lvl_1'
p5674
asS'663'
p5675
(lp5676
S'dance_lvl_1'
p5677
asS'662'
p5678
(lp5679
S'dance_lvl_1'
p5680
asS'661'
p5681
(lp5682
S'dance_lvl_1'
p5683
asS'660'
p5684
(lp5685
S'dance_lvl_1'
p5686
asS'67'
p5687
(lp5688
S'dance_lvl_3'
p5689
asS'640'
p5690
(lp5691
S'dance_lvl_3'
p5692
asS'1469'
p5693
(lp5694
S'dance_lvl_2'
p5695
asS'1468'
p5696
(lp5697
S'dance_lvl_2'
p5698
asS'1465'
p5699
(lp5700
S'dance_lvl_2'
p5701
asS'520'
p5702
(lp5703
S'dance_lvl_2'
p5704
asS'1467'
p5705
(lp5706
S'dance_lvl_2'
p5707
asS'1466'
p5708
(lp5709
S'dance_lvl_2'
p5710
asS'1461'
p5711
(lp5712
S'dance_lvl_3'
p5713
asS'1460'
p5714
(lp5715
S'dance_lvl_3'
p5716
asS'1463'
p5717
(lp5718
S'dance_lvl_3'
p5719
asS'521'
p5720
(lp5721
S'dance_lvl_2'
p5722
asS'1317'
p5723
(lp5724
S'dance_lvl_2'
p5725
asS'1316'
p5726
(lp5727
S'dance_lvl_3'
p5728
asS'1315'
p5729
(lp5730
S'dance_lvl_2'
p5731
asS'1314'
p5732
(lp5733
S'dance_lvl_2'
p5734
asS'1313'
p5735
(lp5736
S'dance_lvl_2'
p5737
asS'1312'
p5738
(lp5739
S'dance_lvl_2'
p5740
asS'1311'
p5741
(lp5742
S'dance_lvl_2'
p5743
asS'1310'
p5744
(lp5745
S'dance_lvl_2'
p5746
asS'1319'
p5747
(lp5748
S'dance_lvl_2'
p5749
asS'1318'
p5750
(lp5751
S'dance_lvl_2'
p5752
asS'528'
p5753
(lp5754
S'dance_lvl_3'
p5755
asS'529'
p5756
(lp5757
S'dance_lvl_3'
p5758
asS'319'
p5759
(lp5760
S'dance_lvl_2'
p5761
asS'318'
p5762
(lp5763
S'dance_lvl_1'
p5764
asS'313'
p5765
(lp5766
S'dance_lvl_2'
p5767
asS'312'
p5768
(lp5769
S'dance_lvl_2'
p5770
asS'311'
p5771
(lp5772
S'dance_lvl_2'
p5773
asS'310'
p5774
(lp5775
S'dance_lvl_2'
p5776
asS'317'
p5777
(lp5778
S'dance_lvl_2'
p5779
asS'316'
p5780
(lp5781
S'dance_lvl_2'
p5782
asS'315'
p5783
(lp5784
S'dance_lvl_2'
p5785
asS'314'
p5786
(lp5787
S'dance_lvl_2'
p5788
asS'2756'
p5789
(lp5790
S'dance_lvl_1'
p5791
asS'2757'
p5792
(lp5793
S'dance_lvl_1'
p5794
asS'2754'
p5795
(lp5796
S'dance_lvl_1'
p5797
asS'1335'
p5798
(lp5799
S'dance_lvl_2'
p5800
asS'2755'
p5801
(lp5802
S'dance_lvl_1'
p5803
asS'1334'
p5804
(lp5805
S'dance_lvl_2'
p5806
asS'2752'
p5807
(lp5808
S'dance_lvl_3'
p5809
asS'1337'
p5810
(lp5811
S'dance_lvl_2'
p5812
asS'2753'
p5813
(lp5814
S'dance_lvl_3'
p5815
asS'1336'
p5816
(lp5817
S'dance_lvl_1'
p5818
asS'2750'
p5819
(lp5820
S'dance_lvl_3'
p5821
asS'1331'
p5822
(lp5823
S'dance_lvl_3'
p5824
asS'2751'
p5825
(lp5826
S'dance_lvl_3'
p5827
asS'1330'
p5828
(lp5829
S'dance_lvl_2'
p5830
asS'1333'
p5831
(lp5832
S'dance_lvl_2'
p5833
asS'1332'
p5834
(lp5835
S'dance_lvl_2'
p5836
asS'630'
p5837
(lp5838
S'dance_lvl_3'
p5839
asS'2461'
p5840
(lp5841
S'dance_lvl_3'
p5842
asS'2299'
p5843
(lp5844
S'dance_lvl_1'
p5845
asS'2298'
p5846
(lp5847
S'dance_lvl_1'
p5848
asS'2293'
p5849
(lp5850
S'dance_lvl_1'
p5851
asS'2292'
p5852
(lp5853
S'dance_lvl_1'
p5854
asS'2291'
p5855
(lp5856
S'dance_lvl_1'
p5857
asS'2290'
p5858
(lp5859
S'dance_lvl_1'
p5860
asS'2297'
p5861
(lp5862
S'dance_lvl_1'
p5863
asS'2296'
p5864
(lp5865
S'dance_lvl_1'
p5866
asS'2295'
p5867
(lp5868
S'dance_lvl_1'
p5869
asS'2294'
p5870
(lp5871
S'dance_lvl_1'
p5872
asS'2569'
p5873
(lp5874
S'dance_lvl_3'
p5875
asS'2568'
p5876
(lp5877
S'dance_lvl_3'
p5878
asS'2561'
p5879
(lp5880
S'dance_lvl_3'
p5881
asS'2560'
p5882
(lp5883
S'dance_lvl_3'
p5884
asS'2563'
p5885
(lp5886
S'dance_lvl_3'
p5887
asS'2562'
p5888
(lp5889
S'dance_lvl_3'
p5890
asS'632'
p5891
(lp5892
S'dance_lvl_3'
p5893
asS'2564'
p5894
(lp5895
S'dance_lvl_3'
p5896
asS'2567'
p5897
(lp5898
S'dance_lvl_3'
p5899
asS'2566'
p5900
(lp5901
S'dance_lvl_3'
p5902
asS'908'
p5903
(lp5904
S'dance_lvl_3'
p5905
asS'2369'
p5906
(lp5907
S'dance_lvl_2'
p5908
asS'2368'
p5909
(lp5910
S'dance_lvl_2'
p5911
asS'2367'
p5912
(lp5913
S'dance_lvl_2'
p5914
asS'2366'
p5915
(lp5916
S'dance_lvl_2'
p5917
asS'2365'
p5918
(lp5919
S'dance_lvl_2'
p5920
asS'2364'
p5921
(lp5922
S'dance_lvl_2'
p5923
asS'2363'
p5924
(lp5925
S'dance_lvl_2'
p5926
asS'2362'
p5927
(lp5928
S'dance_lvl_2'
p5929
asS'2361'
p5930
(lp5931
S'dance_lvl_2'
p5932
asS'2360'
p5933
(lp5934
S'dance_lvl_2'
p5935
asS'2587'
p5936
(lp5937
S'dance_lvl_3'
p5938
asS'2586'
p5939
(lp5940
S'dance_lvl_3'
p5941
asS'2585'
p5942
(lp5943
S'dance_lvl_3'
p5944
asS'2584'
p5945
(lp5946
S'dance_lvl_2'
p5947
asS'2583'
p5948
(lp5949
S'dance_lvl_1'
p5950
asS'2582'
p5951
(lp5952
S'dance_lvl_1'
p5953
asS'2581'
p5954
(lp5955
S'dance_lvl_1'
p5956
asS'2580'
p5957
(lp5958
S'dance_lvl_1'
p5959
asS'633'
p5960
(lp5961
S'dance_lvl_3'
p5962
asS'1612'
p5963
(lp5964
S'dance_lvl_3'
p5965
asS'2589'
p5966
(lp5967
S'dance_lvl_1'
p5968
asS'2588'
p5969
(lp5970
S'dance_lvl_3'
p5971
asS'1861'
p5972
(lp5973
S'dance_lvl_2'
p5974
asS'1860'
p5975
(lp5976
S'dance_lvl_2'
p5977
asS'1863'
p5978
(lp5979
S'dance_lvl_1'
p5980
asS'1862'
p5981
(lp5982
S'dance_lvl_3'
p5983
asS'1865'
p5984
(lp5985
S'dance_lvl_2'
p5986
asS'1864'
p5987
(lp5988
S'dance_lvl_2'
p5989
asS'1867'
p5990
(lp5991
S'dance_lvl_3'
p5992
asS'280'
p5993
(lp5994
S'dance_lvl_3'
p5995
asS'1869'
p5996
(lp5997
S'dance_lvl_2'
p5998
asS'1868'
p5999
(lp6000
S'dance_lvl_2'
p6001
asS'964'
p6002
(lp6003
S'dance_lvl_3'
p6004
asS'965'
p6005
(lp6006
S'dance_lvl_3'
p6007
asS'966'
p6008
(lp6009
S'dance_lvl_3'
p6010
asS'967'
p6011
(lp6012
S'dance_lvl_3'
p6013
asS'960'
p6014
(lp6015
S'dance_lvl_3'
p6016
asS'961'
p6017
(lp6018
S'dance_lvl_3'
p6019
asS'962'
p6020
(lp6021
S'dance_lvl_3'
p6022
asS'963'
p6023
(lp6024
S'dance_lvl_3'
p6025
asS'968'
p6026
(lp6027
S'dance_lvl_3'
p6028
asS'969'
p6029
(lp6030
S'dance_lvl_2'
p6031
asS'2109'
p6032
(lp6033
S'dance_lvl_3'
p6034
asS'2108'
p6035
(lp6036
S'dance_lvl_2'
p6037
asS'2103'
p6038
(lp6039
S'dance_lvl_1'
p6040
asS'2102'
p6041
(lp6042
S'dance_lvl_1'
p6043
asS'2101'
p6044
(lp6045
S'dance_lvl_2'
p6046
asS'2100'
p6047
(lp6048
S'dance_lvl_2'
p6049
asS'2107'
p6050
(lp6051
S'dance_lvl_2'
p6052
asS'2106'
p6053
(lp6054
S'dance_lvl_2'
p6055
asS'2105'
p6056
(lp6057
S'dance_lvl_2'
p6058
asS'2104'
p6059
(lp6060
S'dance_lvl_2'
p6061
asS'30'
p6062
(lp6063
S'dance_lvl_2'
p6064
asS'2639'
p6065
(lp6066
S'dance_lvl_2'
p6067
asS'2638'
p6068
(lp6069
S'dance_lvl_2'
p6070
asS'2635'
p6071
(lp6072
S'dance_lvl_2'
p6073
asS'2634'
p6074
(lp6075
S'dance_lvl_2'
p6076
asS'2637'
p6077
(lp6078
S'dance_lvl_2'
p6079
asS'2636'
p6080
(lp6081
S'dance_lvl_2'
p6082
asS'2631'
p6083
(lp6084
S'dance_lvl_2'
p6085
asS'2630'
p6086
(lp6087
S'dance_lvl_2'
p6088
asS'2633'
p6089
(lp6090
S'dance_lvl_2'
p6091
asS'2632'
p6092
(lp6093
S'dance_lvl_1'
p6094
asS'641'
p6095
(lp6096
S'dance_lvl_3'
p6097
asS'878'
p6098
(lp6099
S'dance_lvl_1'
p6100
asS'879'
p6101
(lp6102
S'dance_lvl_1'
p6103
asS'876'
p6104
(lp6105
S'dance_lvl_1'
p6106
asS'877'
p6107
(lp6108
S'dance_lvl_1'
p6109
asS'874'
p6110
(lp6111
S'dance_lvl_1'
p6112
asS'875'
p6113
(lp6114
S'dance_lvl_1'
p6115
asS'872'
p6116
(lp6117
S'dance_lvl_1'
p6118
asS'873'
p6119
(lp6120
S'dance_lvl_1'
p6121
asS'870'
p6122
(lp6123
S'dance_lvl_3'
p6124
asS'871'
p6125
(lp6126
S'dance_lvl_3'
p6127
asS'2037'
p6128
(lp6129
S'dance_lvl_1'
p6130
asS'2036'
p6131
(lp6132
S'dance_lvl_1'
p6133
asS'2035'
p6134
(lp6135
S'dance_lvl_1'
p6136
asS'2034'
p6137
(lp6138
S'dance_lvl_2'
p6139
asS'2033'
p6140
(lp6141
S'dance_lvl_1'
p6142
asS'2032'
p6143
(lp6144
S'dance_lvl_2'
p6145
asS'2031'
p6146
(lp6147
S'dance_lvl_1'
p6148
asS'2746'
p6149
(lp6150
S'dance_lvl_1'
p6151
asS'9'
(lp6152
S'dance_lvl_1'
p6153
asS'2748'
p6154
(lp6155
S'dance_lvl_2'
p6156
asS'2039'
p6157
(lp6158
S'dance_lvl_1'
p6159
asS'2038'
p6160
(lp6161
S'dance_lvl_1'
p6162
asS'890'
p6163
(lp6164
S'dance_lvl_2'
p6165
asS'891'
p6166
(lp6167
S'dance_lvl_2'
p6168
asS'892'
p6169
(lp6170
S'dance_lvl_2'
p6171
asS'893'
p6172
(lp6173
S'dance_lvl_2'
p6174
asS'894'
p6175
(lp6176
S'dance_lvl_1'
p6177
asS'895'
p6178
(lp6179
S'dance_lvl_2'
p6180
asS'896'
p6181
(lp6182
S'dance_lvl_2'
p6183
asS'897'
p6184
(lp6185
S'dance_lvl_3'
p6186
asS'898'
p6187
(lp6188
S'dance_lvl_2'
p6189
asS'899'
p6190
(lp6191
S'dance_lvl_2'
p6192
asS'646'
p6193
(lp6194
S'dance_lvl_3'
p6195
asS'1249'
p6196
(lp6197
S'dance_lvl_3'
p6198
asS'1247'
p6199
(lp6200
S'dance_lvl_3'
p6201
asS'1248'
p6202
(lp6203
S'dance_lvl_3'
p6204
asS'1616'
p6205
(lp6206
S'dance_lvl_3'
p6207
asS'1617'
p6208
(lp6209
S'dance_lvl_3'
p6210
asS'1966'
p6211
(lp6212
S'dance_lvl_2'
p6213
asS'1788'
p6214
(lp6215
S'dance_lvl_2'
p6216
asS'2964'
p6217
(lp6218
S'dance_lvl_1'
p6219
asS'768'
p6220
(lp6221
S'dance_lvl_1'
p6222
asS'2966'
p6223
(lp6224
S'dance_lvl_1'
p6225
asS'2961'
p6226
(lp6227
S'dance_lvl_1'
p6228
asS'2960'
p6229
(lp6230
S'dance_lvl_1'
p6231
asS'2963'
p6232
(lp6233
S'dance_lvl_1'
p6234
asS'2962'
p6235
(lp6236
S'dance_lvl_1'
p6237
asS'762'
p6238
(lp6239
S'dance_lvl_1'
p6240
asS'763'
p6241
(lp6242
S'dance_lvl_1'
p6243
asS'1782'
p6244
(lp6245
S'dance_lvl_2'
p6246
asS'1783'
p6247
(lp6248
S'dance_lvl_2'
p6249
asS'2969'
p6250
(lp6251
S'dance_lvl_1'
p6252
asS'2968'
p6253
(lp6254
S'dance_lvl_1'
p6255
asS'764'
p6256
(lp6257
S'dance_lvl_1'
p6258
asS'765'
p6259
(lp6260
S'dance_lvl_1'
p6261
asS'1610'
p6262
(lp6263
S'dance_lvl_3'
p6264
asS'1963'
p6265
(lp6266
S'dance_lvl_2'
p6267
asS'707'
p6268
(lp6269
S'dance_lvl_3'
p6270
asS'1078'
p6271
(lp6272
S'dance_lvl_3'
p6273
asS'1079'
p6274
(lp6275
S'dance_lvl_3'
p6276
asS'1076'
p6277
(lp6278
S'dance_lvl_3'
p6279
asS'1535'
p6280
(lp6281
S'dance_lvl_1'
p6282
asS'1074'
p6283
(lp6284
S'dance_lvl_3'
p6285
asS'1075'
p6286
(lp6287
S'dance_lvl_3'
p6288
asS'1072'
p6289
(lp6290
S'dance_lvl_3'
p6291
asS'1073'
p6292
(lp6293
S'dance_lvl_3'
p6294
asS'1070'
p6295
(lp6296
S'dance_lvl_3'
p6297
asS'1071'
p6298
(lp6299
S'dance_lvl_3'
p6300
asS'1678'
p6301
(lp6302
S'dance_lvl_2'
p6303
asS'1561'
p6304
(lp6305
S'dance_lvl_2'
p6306
asS'1674'
p6307
(lp6308
S'dance_lvl_2'
p6309
asS'1675'
p6310
(lp6311
S'dance_lvl_2'
p6312
asS'1676'
p6313
(lp6314
S'dance_lvl_2'
p6315
asS'1677'
p6316
(lp6317
S'dance_lvl_2'
p6318
asS'1670'
p6319
(lp6320
S'dance_lvl_1'
p6321
asS'1671'
p6322
(lp6323
S'dance_lvl_1'
p6324
asS'1672'
p6325
(lp6326
S'dance_lvl_1'
p6327
asS'1673'
p6328
(lp6329
S'dance_lvl_2'
p6330
asS'1094'
p6331
(lp6332
S'dance_lvl_3'
p6333
asS'1095'
p6334
(lp6335
S'dance_lvl_3'
p6336
asS'1096'
p6337
(lp6338
S'dance_lvl_3'
p6339
asS'1097'
p6340
(lp6341
S'dance_lvl_3'
p6342
asS'678'
p6343
(lp6344
S'dance_lvl_1'
p6345
asS'679'
p6346
(lp6347
S'dance_lvl_1'
p6348
asS'1092'
p6349
(lp6350
S'dance_lvl_3'
p6351
asS'1093'
p6352
(lp6353
S'dance_lvl_3'
p6354
asS'674'
p6355
(lp6356
S'dance_lvl_1'
p6357
asS'675'
p6358
(lp6359
S'dance_lvl_3'
p6360
asS'676'
p6361
(lp6362
S'dance_lvl_1'
p6363
asS'677'
p6364
(lp6365
S'dance_lvl_1'
p6366
asS'670'
p6367
(lp6368
S'dance_lvl_2'
p6369
asS'671'
p6370
(lp6371
S'dance_lvl_1'
p6372
asS'672'
p6373
(lp6374
S'dance_lvl_1'
p6375
asS'673'
p6376
(lp6377
S'dance_lvl_1'
p6378
asS'2554'
p6379
(lp6380
S'dance_lvl_3'
p6381
asS'645'
p6382
(lp6383
S'dance_lvl_3'
p6384
asS'2557'
p6385
(lp6386
S'dance_lvl_3'
p6387
asS'1418'
p6388
(lp6389
S'dance_lvl_1'
p6390
asS'1419'
p6391
(lp6392
S'dance_lvl_1'
p6393
asS'1410'
p6394
(lp6395
S'dance_lvl_1'
p6396
asS'1411'
p6397
(lp6398
S'dance_lvl_1'
p6399
asS'1412'
p6400
(lp6401
S'dance_lvl_1'
p6402
asS'1413'
p6403
(lp6404
S'dance_lvl_1'
p6405
asS'1414'
p6406
(lp6407
S'dance_lvl_2'
p6408
asS'1415'
p6409
(lp6410
S'dance_lvl_1'
p6411
asS'1416'
p6412
(lp6413
S'dance_lvl_1'
p6414
asS'1417'
p6415
(lp6416
S'dance_lvl_1'
p6417
asS'1322'
p6418
(lp6419
S'dance_lvl_2'
p6420
asS'1323'
p6421
(lp6422
S'dance_lvl_3'
p6423
asS'1320'
p6424
(lp6425
S'dance_lvl_2'
p6426
asS'1532'
p6427
(lp6428
S'dance_lvl_1'
p6429
asS'1326'
p6430
(lp6431
S'dance_lvl_2'
p6432
asS'1327'
p6433
(lp6434
S'dance_lvl_2'
p6435
asS'1324'
p6436
(lp6437
S'dance_lvl_2'
p6438
asS'1325'
p6439
(lp6440
S'dance_lvl_2'
p6441
asS'1328'
p6442
(lp6443
S'dance_lvl_2'
p6444
asS'1329'
p6445
(lp6446
S'dance_lvl_2'
p6447
asS'2494'
p6448
(lp6449
S'dance_lvl_1'
p6450
asS'1480'
p6451
(lp6452
S'dance_lvl_3'
p6453
asS'1531'
p6454
(lp6455
S'dance_lvl_3'
p6456
asS'1524'
p6457
(lp6458
S'dance_lvl_1'
p6459
asS'1525'
p6460
(lp6461
S'dance_lvl_1'
p6462
asS'1526'
p6463
(lp6464
S'dance_lvl_1'
p6465
asS'1527'
p6466
(lp6467
S'dance_lvl_1'
p6468
asS'1520'
p6469
(lp6470
S'dance_lvl_1'
p6471
asS'1521'
p6472
(lp6473
S'dance_lvl_1'
p6474
asS'1522'
p6475
(lp6476
S'dance_lvl_1'
p6477
asS'1523'
p6478
(lp6479
S'dance_lvl_1'
p6480
asS'1528'
p6481
(lp6482
S'dance_lvl_1'
p6483
asS'1529'
p6484
(lp6485
S'dance_lvl_1'
p6486
asS'1258'
p6487
(lp6488
S'dance_lvl_2'
p6489
asS'1259'
p6490
(lp6491
S'dance_lvl_2'
p6492
asS'308'
p6493
(lp6494
S'dance_lvl_1'
p6495
asS'309'
p6496
(lp6497
S'dance_lvl_1'
p6498
asS'300'
p6499
(lp6500
S'dance_lvl_1'
p6501
asS'301'
p6502
(lp6503
S'dance_lvl_3'
p6504
asS'302'
p6505
(lp6506
S'dance_lvl_1'
p6507
asS'303'
p6508
(lp6509
S'dance_lvl_1'
p6510
asS'304'
p6511
(lp6512
S'dance_lvl_1'
p6513
asS'305'
p6514
(lp6515
S'dance_lvl_1'
p6516
asS'306'
p6517
(lp6518
S'dance_lvl_2'
p6519
asS'307'
p6520
(lp6521
S'dance_lvl_2'
p6522
asS'2978'
p6523
(lp6524
S'dance_lvl_1'
p6525
asS'2979'
p6526
(lp6527
S'dance_lvl_1'
p6528
asS'1655'
p6529
(lp6530
S'dance_lvl_3'
p6531
asS'2475'
p6532
(lp6533
S'dance_lvl_3'
p6534
asS'2474'
p6535
(lp6536
S'dance_lvl_3'
p6537
asS'1105'
p6538
(lp6539
S'dance_lvl_3'
p6540
asS'2974'
p6541
(lp6542
S'dance_lvl_1'
p6543
asS'2975'
p6544
(lp6545
S'dance_lvl_1'
p6546
asS'1446'
p6547
(lp6548
S'dance_lvl_2'
p6549
asS'984'
p6550
(lp6551
S'dance_lvl_3'
p6552
asS'2478'
p6553
(lp6554
S'dance_lvl_2'
p6555
asS'623'
p6556
(lp6557
S'dance_lvl_3'
p6558
asS'470'
p6559
(lp6560
S'dance_lvl_3'
p6561
asS'2950'
p6562
(lp6563
S'dance_lvl_3'
p6564
asS'114'
p6565
(lp6566
S'dance_lvl_2'
p6567
asS'2358'
p6568
(lp6569
S'dance_lvl_1'
p6570
asS'2359'
p6571
(lp6572
S'dance_lvl_2'
p6573
asS'2352'
p6574
(lp6575
S'dance_lvl_2'
p6576
asS'2353'
p6577
(lp6578
S'dance_lvl_2'
p6579
asS'2350'
p6580
(lp6581
S'dance_lvl_2'
p6582
asS'2351'
p6583
(lp6584
S'dance_lvl_2'
p6585
asS'2356'
p6586
(lp6587
S'dance_lvl_2'
p6588
asS'2357'
p6589
(lp6590
S'dance_lvl_2'
p6591
asS'2354'
p6592
(lp6593
S'dance_lvl_2'
p6594
asS'2355'
p6595
(lp6596
S'dance_lvl_2'
p6597
asS'2991'
p6598
(lp6599
S'dance_lvl_3'
p6600
asS'112'
p6601
(lp6602
S'dance_lvl_2'
p6603
asS'1898'
p6604
(lp6605
S'dance_lvl_3'
p6606
asS'1899'
p6607
(lp6608
S'dance_lvl_3'
p6609
asS'1894'
p6610
(lp6611
S'dance_lvl_3'
p6612
asS'1895'
p6613
(lp6614
S'dance_lvl_3'
p6615
asS'1896'
p6616
(lp6617
S'dance_lvl_3'
p6618
asS'1443'
p6619
(lp6620
S'dance_lvl_2'
p6621
asS'1890'
p6622
(lp6623
S'dance_lvl_3'
p6624
asS'1891'
p6625
(lp6626
S'dance_lvl_3'
p6627
asS'1892'
p6628
(lp6629
S'dance_lvl_3'
p6630
asS'1893'
p6631
(lp6632
S'dance_lvl_3'
p6633
asS'2136'
p6634
(lp6635
S'dance_lvl_2'
p6636
asS'2137'
p6637
(lp6638
S'dance_lvl_2'
p6639
asS'2134'
p6640
(lp6641
S'dance_lvl_2'
p6642
asS'2135'
p6643
(lp6644
S'dance_lvl_2'
p6645
asS'2132'
p6646
(lp6647
S'dance_lvl_2'
p6648
asS'2133'
p6649
(lp6650
S'dance_lvl_2'
p6651
asS'2130'
p6652
(lp6653
S'dance_lvl_2'
p6654
asS'2131'
p6655
(lp6656
S'dance_lvl_2'
p6657
asS'951'
p6658
(lp6659
S'dance_lvl_2'
p6660
asS'950'
p6661
(lp6662
S'dance_lvl_2'
p6663
asS'953'
p6664
(lp6665
S'dance_lvl_2'
p6666
asS'952'
p6667
(lp6668
S'dance_lvl_1'
p6669
asS'955'
p6670
(lp6671
S'dance_lvl_2'
p6672
asS'954'
p6673
(lp6674
S'dance_lvl_2'
p6675
asS'2138'
p6676
(lp6677
S'dance_lvl_2'
p6678
asS'956'
p6679
(lp6680
S'dance_lvl_2'
p6681
asS'1442'
p6682
(lp6683
S'dance_lvl_2'
p6684
asS'2648'
p6685
(lp6686
S'dance_lvl_2'
p6687
asS'2649'
p6688
(lp6689
S'dance_lvl_2'
p6690
asS'2993'
p6691
(lp6692
S'dance_lvl_2'
p6693
asS'2640'
p6694
(lp6695
S'dance_lvl_2'
p6696
asS'2641'
p6697
(lp6698
S'dance_lvl_1'
p6699
asS'2642'
p6700
(lp6701
S'dance_lvl_2'
p6702
asS'2643'
p6703
(lp6704
S'dance_lvl_2'
p6705
asS'2644'
p6706
(lp6707
S'dance_lvl_3'
p6708
asS'2645'
p6709
(lp6710
S'dance_lvl_2'
p6711
asS'2646'
p6712
(lp6713
S'dance_lvl_2'
p6714
asS'2647'
p6715
(lp6716
S'dance_lvl_2'
p6717
asS'2002'
p6718
(lp6719
S'dance_lvl_3'
p6720
asS'2003'
p6721
(lp6722
S'dance_lvl_2'
p6723
asS'2000'
p6724
(lp6725
S'dance_lvl_3'
p6726
asS'2001'
p6727
(lp6728
S'dance_lvl_3'
p6729
asS'2006'
p6730
(lp6731
S'dance_lvl_2'
p6732
asS'2007'
p6733
(lp6734
S'dance_lvl_2'
p6735
asS'2004'
p6736
(lp6737
S'dance_lvl_2'
p6738
asS'2005'
p6739
(lp6740
S'dance_lvl_2'
p6741
asS'2008'
p6742
(lp6743
S'dance_lvl_1'
p6744
asS'2009'
p6745
(lp6746
S'dance_lvl_3'
p6747
asS'507'
p6748
(lp6749
S'dance_lvl_3'
p6750
asS'1263'
p6751
(lp6752
S'dance_lvl_1'
p6753
asS'1262'
p6754
(lp6755
S'dance_lvl_2'
p6756
asS'919'
p6757
(lp6758
S'dance_lvl_1'
p6759
asS'504'
p6760
(lp6761
S'dance_lvl_3'
p6762
asS'1261'
p6763
(lp6764
S'dance_lvl_3'
p6765
asS'918'
p6766
(lp6767
S'dance_lvl_2'
p6768
asS'2910'
p6769
(lp6770
S'dance_lvl_2'
p6771
asS'2911'
p6772
(lp6773
S'dance_lvl_2'
p6774
asS'1799'
p6775
(lp6776
S'dance_lvl_2'
p6777
asS'1260'
p6778
(lp6779
S'dance_lvl_2'
p6780
asS'2914'
p6781
(lp6782
S'dance_lvl_2'
p6783
asS'2915'
p6784
(lp6785
S'dance_lvl_2'
p6786
asS'719'
p6787
(lp6788
S'dance_lvl_2'
p6789
asS'718'
p6790
(lp6791
S'dance_lvl_2'
p6792
asS'717'
p6793
(lp6794
S'dance_lvl_2'
p6795
asS'716'
p6796
(lp6797
S'dance_lvl_2'
p6798
asS'1791'
p6799
(lp6800
S'dance_lvl_1'
p6801
asS'714'
p6802
(lp6803
S'dance_lvl_2'
p6804
asS'713'
p6805
(lp6806
S'dance_lvl_2'
p6807
asS'712'
p6808
(lp6809
S'dance_lvl_2'
p6810
asS'711'
p6811
(lp6812
S'dance_lvl_2'
p6813
asS'710'
p6814
(lp6815
S'dance_lvl_2'
p6816
asS'1265'
p6817
(lp6818
S'dance_lvl_2'
p6819
asS'1264'
p6820
(lp6821
S'dance_lvl_2'
p6822
asS'917'
p6823
(lp6824
S'dance_lvl_3'
p6825
asS'1069'
p6826
(lp6827
S'dance_lvl_3'
p6828
asS'1068'
p6829
(lp6830
S'dance_lvl_3'
p6831
asS'916'
p6832
(lp6833
S'dance_lvl_3'
p6834
asS'1061'
p6835
(lp6836
S'dance_lvl_3'
p6837
asS'1060'
p6838
(lp6839
S'dance_lvl_3'
p6840
asS'1063'
p6841
(lp6842
S'dance_lvl_3'
p6843
asS'1062'
p6844
(lp6845
S'dance_lvl_3'
p6846
asS'1065'
p6847
(lp6848
S'dance_lvl_3'
p6849
asS'1064'
p6850
(lp6851
S'dance_lvl_3'
p6852
asS'1067'
p6853
(lp6854
S'dance_lvl_3'
p6855
asS'1066'
p6856
(lp6857
S'dance_lvl_3'
p6858
asS'1669'
p6859
(lp6860
S'dance_lvl_1'
p6861
asS'1668'
p6862
(lp6863
S'dance_lvl_1'
p6864
asS'1667'
p6865
(lp6866
S'dance_lvl_1'
p6867
asS'1666'
p6868
(lp6869
S'dance_lvl_1'
p6870
asS'1665'
p6871
(lp6872
S'dance_lvl_2'
p6873
asS'912'
p6874
(lp6875
S'dance_lvl_3'
p6876
asS'1663'
p6877
(lp6878
S'dance_lvl_1'
p6879
asS'1662'
p6880
(lp6881
S'dance_lvl_3'
p6882
asS'1661'
p6883
(lp6884
S'dance_lvl_3'
p6885
asS'1660'
p6886
(lp6887
S'dance_lvl_3'
p6888
asS'1087'
p6889
(lp6890
S'dance_lvl_1'
p6891
asS'590'
p6892
(lp6893
S'dance_lvl_1'
p6894
asS'593'
p6895
(lp6896
S'dance_lvl_3'
p6897
asS'592'
p6898
(lp6899
S'dance_lvl_2'
p6900
asS'595'
p6901
(lp6902
S'dance_lvl_3'
p6903
asS'594'
p6904
(lp6905
S'dance_lvl_2'
p6906
asS'1081'
p6907
(lp6908
S'dance_lvl_1'
p6909
asS'596'
p6910
(lp6911
S'dance_lvl_1'
p6912
asS'599'
p6913
(lp6914
S'dance_lvl_3'
p6915
asS'598'
p6916
(lp6917
S'dance_lvl_3'
p6918
asS'1089'
p6919
(lp6920
S'dance_lvl_3'
p6921
asS'1088'
p6922
(lp6923
S'dance_lvl_3'
p6924
asS'2828'
p6925
(lp6926
S'dance_lvl_2'
p6927
asS'2829'
p6928
(lp6929
S'dance_lvl_2'
p6930
asS'2824'
p6931
(lp6932
S'dance_lvl_2'
p6933
asS'2825'
p6934
(lp6935
S'dance_lvl_2'
p6936
asS'2826'
p6937
(lp6938
S'dance_lvl_2'
p6939
asS'2827'
p6940
(lp6941
S'dance_lvl_2'
p6942
asS'2820'
p6943
(lp6944
S'dance_lvl_2'
p6945
asS'2821'
p6946
(lp6947
S'dance_lvl_2'
p6948
asS'2822'
p6949
(lp6950
S'dance_lvl_2'
p6951
asS'2823'
p6952
(lp6953
S'dance_lvl_2'
p6954
asS'2602'
p6955
(lp6956
S'dance_lvl_1'
p6957
asS'1409'
p6958
(lp6959
S'dance_lvl_1'
p6960
asS'1408'
p6961
(lp6962
S'dance_lvl_1'
p6963
asS'1403'
p6964
(lp6965
S'dance_lvl_1'
p6966
asS'1402'
p6967
(lp6968
S'dance_lvl_1'
p6969
asS'1401'
p6970
(lp6971
S'dance_lvl_1'
p6972
asS'1400'
p6973
(lp6974
S'dance_lvl_1'
p6975
asS'1407'
p6976
(lp6977
S'dance_lvl_1'
p6978
asS'1406'
p6979
(lp6980
S'dance_lvl_1'
p6981
asS'1405'
p6982
(lp6983
S'dance_lvl_1'
p6984
asS'1404'
p6985
(lp6986
S'dance_lvl_1'
p6987
asS'1546'
p6988
(lp6989
S'dance_lvl_1'
p6990
asS'449'
p6991
(lp6992
S'dance_lvl_1'
p6993
asS'448'
p6994
(lp6995
S'dance_lvl_3'
p6996
asS'1339'
p6997
(lp6998
S'dance_lvl_1'
p6999
asS'1338'
p7000
(lp7001
S'dance_lvl_1'
p7002
asS'693'
p7003
(lp7004
S'dance_lvl_1'
p7005
asS'443'
p7006
(lp7007
S'dance_lvl_2'
p7008
asS'442'
p7009
(lp7010
S'dance_lvl_1'
p7011
asS'441'
p7012
(lp7013
S'dance_lvl_1'
p7014
asS'440'
p7015
(lp7016
S'dance_lvl_1'
p7017
asS'447'
p7018
(lp7019
S'dance_lvl_1'
p7020
asS'446'
p7021
(lp7022
S'dance_lvl_1'
p7023
asS'445'
p7024
(lp7025
S'dance_lvl_1'
p7026
asS'444'
p7027
(lp7028
S'dance_lvl_1'
p7029
asS'65'
p7030
(lp7031
S'dance_lvl_3'
p7032
asS'691'
p7033
(lp7034
S'dance_lvl_1'
p7035
asS'696'
p7036
(lp7037
S'dance_lvl_1'
p7038
asS'697'
p7039
(lp7040
S'dance_lvl_1'
p7041
asS'39'
p7042
(lp7043
S'dance_lvl_2'
p7044
asS'38'
p7045
(lp7046
S'dance_lvl_2'
p7047
asS'694'
p7048
(lp7049
S'dance_lvl_1'
p7050
asS'33'
p7051
(lp7052
S'dance_lvl_2'
p7053
asS'32'
p7054
(lp7055
S'dance_lvl_3'
p7056
asS'31'
p7057
(lp7058
S'dance_lvl_2'
p7059
asS'695'
p7060
(lp7061
S'dance_lvl_1'
p7062
asS'37'
p7063
(lp7064
S'dance_lvl_1'
p7065
asS'36'
p7066
(lp7067
S'dance_lvl_2'
p7068
asS'35'
p7069
(lp7070
S'dance_lvl_2'
p7071
asS'34'
p7072
(lp7073
S'dance_lvl_2'
p7074
asS'1537'
p7075
(lp7076
S'dance_lvl_1'
p7077
asS'1536'
p7078
(lp7079
S'dance_lvl_1'
p7080
asS'643'
p7081
(lp7082
S'dance_lvl_1'
p7083
asS'642'
p7084
(lp7085
S'dance_lvl_3'
p7086
asS'1533'
p7087
(lp7088
S'dance_lvl_1'
p7089
asS'1244'
p7090
(lp7091
S'dance_lvl_1'
p7092
asS'647'
p7093
(lp7094
S'dance_lvl_3'
p7095
asS'1530'
p7096
(lp7097
S'dance_lvl_1'
p7098
asS'649'
p7099
(lp7100
S'dance_lvl_3'
p7101
asS'648'
p7102
(lp7103
S'dance_lvl_3'
p7104
asS'1539'
p7105
(lp7106
S'dance_lvl_1'
p7107
asS'1538'
p7108
(lp7109
S'dance_lvl_1'
p7110
asS'339'
p7111
(lp7112
S'dance_lvl_2'
p7113
asS'338'
p7114
(lp7115
S'dance_lvl_2'
p7116
asS'335'
p7117
(lp7118
S'dance_lvl_2'
p7119
asS'334'
p7120
(lp7121
S'dance_lvl_2'
p7122
asS'337'
p7123
(lp7124
S'dance_lvl_2'
p7125
asS'336'
p7126
(lp7127
S'dance_lvl_2'
p7128
asS'331'
p7129
(lp7130
S'dance_lvl_2'
p7131
asS'330'
p7132
(lp7133
S'dance_lvl_2'
p7134
asS'333'
p7135
(lp7136
S'dance_lvl_2'
p7137
asS'332'
p7138
(lp7139
S'dance_lvl_2'
p7140
asS'543'
p7141
(lp7142
S'dance_lvl_3'
p7143
asS'1085'
p7144
(lp7145
S'dance_lvl_3'
p7146
asS'8'
(lp7147
S'dance_lvl_1'
p7148
asS'1462'
p7149
(lp7150
S'dance_lvl_3'
p7151
asS'1352'
p7152
(lp7153
S'dance_lvl_2'
p7154
asS'1101'
p7155
(lp7156
S'dance_lvl_3'
p7157
asS'1991'
p7158
(lp7159
S'dance_lvl_3'
p7160
asS'2345'
p7161
(lp7162
S'dance_lvl_2'
p7163
asS'2344'
p7164
(lp7165
S'dance_lvl_2'
p7166
asS'2347'
p7167
(lp7168
S'dance_lvl_2'
p7169
asS'2346'
p7170
(lp7171
S'dance_lvl_2'
p7172
asS'2341'
p7173
(lp7174
S'dance_lvl_2'
p7175
asS'2340'
p7176
(lp7177
S'dance_lvl_1'
p7178
asS'2343'
p7179
(lp7180
S'dance_lvl_2'
p7181
asS'2342'
p7182
(lp7183
S'dance_lvl_2'
p7184
asS'2349'
p7185
(lp7186
S'dance_lvl_2'
p7187
asS'2348'
p7188
(lp7189
S'dance_lvl_2'
p7190
asS'2067'
p7191
(lp7192
S'dance_lvl_2'
p7193
asS'1889'
p7194
(lp7195
S'dance_lvl_3'
p7196
asS'1888'
p7197
(lp7198
S'dance_lvl_3'
p7199
asS'1887'
p7200
(lp7201
S'dance_lvl_3'
p7202
asS'1886'
p7203
(lp7204
S'dance_lvl_2'
p7205
asS'1885'
p7206
(lp7207
S'dance_lvl_3'
p7208
asS'1884'
p7209
(lp7210
S'dance_lvl_1'
p7211
asS'1883'
p7212
(lp7213
S'dance_lvl_3'
p7214
asS'1882'
p7215
(lp7216
S'dance_lvl_3'
p7217
asS'1881'
p7218
(lp7219
S'dance_lvl_3'
p7220
asS'1880'
p7221
(lp7222
S'dance_lvl_3'
p7223
asS'2121'
p7224
(lp7225
S'dance_lvl_1'
p7226
asS'2120'
p7227
(lp7228
S'dance_lvl_3'
p7229
asS'2123'
p7230
(lp7231
S'dance_lvl_2'
p7232
asS'2122'
p7233
(lp7234
S'dance_lvl_2'
p7235
asS'2125'
p7236
(lp7237
S'dance_lvl_2'
p7238
asS'2124'
p7239
(lp7240
S'dance_lvl_2'
p7241
asS'948'
p7242
(lp7243
S'dance_lvl_2'
p7244
asS'949'
p7245
(lp7246
S'dance_lvl_2'
p7247
asS'946'
p7248
(lp7249
S'dance_lvl_2'
p7250
asS'947'
p7251
(lp7252
S'dance_lvl_2'
p7253
asS'944'
p7254
(lp7255
S'dance_lvl_2'
p7256
asS'945'
p7257
(lp7258
S'dance_lvl_2'
p7259
asS'942'
p7260
(lp7261
S'dance_lvl_2'
p7262
asS'943'
p7263
(lp7264
S'dance_lvl_2'
p7265
asS'940'
p7266
(lp7267
S'dance_lvl_2'
p7268
asS'941'
p7269
(lp7270
S'dance_lvl_2'
p7271
asS'1594'
p7272
(lp7273
S'dance_lvl_2'
p7274
asS'2659'
p7275
(lp7276
S'dance_lvl_2'
p7277
asS'2658'
p7278
(lp7279
S'dance_lvl_1'
p7280
asS'2653'
p7281
(lp7282
S'dance_lvl_1'
p7283
asS'2652'
p7284
(lp7285
S'dance_lvl_2'
p7286
asS'2651'
p7287
(lp7288
S'dance_lvl_2'
p7289
asS'2650'
p7290
(lp7291
S'dance_lvl_2'
p7292
asS'2657'
p7293
(lp7294
S'dance_lvl_2'
p7295
asS'2656'
p7296
(lp7297
S'dance_lvl_2'
p7298
asS'2655'
p7299
(lp7300
S'dance_lvl_2'
p7301
asS'2654'
p7302
(lp7303
S'dance_lvl_2'
p7304
asS'133'
p7305
(lp7306
S'dance_lvl_2'
p7307
asS'132'
p7308
(lp7309
S'dance_lvl_2'
p7310
asS'131'
p7311
(lp7312
S'dance_lvl_1'
p7313
asS'130'
p7314
(lp7315
S'dance_lvl_2'
p7316
asS'137'
p7317
(lp7318
S'dance_lvl_3'
p7319
asS'136'
p7320
(lp7321
S'dance_lvl_2'
p7322
asS'135'
p7323
(lp7324
S'dance_lvl_2'
p7325
asS'134'
p7326
(lp7327
S'dance_lvl_1'
p7328
asS'139'
p7329
(lp7330
S'dance_lvl_2'
p7331
asS'138'
p7332
(lp7333
S'dance_lvl_2'
p7334
asS'1354'
p7335
(lp7336
S'dance_lvl_2'
p7337
asS'2019'
p7338
(lp7339
S'dance_lvl_3'
p7340
asS'2018'
p7341
(lp7342
S'dance_lvl_3'
p7343
asS'2015'
p7344
(lp7345
S'dance_lvl_3'
p7346
asS'2014'
p7347
(lp7348
S'dance_lvl_3'
p7349
asS'2017'
p7350
(lp7351
S'dance_lvl_3'
p7352
asS'2016'
p7353
(lp7354
S'dance_lvl_3'
p7355
asS'2011'
p7356
(lp7357
S'dance_lvl_3'
p7358
asS'2010'
p7359
(lp7360
S'dance_lvl_3'
p7361
asS'2013'
p7362
(lp7363
S'dance_lvl_3'
p7364
asS'182'
p7365
(lp7366
S'dance_lvl_3'
p7367
asS'2847'
p7368
(lp7369
S'dance_lvl_3'
p7370
asS'2903'
p7371
(lp7372
S'dance_lvl_1'
p7373
asS'2902'
p7374
(lp7375
S'dance_lvl_1'
p7376
asS'2901'
p7377
(lp7378
S'dance_lvl_1'
p7379
asS'2900'
p7380
(lp7381
S'dance_lvl_1'
p7382
asS'2907'
p7383
(lp7384
S'dance_lvl_1'
p7385
asS'709'
p7386
(lp7387
S'dance_lvl_2'
p7388
asS'2905'
p7389
(lp7390
S'dance_lvl_1'
p7391
asS'2904'
p7392
(lp7393
S'dance_lvl_3'
p7394
asS'704'
p7395
(lp7396
S'dance_lvl_1'
p7397
asS'705'
p7398
(lp7399
S'dance_lvl_2'
p7400
asS'2909'
p7401
(lp7402
S'dance_lvl_2'
p7403
asS'2908'
p7404
(lp7405
S'dance_lvl_2'
p7406
asS'700'
p7407
(lp7408
S'dance_lvl_1'
p7409
asS'701'
p7410
(lp7411
S'dance_lvl_1'
p7412
asS'702'
p7413
(lp7414
S'dance_lvl_2'
p7415
asS'703'
p7416
(lp7417
S'dance_lvl_2'
p7418
asS'88'
p7419
(lp7420
S'dance_lvl_3'
p7421
asS'89'
p7422
(lp7423
S'dance_lvl_2'
p7424
asS'82'
p7425
(lp7426
S'dance_lvl_3'
p7427
asS'83'
p7428
(lp7429
S'dance_lvl_3'
p7430
asS'80'
p7431
(lp7432
S'dance_lvl_1'
p7433
asS'81'
p7434
(lp7435
S'dance_lvl_3'
p7436
asS'86'
p7437
(lp7438
S'dance_lvl_3'
p7439
asS'87'
p7440
(lp7441
S'dance_lvl_3'
p7442
asS'84'
p7443
(lp7444
S'dance_lvl_3'
p7445
asS'85'
p7446
(lp7447
S'dance_lvl_3'
p7448
asS'1658'
p7449
(lp7450
S'dance_lvl_2'
p7451
asS'1659'
p7452
(lp7453
S'dance_lvl_3'
p7454
asS'1652'
p7455
(lp7456
S'dance_lvl_3'
p7457
asS'1388'
p7458
(lp7459
S'dance_lvl_1'
p7460
asS'1650'
p7461
(lp7462
S'dance_lvl_1'
p7463
asS'1651'
p7464
(lp7465
S'dance_lvl_3'
p7466
asS'1656'
p7467
(lp7468
S'dance_lvl_3'
p7469
asS'1657'
p7470
(lp7471
S'dance_lvl_3'
p7472
asS'1654'
p7473
(lp7474
S'dance_lvl_1'
p7475
asS'411'
p7476
(lp7477
S'dance_lvl_2'
p7478
asS'586'
p7479
(lp7480
S'dance_lvl_2'
p7481
asS'587'
p7482
(lp7483
S'dance_lvl_2'
p7484
asS'584'
p7485
(lp7486
S'dance_lvl_2'
p7487
asS'585'
p7488
(lp7489
S'dance_lvl_2'
p7490
asS'582'
p7491
(lp7492
S'dance_lvl_2'
p7493
asS'583'
p7494
(lp7495
S'dance_lvl_2'
p7496
asS'580'
p7497
(lp7498
S'dance_lvl_2'
p7499
asS'581'
p7500
(lp7501
S'dance_lvl_2'
p7502
asS'1984'
p7503
(lp7504
S'dance_lvl_2'
p7505
asS'588'
p7506
(lp7507
S'dance_lvl_2'
p7508
asS'589'
p7509
(lp7510
S'dance_lvl_2'
p7511
asS'1633'
p7512
(lp7513
S'dance_lvl_1'
p7514
asS'2839'
p7515
(lp7516
S'dance_lvl_3'
p7517
asS'2838'
p7518
(lp7519
S'dance_lvl_3'
p7520
asS'2837'
p7521
(lp7522
S'dance_lvl_1'
p7523
asS'1982'
p7524
(lp7525
S'dance_lvl_2'
p7526
asS'2835'
p7527
(lp7528
S'dance_lvl_2'
p7529
asS'2834'
p7530
(lp7531
S'dance_lvl_2'
p7532
asS'2833'
p7533
(lp7534
S'dance_lvl_2'
p7535
asS'2832'
p7536
(lp7537
S'dance_lvl_2'
p7538
asS'2831'
p7539
(lp7540
S'dance_lvl_2'
p7541
asS'1983'
p7542
(lp7543
S'dance_lvl_2'
p7544
asS'1436'
p7545
(lp7546
S'dance_lvl_3'
p7547
asS'1437'
p7548
(lp7549
S'dance_lvl_1'
p7550
asS'1434'
p7551
(lp7552
S'dance_lvl_1'
p7553
asS'1435'
p7554
(lp7555
S'dance_lvl_1'
p7556
asS'1432'
p7557
(lp7558
S'dance_lvl_1'
p7559
asS'1433'
p7560
(lp7561
S'dance_lvl_1'
p7562
asS'1430'
p7563
(lp7564
S'dance_lvl_1'
p7565
asS'1431'
p7566
(lp7567
S'dance_lvl_1'
p7568
asS'1380'
p7569
(lp7570
S'dance_lvl_1'
p7571
asS'1981'
p7572
(lp7573
S'dance_lvl_2'
p7574
asS'1438'
p7575
(lp7576
S'dance_lvl_1'
p7577
asS'1439'
p7578
(lp7579
S'dance_lvl_1'
p7580
asS'1349'
p7581
(lp7582
S'dance_lvl_2'
p7583
asS'458'
p7584
(lp7585
S'dance_lvl_1'
p7586
asS'459'
p7587
(lp7588
S'dance_lvl_1'
p7589
asS'1340'
p7590
(lp7591
S'dance_lvl_1'
p7592
asS'451'
p7593
(lp7594
S'dance_lvl_1'
p7595
asS'452'
p7596
(lp7597
S'dance_lvl_1'
p7598
asS'453'
p7599
(lp7600
S'dance_lvl_1'
p7601
asS'454'
p7602
(lp7603
S'dance_lvl_1'
p7604
asS'1345'
p7605
(lp7606
S'dance_lvl_1'
p7607
asS'456'
p7608
(lp7609
S'dance_lvl_1'
p7610
asS'457'
p7611
(lp7612
S'dance_lvl_2'
p7613
asS'517'
p7614
(lp7615
S'dance_lvl_2'
p7616
asS'1266'
p7617
(lp7618
S'dance_lvl_3'
p7619
asS'1502'
p7620
(lp7621
S'dance_lvl_1'
p7622
asS'1503'
p7623
(lp7624
S'dance_lvl_1'
p7625
asS'654'
p7626
(lp7627
S'dance_lvl_1'
p7628
asS'655'
p7629
(lp7630
S'dance_lvl_1'
p7631
asS'652'
p7632
(lp7633
S'dance_lvl_1'
p7634
asS'653'
p7635
(lp7636
S'dance_lvl_1'
p7637
asS'1504'
p7638
(lp7639
S'dance_lvl_1'
p7640
asS'1505'
p7641
(lp7642
S'dance_lvl_1'
p7643
asS'1508'
p7644
(lp7645
S'dance_lvl_1'
p7646
asS'1509'
p7647
(lp7648
S'dance_lvl_3'
p7649
asS'658'
p7650
(lp7651
S'dance_lvl_1'
p7652
asS'659'
p7653
(lp7654
S'dance_lvl_1'
p7655
asS'1992'
p7656
(lp7657
S'dance_lvl_3'
p7658
asS'2127'
p7659
(lp7660
S'dance_lvl_2'
p7661
asS'2126'
p7662
(lp7663
S'dance_lvl_2'
p7664
asS'2129'
p7665
(lp7666
S'dance_lvl_2'
p7667
asS'2128'
p7668
(lp7669
S'dance_lvl_2'
p7670
asS'631'
p7671
(lp7672
S'dance_lvl_3'
p7673
asS'2815'
p7674
(lp7675
S'dance_lvl_2'
p7676
asS'2814'
p7677
(lp7678
S'dance_lvl_2'
p7679
asS'1376'
p7680
(lp7681
S'dance_lvl_3'
p7682
asS'322'
p7683
(lp7684
S'dance_lvl_1'
p7685
asS'323'
p7686
(lp7687
S'dance_lvl_2'
p7688
asS'320'
p7689
(lp7690
S'dance_lvl_2'
p7691
asS'321'
p7692
(lp7693
S'dance_lvl_2'
p7694
asS'326'
p7695
(lp7696
S'dance_lvl_2'
p7697
asS'327'
p7698
(lp7699
S'dance_lvl_2'
p7700
asS'324'
p7701
(lp7702
S'dance_lvl_2'
p7703
asS'325'
p7704
(lp7705
S'dance_lvl_2'
p7706
asS'328'
p7707
(lp7708
S'dance_lvl_2'
p7709
asS'329'
p7710
(lp7711
S'dance_lvl_2'
p7712
asS'758'
p7713
(lp7714
S'dance_lvl_3'
p7715
asS'2819'
p7716
(lp7717
S'dance_lvl_2'
p7718
asS'2818'
p7719
(lp7720
S'dance_lvl_2'
p7721
asS'2330'
p7722
(lp7723
S'dance_lvl_1'
p7724
asS'2331'
p7725
(lp7726
S'dance_lvl_1'
p7727
asS'2332'
p7728
(lp7729
S'dance_lvl_1'
p7730
asS'2333'
p7731
(lp7732
S'dance_lvl_1'
p7733
asS'2334'
p7734
(lp7735
S'dance_lvl_2'
p7736
asS'2335'
p7737
(lp7738
S'dance_lvl_1'
p7739
asS'2336'
p7740
(lp7741
S'dance_lvl_1'
p7742
asS'2337'
p7743
(lp7744
S'dance_lvl_1'
p7745
asS'2338'
p7746
(lp7747
S'dance_lvl_2'
p7748
asS'2339'
p7749
(lp7750
S'dance_lvl_2'
p7751
asS'1341'
p7752
(lp7753
S'dance_lvl_1'
p7754
asS'1995'
p7755
(lp7756
S'dance_lvl_3'
p7757
asS'1591'
p7758
(lp7759
S'dance_lvl_2'
p7760
asS'1590'
p7761
(lp7762
S'dance_lvl_1'
p7763
asS'2488'
p7764
(lp7765
S'dance_lvl_1'
p7766
asS'2489'
p7767
(lp7768
S'dance_lvl_1'
p7769
asS'2486'
p7770
(lp7771
S'dance_lvl_1'
p7772
asS'2487'
p7773
(lp7774
S'dance_lvl_3'
p7775
asS'2484'
p7776
(lp7777
S'dance_lvl_1'
p7778
asS'2485'
p7779
(lp7780
S'dance_lvl_1'
p7781
asS'2482'
p7782
(lp7783
S'dance_lvl_3'
p7784
asS'2483'
p7785
(lp7786
S'dance_lvl_1'
p7787
asS'2480'
p7788
(lp7789
S'dance_lvl_3'
p7790
asS'2481'
p7791
(lp7792
S'dance_lvl_1'
p7793
asS'2248'
p7794
(lp7795
S'dance_lvl_2'
p7796
asS'2249'
p7797
(lp7798
S'dance_lvl_2'
p7799
asS'2244'
p7800
(lp7801
S'dance_lvl_1'
p7802
asS'2245'
p7803
(lp7804
S'dance_lvl_2'
p7805
asS'2246'
p7806
(lp7807
S'dance_lvl_2'
p7808
asS'2247'
p7809
(lp7810
S'dance_lvl_2'
p7811
asS'2240'
p7812
(lp7813
S'dance_lvl_1'
p7814
asS'2241'
p7815
(lp7816
S'dance_lvl_1'
p7817
asS'2242'
p7818
(lp7819
S'dance_lvl_2'
p7820
asS'2243'
p7821
(lp7822
S'dance_lvl_1'
p7823
asS'995'
p7824
(lp7825
S'dance_lvl_1'
p7826
asS'994'
p7827
(lp7828
S'dance_lvl_1'
p7829
asS'997'
p7830
(lp7831
S'dance_lvl_1'
p7832
asS'996'
p7833
(lp7834
S'dance_lvl_1'
p7835
asS'2460'
p7836
(lp7837
S'dance_lvl_1'
p7838
asS'990'
p7839
(lp7840
S'dance_lvl_1'
p7841
asS'993'
p7842
(lp7843
S'dance_lvl_1'
p7844
asS'992'
p7845
(lp7846
S'dance_lvl_1'
p7847
asS'999'
p7848
(lp7849
S'dance_lvl_2'
p7850
asS'998'
p7851
(lp7852
S'dance_lvl_1'
p7853
asS'120'
p7854
(lp7855
S'dance_lvl_2'
p7856
asS'121'
p7857
(lp7858
S'dance_lvl_2'
p7859
asS'122'
p7860
(lp7861
S'dance_lvl_2'
p7862
asS'123'
p7863
(lp7864
S'dance_lvl_2'
p7865
asS'124'
p7866
(lp7867
S'dance_lvl_2'
p7868
asS'125'
p7869
(lp7870
S'dance_lvl_2'
p7871
asS'126'
p7872
(lp7873
S'dance_lvl_2'
p7874
asS'127'
p7875
(lp7876
S'dance_lvl_1'
p7877
asS'128'
p7878
(lp7879
S'dance_lvl_2'
p7880
asS'129'
p7881
(lp7882
S'dance_lvl_3'
p7883
asS'2068'
p7884
(lp7885
S'dance_lvl_1'
p7886
asS'2069'
p7887
(lp7888
S'dance_lvl_1'
p7889
asS'2798'
p7890
(lp7891
S'dance_lvl_3'
p7892
asS'2799'
p7893
(lp7894
S'dance_lvl_1'
p7895
asS'2060'
p7896
(lp7897
S'dance_lvl_1'
p7898
asS'2061'
p7899
(lp7900
S'dance_lvl_1'
p7901
asS'2062'
p7902
(lp7903
S'dance_lvl_1'
p7904
asS'2063'
p7905
(lp7906
S'dance_lvl_1'
p7907
asS'2064'
p7908
(lp7909
S'dance_lvl_1'
p7910
asS'2797'
p7911
(lp7912
S'dance_lvl_1'
p7913
asS'2066'
p7914
(lp7915
S'dance_lvl_1'
p7916
asS'2795'
p7917
(lp7918
S'dance_lvl_1'
p7919
asS'1086'
p7920
(lp7921
S'dance_lvl_3'
p7922
asS'1134'
p7923
(lp7924
S'dance_lvl_2'
p7925
asS'2666'
p7926
(lp7927
S'dance_lvl_2'
p7928
asS'2667'
p7929
(lp7930
S'dance_lvl_2'
p7931
asS'2664'
p7932
(lp7933
S'dance_lvl_2'
p7934
asS'2665'
p7935
(lp7936
S'dance_lvl_2'
p7937
asS'2662'
p7938
(lp7939
S'dance_lvl_3'
p7940
asS'2663'
p7941
(lp7942
S'dance_lvl_2'
p7943
asS'2660'
p7944
(lp7945
S'dance_lvl_2'
p7946
asS'2661'
p7947
(lp7948
S'dance_lvl_2'
p7949
asS'1748'
p7950
(lp7951
S'dance_lvl_2'
p7952
asS'2668'
p7953
(lp7954
S'dance_lvl_2'
p7955
asS'1749'
p7956
(lp7957
S'dance_lvl_2'
p7958
asS'2938'
p7959
(lp7960
S'dance_lvl_3'
p7961
asS'2939'
p7962
(lp7963
S'dance_lvl_2'
p7964
asS'2936'
p7965
(lp7966
S'dance_lvl_3'
p7967
asS'2937'
p7968
(lp7969
S'dance_lvl_3'
p7970
asS'2934'
p7971
(lp7972
S'dance_lvl_2'
p7973
asS'1397'
p7974
(lp7975
S'dance_lvl_1'
p7976
asS'2932'
p7977
(lp7978
S'dance_lvl_2'
p7979
asS'2933'
p7980
(lp7981
S'dance_lvl_2'
p7982
asS'2930'
p7983
(lp7984
S'dance_lvl_2'
p7985
asS'2931'
p7986
(lp7987
S'dance_lvl_2'
p7988
asS'1645'
p7989
(lp7990
S'dance_lvl_1'
p7991
asS'1644'
p7992
(lp7993
S'dance_lvl_1'
p7994
asS'1647'
p7995
(lp7996
S'dance_lvl_1'
p7997
asS'1646'
p7998
(lp7999
S'dance_lvl_1'
p8000
asS'1641'
p8001
(lp8002
S'dance_lvl_3'
p8003
asS'1640'
p8004
(lp8005
S'dance_lvl_1'
p8006
asS'1643'
p8007
(lp8008
S'dance_lvl_1'
p8009
asS'1642'
p8010
(lp8011
S'dance_lvl_1'
p8012
asS'1396'
p8013
(lp8014
S'dance_lvl_1'
p8015
asS'1649'
p8016
(lp8017
S'dance_lvl_3'
p8018
asS'1648'
p8019
(lp8020
S'dance_lvl_1'
p8021
asS'728'
p8022
(lp8023
S'dance_lvl_1'
p8024
asS'729'
p8025
(lp8026
S'dance_lvl_1'
p8027
asS'579'
p8028
(lp8029
S'dance_lvl_2'
p8030
asS'578'
p8031
(lp8032
S'dance_lvl_1'
p8033
asS'573'
p8034
(lp8035
S'dance_lvl_3'
p8036
asS'572'
p8037
(lp8038
S'dance_lvl_2'
p8039
asS'571'
p8040
(lp8041
S'dance_lvl_2'
p8042
asS'570'
p8043
(lp8044
S'dance_lvl_2'
p8045
asS'577'
p8046
(lp8047
S'dance_lvl_3'
p8048
asS'576'
p8049
(lp8050
S'dance_lvl_2'
p8051
asS'575'
p8052
(lp8053
S'dance_lvl_2'
p8054
asS'574'
p8055
(lp8056
S'dance_lvl_2'
p8057
asS'2808'
p8058
(lp8059
S'dance_lvl_2'
p8060
asS'2809'
p8061
(lp8062
S'dance_lvl_2'
p8063
asS'2802'
p8064
(lp8065
S'dance_lvl_1'
p8066
asS'2803'
p8067
(lp8068
S'dance_lvl_1'
p8069
asS'2800'
p8070
(lp8071
S'dance_lvl_1'
p8072
asS'2801'
p8073
(lp8074
S'dance_lvl_1'
p8075
asS'2806'
p8076
(lp8077
S'dance_lvl_2'
p8078
asS'2807'
p8079
(lp8080
S'dance_lvl_2'
p8081
asS'2804'
p8082
(lp8083
S'dance_lvl_1'
p8084
asS'2805'
p8085
(lp8086
S'dance_lvl_2'
p8087
asS'1421'
p8088
(lp8089
S'dance_lvl_1'
p8090
asS'1420'
p8091
(lp8092
S'dance_lvl_1'
p8093
asS'1423'
p8094
(lp8095
S'dance_lvl_1'
p8096
asS'1422'
p8097
(lp8098
S'dance_lvl_1'
p8099
asS'1425'
p8100
(lp8101
S'dance_lvl_1'
p8102
asS'1424'
p8103
(lp8104
S'dance_lvl_1'
p8105
asS'1427'
p8106
(lp8107
S'dance_lvl_1'
p8108
asS'1426'
p8109
(lp8110
S'dance_lvl_1'
p8111
asS'1429'
p8112
(lp8113
S'dance_lvl_1'
p8114
asS'1428'
p8115
(lp8116
S'dance_lvl_1'
p8117
asS'939'
p8118
(lp8119
S'dance_lvl_2'
p8120
asS'731'
p8121
(lp8122
S'dance_lvl_1'
p8123
asS'730'
p8124
(lp8125
S'dance_lvl_1'
p8126
asS'733'
p8127
(lp8128
S'dance_lvl_1'
p8129
asS'732'
p8130
(lp8131
S'dance_lvl_1'
p8132
asS'735'
p8133
(lp8134
S'dance_lvl_1'
p8135
asS'734'
p8136
(lp8137
S'dance_lvl_1'
p8138
asS'737'
p8139
(lp8140
S'dance_lvl_1'
p8141
asS'736'
p8142
(lp8143
S'dance_lvl_2'
p8144
asS'739'
p8145
(lp8146
S'dance_lvl_1'
p8147
asS'738'
p8148
(lp8149
S'dance_lvl_1'
p8150
asS'1084'
p8151
(lp8152
S'dance_lvl_3'
p8153
asS'2151'
p8154
(lp8155
S'dance_lvl_2'
p8156
asS'1359'
p8157
(lp8158
S'dance_lvl_2'
p8159
asS'1358'
p8160
(lp8161
S'dance_lvl_3'
p8162
asS'469'
p8163
(lp8164
S'dance_lvl_1'
p8165
asS'468'
p8166
(lp8167
S'dance_lvl_1'
p8168
asS'465'
p8169
(lp8170
S'dance_lvl_1'
p8171
asS'464'
p8172
(lp8173
S'dance_lvl_1'
p8174
asS'467'
p8175
(lp8176
S'dance_lvl_2'
p8177
asS'466'
p8178
(lp8179
S'dance_lvl_1'
p8180
asS'461'
p8181
(lp8182
S'dance_lvl_1'
p8183
asS'460'
p8184
(lp8185
S'dance_lvl_1'
p8186
asS'463'
p8187
(lp8188
S'dance_lvl_1'
p8189
asS'462'
p8190
(lp8191
S'dance_lvl_2'
p8192
asS'2158'
p8193
(lp8194
S'dance_lvl_3'
p8195
asS'2159'
p8196
(lp8197
S'dance_lvl_3'
p8198
asS'1519'
p8199
(lp8200
S'dance_lvl_3'
p8201
asS'1518'
p8202
(lp8203
S'dance_lvl_1'
p8204
asS'1515'
p8205
(lp8206
S'dance_lvl_1'
p8207
asS'1514'
p8208
(lp8209
S'dance_lvl_1'
p8210
asS'1517'
p8211
(lp8212
S'dance_lvl_1'
p8213
asS'934'
p8214
(lp8215
S'dance_lvl_3'
p8216
asS'1511'
p8217
(lp8218
S'dance_lvl_1'
p8219
asS'1510'
p8220
(lp8221
S'dance_lvl_1'
p8222
asS'1513'
p8223
(lp8224
S'dance_lvl_1'
p8225
asS'1512'
p8226
(lp8227
S'dance_lvl_1'
p8228
asS'357'
p8229
(lp8230
S'dance_lvl_3'
p8231
asS'356'
p8232
(lp8233
S'dance_lvl_2'
p8234
asS'355'
p8235
(lp8236
S'dance_lvl_3'
p8237
asS'354'
p8238
(lp8239
S'dance_lvl_2'
p8240
asS'353'
p8241
(lp8242
S'dance_lvl_2'
p8243
asS'352'
p8244
(lp8245
S'dance_lvl_2'
p8246
asS'351'
p8247
(lp8248
S'dance_lvl_3'
p8249
asS'350'
p8250
(lp8251
S'dance_lvl_2'
p8252
asS'359'
p8253
(lp8254
S'dance_lvl_3'
p8255
asS'358'
p8256
(lp8257
S'dance_lvl_3'
p8258
asS'2323'
p8259
(lp8260
S'dance_lvl_1'
p8261
asS'2322'
p8262
(lp8263
S'dance_lvl_1'
p8264
asS'2321'
p8265
(lp8266
S'dance_lvl_1'
p8267
asS'2320'
p8268
(lp8269
S'dance_lvl_1'
p8270
asS'2327'
p8271
(lp8272
S'dance_lvl_1'
p8273
asS'2326'
p8274
(lp8275
S'dance_lvl_1'
p8276
asS'2325'
p8277
(lp8278
S'dance_lvl_1'
p8279
asS'2324'
p8280
(lp8281
S'dance_lvl_1'
p8282
asS'2329'
p8283
(lp8284
S'dance_lvl_1'
p8285
asS'2328'
p8286
(lp8287
S'dance_lvl_1'
p8288
asS'1113'
p8289
(lp8290
S'dance_lvl_3'
p8291
asS'289'
p8292
(lp8293
S'dance_lvl_1'
p8294
asS'288'
p8295
(lp8296
S'dance_lvl_1'
p8297
asS'1112'
p8298
(lp8299
S'dance_lvl_3'
p8300
asS'2830'
p8301
(lp8302
S'dance_lvl_3'
p8303
asS'281'
p8304
(lp8305
S'dance_lvl_2'
p8306
asS'5'
(lp8307
S'dance_lvl_1'
p8308
asS'283'
p8309
(lp8310
S'dance_lvl_2'
p8311
asS'282'
p8312
(lp8313
S'dance_lvl_2'
p8314
asS'285'
p8315
(lp8316
S'dance_lvl_2'
p8317
asS'284'
p8318
(lp8319
S'dance_lvl_2'
p8320
asS'287'
p8321
(lp8322
S'dance_lvl_3'
p8323
asS'286'
p8324
(lp8325
S'dance_lvl_1'
p8326
asS'1441'
p8327
(lp8328
S'dance_lvl_2'
p8329
asS'1440'
p8330
(lp8331
S'dance_lvl_2'
p8332
asS'263'
p8333
(lp8334
S'dance_lvl_2'
p8335
asS'262'
p8336
(lp8337
S'dance_lvl_2'
p8338
asS'261'
p8339
(lp8340
S'dance_lvl_2'
p8341
asS'260'
p8342
(lp8343
S'dance_lvl_2'
p8344
asS'267'
p8345
(lp8346
S'dance_lvl_2'
p8347
asS'266'
p8348
(lp8349
S'dance_lvl_2'
p8350
asS'265'
p8351
(lp8352
S'dance_lvl_1'
p8353
asS'264'
p8354
(lp8355
S'dance_lvl_2'
p8356
asS'1031'
p8357
(lp8358
S'dance_lvl_2'
p8359
asS'269'
p8360
(lp8361
S'dance_lvl_2'
p8362
asS'268'
p8363
(lp8364
S'dance_lvl_2'
p8365
asS'1562'
p8366
(lp8367
S'dance_lvl_2'
p8368
asS'2499'
p8369
(lp8370
S'dance_lvl_1'
p8371
asS'2498'
p8372
(lp8373
S'dance_lvl_1'
p8374
asS'1563'
p8375
(lp8376
S'dance_lvl_2'
p8377
asS'2491'
p8378
(lp8379
S'dance_lvl_1'
p8380
asS'2490'
p8381
(lp8382
S'dance_lvl_1'
p8383
asS'2493'
p8384
(lp8385
S'dance_lvl_1'
p8386
asS'2492'
p8387
(lp8388
S'dance_lvl_3'
p8389
asS'2495'
p8390
(lp8391
S'dance_lvl_1'
p8392
asS'2192'
p8393
(lp8394
S'dance_lvl_1'
p8395
asS'2497'
p8396
(lp8397
S'dance_lvl_1'
p8398
asS'2496'
p8399
(lp8400
S'dance_lvl_1'
p8401
asS'259'
p8402
(lp8403
S'dance_lvl_2'
p8404
asS'1566'
p8405
(lp8406
S'dance_lvl_2'
p8407
asS'2259'
p8408
(lp8409
S'dance_lvl_2'
p8410
asS'2258'
p8411
(lp8412
S'dance_lvl_2'
p8413
asS'2257'
p8414
(lp8415
S'dance_lvl_2'
p8416
asS'2256'
p8417
(lp8418
S'dance_lvl_2'
p8419
asS'2255'
p8420
(lp8421
S'dance_lvl_2'
p8422
asS'2254'
p8423
(lp8424
S'dance_lvl_2'
p8425
asS'2253'
p8426
(lp8427
S'dance_lvl_2'
p8428
asS'2252'
p8429
(lp8430
S'dance_lvl_2'
p8431
asS'2251'
p8432
(lp8433
S'dance_lvl_2'
p8434
asS'2250'
p8435
(lp8436
S'dance_lvl_2'
p8437
asS'2477'
p8438
(lp8439
S'dance_lvl_3'
p8440
asS'2476'
p8441
(lp8442
S'dance_lvl_3'
p8443
asS'988'
p8444
(lp8445
S'dance_lvl_1'
p8446
asS'989'
p8447
(lp8448
S'dance_lvl_1'
p8449
asS'2473'
p8450
(lp8451
S'dance_lvl_3'
p8452
asS'2472'
p8453
(lp8454
S'dance_lvl_3'
p8455
asS'2471'
p8456
(lp8457
S'dance_lvl_3'
p8458
asS'2470'
p8459
(lp8460
S'dance_lvl_1'
p8461
asS'982'
p8462
(lp8463
S'dance_lvl_3'
p8464
asS'983'
p8465
(lp8466
S'dance_lvl_3'
p8467
asS'980'
p8468
(lp8469
S'dance_lvl_1'
p8470
asS'981'
p8471
(lp8472
S'dance_lvl_3'
p8473
asS'986'
p8474
(lp8475
S'dance_lvl_1'
p8476
asS'987'
p8477
(lp8478
S'dance_lvl_1'
p8479
asS'2479'
p8480
(lp8481
S'dance_lvl_2'
p8482
asS'985'
p8483
(lp8484
S'dance_lvl_1'
p8485
asS'115'
p8486
(lp8487
S'dance_lvl_2'
p8488
asS'2198'
p8489
(lp8490
S'dance_lvl_1'
p8491
asS'117'
p8492
(lp8493
S'dance_lvl_2'
p8494
asS'116'
p8495
(lp8496
S'dance_lvl_2'
p8497
asS'111'
p8498
(lp8499
S'dance_lvl_2'
p8500
asS'110'
p8501
(lp8502
S'dance_lvl_2'
p8503
asS'113'
p8504
(lp8505
S'dance_lvl_2'
p8506
asS'2199'
p8507
(lp8508
S'dance_lvl_1'
p8509
asS'119'
p8510
(lp8511
S'dance_lvl_2'
p8512
asS'118'
p8513
(lp8514
S'dance_lvl_2'
p8515
asS'2785'
p8516
(lp8517
S'dance_lvl_1'
p8518
asS'2784'
p8519
(lp8520
S'dance_lvl_1'
p8521
asS'2787'
p8522
(lp8523
S'dance_lvl_1'
p8524
asS'2786'
p8525
(lp8526
S'dance_lvl_1'
p8527
asS'2781'
p8528
(lp8529
S'dance_lvl_1'
p8530
asS'2780'
p8531
(lp8532
S'dance_lvl_3'
p8533
asS'2783'
p8534
(lp8535
S'dance_lvl_1'
p8536
asS'2782'
p8537
(lp8538
S'dance_lvl_1'
p8539
asS'2789'
p8540
(lp8541
S'dance_lvl_1'
p8542
asS'2788'
p8543
(lp8544
S'dance_lvl_1'
p8545
asS'1797'
p8546
(lp8547
S'dance_lvl_2'
p8548
asS'2079'
p8549
(lp8550
S'dance_lvl_2'
p8551
asS'2078'
p8552
(lp8553
S'dance_lvl_2'
p8554
asS'2073'
p8555
(lp8556
S'dance_lvl_1'
p8557
asS'2072'
p8558
(lp8559
S'dance_lvl_1'
p8560
asS'2071'
p8561
(lp8562
S'dance_lvl_1'
p8563
asS'2070'
p8564
(lp8565
S'dance_lvl_1'
p8566
asS'2077'
p8567
(lp8568
S'dance_lvl_2'
p8569
asS'2076'
p8570
(lp8571
S'dance_lvl_2'
p8572
asS'2075'
p8573
(lp8574
S'dance_lvl_2'
p8575
asS'2074'
p8576
(lp8577
S'dance_lvl_2'
p8578
asS'1796'
p8579
(lp8580
S'dance_lvl_2'
p8581
asS'2671'
p8582
(lp8583
S'dance_lvl_2'
p8584
asS'2670'
p8585
(lp8586
S'dance_lvl_2'
p8587
asS'2673'
p8588
(lp8589
S'dance_lvl_1'
p8590
asS'2672'
p8591
(lp8592
S'dance_lvl_2'
p8593
asS'2675'
p8594
(lp8595
S'dance_lvl_2'
p8596
asS'2674'
p8597
(lp8598
S'dance_lvl_2'
p8599
asS'2677'
p8600
(lp8601
S'dance_lvl_1'
p8602
asS'2676'
p8603
(lp8604
S'dance_lvl_2'
p8605
asS'2679'
p8606
(lp8607
S'dance_lvl_1'
p8608
asS'2678'
p8609
(lp8610
S'dance_lvl_1'
p8611
asS'1209'
p8612
(lp8613
S'dance_lvl_2'
p8614
asS'2056'
p8615
(lp8616
S'dance_lvl_3'
p8617
asS'2929'
p8618
(lp8619
S'dance_lvl_2'
p8620
asS'2928'
p8621
(lp8622
S'dance_lvl_2'
p8623
asS'2921'
p8624
(lp8625
S'dance_lvl_2'
p8626
asS'2920'
p8627
(lp8628
S'dance_lvl_2'
p8629
asS'2923'
p8630
(lp8631
S'dance_lvl_1'
p8632
asS'2922'
p8633
(lp8634
S'dance_lvl_2'
p8635
asS'2925'
p8636
(lp8637
S'dance_lvl_2'
p8638
asS'2924'
p8639
(lp8640
S'dance_lvl_2'
p8641
asS'2927'
p8642
(lp8643
S'dance_lvl_3'
p8644
asS'2926'
p8645
(lp8646
S'dance_lvl_2'
p8647
asS'708'
p8648
(lp8649
S'dance_lvl_2'
p8650
asS'2906'
p8651
(lp8652
S'dance_lvl_2'
p8653
asS'1630'
p8654
(lp8655
S'dance_lvl_1'
p8656
asS'1631'
p8657
(lp8658
S'dance_lvl_1'
p8659
asS'1632'
p8660
(lp8661
S'dance_lvl_1'
p8662
asS'1985'
p8663
(lp8664
S'dance_lvl_1'
p8665
asS'1634'
p8666
(lp8667
S'dance_lvl_1'
p8668
asS'1635'
p8669
(lp8670
S'dance_lvl_1'
p8671
asS'1636'
p8672
(lp8673
S'dance_lvl_1'
p8674
asS'1637'
p8675
(lp8676
S'dance_lvl_1'
p8677
asS'1638'
p8678
(lp8679
S'dance_lvl_1'
p8680
asS'1639'
p8681
(lp8682
S'dance_lvl_1'
p8683
asS'1988'
p8684
(lp8685
S'dance_lvl_3'
p8686
asS'1989'
p8687
(lp8688
S'dance_lvl_3'
p8689
asS'1781'
p8690
(lp8691
S'dance_lvl_2'
p8692
asS'706'
p8693
(lp8694
S'dance_lvl_3'
p8695
asS'568'
p8696
(lp8697
S'dance_lvl_2'
p8698
asS'569'
p8699
(lp8700
S'dance_lvl_2'
p8701
asS'2817'
p8702
(lp8703
S'dance_lvl_3'
p8704
asS'2816'
p8705
(lp8706
S'dance_lvl_2'
p8707
asS'2811'
p8708
(lp8709
S'dance_lvl_2'
p8710
asS'2810'
p8711
(lp8712
S'dance_lvl_2'
p8713
asS'2813'
p8714
(lp8715
S'dance_lvl_2'
p8716
asS'2812'
p8717
(lp8718
S'dance_lvl_2'
p8719
asS'560'
p8720
(lp8721
S'dance_lvl_1'
p8722
asS'561'
p8723
(lp8724
S'dance_lvl_1'
p8725
asS'562'
p8726
(lp8727
S'dance_lvl_3'
p8728
asS'563'
p8729
(lp8730
S'dance_lvl_1'
p8731
asS'564'
p8732
(lp8733
S'dance_lvl_1'
p8734
asS'565'
p8735
(lp8736
S'dance_lvl_2'
p8737
asS'566'
p8738
(lp8739
S'dance_lvl_2'
p8740
asS'567'
p8741
(lp8742
S'dance_lvl_2'
p8743
asS'1188'
p8744
(lp8745
S'dance_lvl_2'
p8746
asS'1189'
p8747
(lp8748
S'dance_lvl_2'
p8749
asS'1186'
p8750
(lp8751
S'dance_lvl_2'
p8752
asS'1187'
p8753
(lp8754
S'dance_lvl_2'
p8755
asS'1184'
p8756
(lp8757
S'dance_lvl_2'
p8758
asS'1185'
p8759
(lp8760
S'dance_lvl_2'
p8761
asS'1182'
p8762
(lp8763
S'dance_lvl_1'
p8764
asS'1183'
p8765
(lp8766
S'dance_lvl_1'
p8767
asS'1180'
p8768
(lp8769
S'dance_lvl_1'
p8770
asS'1181'
p8771
(lp8772
S'dance_lvl_1'
p8773
asS'726'
p8774
(lp8775
S'dance_lvl_1'
p8776
asS'727'
p8777
(lp8778
S'dance_lvl_1'
p8779
asS'724'
p8780
(lp8781
S'dance_lvl_1'
p8782
asS'725'
p8783
(lp8784
S'dance_lvl_1'
p8785
asS'722'
p8786
(lp8787
S'dance_lvl_1'
p8788
asS'723'
p8789
(lp8790
S'dance_lvl_1'
p8791
asS'720'
p8792
(lp8793
S'dance_lvl_2'
p8794
asS'721'
p8795
(lp8796
S'dance_lvl_1'
p8797
asS'1744'
p8798
(lp8799
S'dance_lvl_1'
p8800
asS'1745'
p8801
(lp8802
S'dance_lvl_1'
p8803
asS'1746'
p8804
(lp8805
S'dance_lvl_1'
p8806
asS'1747'
p8807
(lp8808
S'dance_lvl_1'
p8809
asS'1740'
p8810
(lp8811
S'dance_lvl_2'
p8812
asS'1741'
p8813
(lp8814
S'dance_lvl_1'
p8815
asS'1742'
p8816
(lp8817
S'dance_lvl_1'
p8818
asS'1743'
p8819
(lp8820
S'dance_lvl_1'
p8821
asS'1164'
p8822
(lp8823
S'dance_lvl_1'
p8824
asS'1165'
p8825
(lp8826
S'dance_lvl_2'
p8827
asS'1166'
p8828
(lp8829
S'dance_lvl_1'
p8830
asS'1167'
p8831
(lp8832
S'dance_lvl_1'
p8833
asS'1160'
p8834
(lp8835
S'dance_lvl_1'
p8836
asS'1161'
p8837
(lp8838
S'dance_lvl_1'
p8839
asS'1162'
p8840
(lp8841
S'dance_lvl_1'
p8842
asS'1163'
p8843
(lp8844
S'dance_lvl_3'
p8845
asS'1168'
p8846
(lp8847
S'dance_lvl_1'
p8848
asS'1169'
p8849
(lp8850
S'dance_lvl_1'
p8851
asS'1366'
p8852
(lp8853
S'dance_lvl_2'
p8854
asS'2913'
p8855
(lp8856
S'dance_lvl_3'
p8857
asS'48'
p8858
(lp8859
S'dance_lvl_1'
p8860
asS'49'
p8861
(lp8862
S'dance_lvl_2'
p8863
asS'46'
p8864
(lp8865
S'dance_lvl_3'
p8866
asS'47'
p8867
(lp8868
S'dance_lvl_2'
p8869
asS'44'
p8870
(lp8871
S'dance_lvl_2'
p8872
asS'45'
p8873
(lp8874
S'dance_lvl_2'
p8875
asS'42'
p8876
(lp8877
S'dance_lvl_2'
p8878
asS'43'
p8879
(lp8880
S'dance_lvl_2'
p8881
asS'40'
p8882
(lp8883
S'dance_lvl_2'
p8884
asS'41'
p8885
(lp8886
S'dance_lvl_2'
p8887
asS'1568'
p8888
(lp8889
S'dance_lvl_2'
p8890
asS'1569'
p8891
(lp8892
S'dance_lvl_2'
p8893
asS'1298'
p8894
(lp8895
S'dance_lvl_3'
p8896
asS'1299'
p8897
(lp8898
S'dance_lvl_2'
p8899
asS'1292'
p8900
(lp8901
S'dance_lvl_2'
p8902
asS'1293'
p8903
(lp8904
S'dance_lvl_2'
p8905
asS'1290'
p8906
(lp8907
S'dance_lvl_1'
p8908
asS'1291'
p8909
(lp8910
S'dance_lvl_2'
p8911
asS'1296'
p8912
(lp8913
S'dance_lvl_2'
p8914
asS'1297'
p8915
(lp8916
S'dance_lvl_2'
p8917
asS'1294'
p8918
(lp8919
S'dance_lvl_2'
p8920
asS'1295'
p8921
(lp8922
S'dance_lvl_2'
p8923
asS'1713'
p8924
(lp8925
S'dance_lvl_3'
p8926
asS'1360'
p8927
(lp8928
S'dance_lvl_2'
p8929
asS'1712'
p8930
(lp8931
S'dance_lvl_3'
p8932
asS'591'
p8933
(lp8934
S'dance_lvl_2'
p8935
asS'1361'
p8936
(lp8937
S'dance_lvl_2'
p8938
asS'1711'
p8939
(lp8940
S'dance_lvl_3'
p8941
asS'2425'
p8942
(lp8943
S'dance_lvl_2'
p8944
asS'1710'
p8945
(lp8946
S'dance_lvl_3'
p8947
asS'1789'
p8948
(lp8949
S'dance_lvl_2'
p8950
asS'1717'
p8951
(lp8952
S'dance_lvl_3'
p8953
asS'792'
p8954
(lp8955
S'dance_lvl_2'
p8956
asS'1715'
p8957
(lp8958
S'dance_lvl_3'
p8959
asS'1714'
p8960
(lp8961
S'dance_lvl_3'
p8962
asS'472'
p8963
(lp8964
S'dance_lvl_1'
p8965
asS'473'
p8966
(lp8967
S'dance_lvl_1'
p8968
asS'1364'
p8969
(lp8970
S'dance_lvl_2'
p8971
asS'1365'
p8972
(lp8973
S'dance_lvl_2'
p8974
asS'476'
p8975
(lp8976
S'dance_lvl_1'
p8977
asS'477'
p8978
(lp8979
S'dance_lvl_1'
p8980
asS'474'
p8981
(lp8982
S'dance_lvl_1'
p8983
asS'475'
p8984
(lp8985
S'dance_lvl_1'
p8986
asS'478'
p8987
(lp8988
S'dance_lvl_2'
p8989
asS'479'
p8990
(lp8991
S'dance_lvl_2'
p8992
asS'2916'
p8993
(lp8994
S'dance_lvl_2'
p8995
asS'1368'
p8996
(lp8997
S'dance_lvl_2'
p8998
asS'1369'
p8999
(lp9000
S'dance_lvl_3'
p9001
ass.