(dp1
S'G'
ccopy_reg
_reconstructor
p2
(chypergraph
Hypergraph
p3
c__builtin__
object
p4
NtRp5
(dp6
S'_Hypergraph__edge_size'
p7
(lp8
I3003
asS'_Hypergraph__label_to_edge'
p9
(dp10
S'AnySong'
p11
I0
ssS'_Hypergraph__edge_to_label'
p12
(lp13
g11
asS'_Hypergraph__Zt'
p14
cnumpy.core.multiarray
_reconstruct
p15
(cnumpy
ndarray
p16
(I0
tS'b'
tRp17
(I1
(I1
tcnumpy
dtype
p18
(S'f8'
I0
I1
tRp19
(I3
S'<'
NNNI-1
I-1
I0
tbI00
S'\x00\x00\x00\x00\x00t\xa7@'
tbsS'_Hypergraph__Z0'
p20
g15
(g16
(I0
tS'b'
tRp21
(I1
(I1
tg18
(S'i8'
I0
I1
tRp22
(I3
S'<'
NNNI-1
I-1
I0
tbI00
S'\xbb\x0b\x00\x00\x00\x00\x00\x00'
tbsS'_Hypergraph__weights'
p23
g15
(g16
(I0
tS'b'
tRp24
(I1
(I1
tg19
I00
S'\x00\x00\x00\x00\x00\x00\xf0?'
tbsS'_Hypergraph__edge_set'
p25
(lp26
c__builtin__
set
p27
((lp28
S'1615'
p29
aS'344'
p30
aS'345'
p31
aS'346'
p32
aS'347'
p33
aS'340'
p34
aS'341'
p35
aS'342'
p36
aS'343'
p37
aS'2918'
p38
aS'348'
p39
aS'349'
p40
aS'2919'
p41
aS'1653'
p42
aS'2318'
p43
aS'2319'
p44
aS'2316'
p45
aS'2317'
p46
aS'2314'
p47
aS'2315'
p48
aS'2312'
p49
aS'2313'
p50
aS'2310'
p51
aS'2311'
p52
aS'298'
p53
aS'299'
p54
aS'296'
p55
aS'297'
p56
aS'294'
p57
aS'295'
p58
aS'292'
p59
aS'293'
p60
aS'290'
p61
aS'291'
p62
aS'270'
p63
aS'271'
p64
aS'272'
p65
aS'273'
p66
aS'274'
p67
aS'275'
p68
aS'276'
p69
aS'277'
p70
aS'278'
p71
aS'279'
p72
aS'738'
p73
aS'2268'
p74
aS'2269'
p75
aS'2262'
p76
aS'2263'
p77
aS'2260'
p78
aS'2261'
p79
aS'2266'
p80
aS'2267'
p81
aS'2264'
p82
aS'2265'
p83
aS'2442'
p84
aS'2443'
p85
aS'2440'
p86
aS'2441'
p87
aS'2446'
p88
aS'2447'
p89
aS'2444'
p90
aS'2445'
p91
aS'2448'
p92
aS'2449'
p93
aS'2189'
p94
aS'108'
p95
aS'109'
p96
aS'102'
p97
aS'103'
p98
aS'100'
p99
aS'101'
p100
aS'106'
p101
aS'107'
p102
aS'104'
p103
aS'105'
p104
aS'2046'
p105
aS'2047'
p106
aS'2044'
p107
aS'2045'
p108
aS'2042'
p109
aS'2043'
p110
aS'2040'
p111
aS'2041'
p112
aS'2188'
p113
aS'1297'
p114
aS'2048'
p115
aS'2049'
p116
aS'1375'
p117
aS'2688'
p118
aS'2689'
p119
aS'2684'
p120
aS'2685'
p121
aS'2686'
p122
aS'2687'
p123
aS'2680'
p124
aS'2681'
p125
aS'2682'
p126
aS'2683'
p127
aS'99'
p128
aS'98'
p129
aS'91'
p130
aS'90'
p131
aS'93'
p132
aS'92'
p133
aS'95'
p134
aS'94'
p135
aS'97'
p136
aS'96'
p137
aS'1623'
p138
aS'1622'
p139
aS'1621'
p140
aS'1992'
p141
aS'1627'
p142
aS'1626'
p143
aS'1625'
p144
aS'1624'
p145
aS'1999'
p146
aS'1998'
p147
aS'1629'
p148
aS'1628'
p149
aS'2860'
p150
aS'2861'
p151
aS'2862'
p152
aS'2863'
p153
aS'2864'
p154
aS'2865'
p155
aS'2866'
p156
aS'2867'
p157
aS'2868'
p158
aS'2869'
p159
aS'557'
p160
aS'556'
p161
aS'551'
p162
aS'550'
p163
aS'553'
p164
aS'552'
p165
aS'1502'
p166
aS'1199'
p167
aS'1198'
p168
aS'1191'
p169
aS'1190'
p170
aS'1193'
p171
aS'1192'
p172
aS'1195'
p173
aS'1194'
p174
aS'1197'
p175
aS'1196'
p176
aS'1759'
p177
aS'1758'
p178
aS'1757'
p179
aS'1756'
p180
aS'1755'
p181
aS'1754'
p182
aS'1753'
p183
aS'1752'
p184
aS'1751'
p185
aS'1750'
p186
aS'1177'
p187
aS'1176'
p188
aS'1175'
p189
aS'1174'
p190
aS'1173'
p191
aS'1172'
p192
aS'1171'
p193
aS'1170'
p194
aS'1179'
p195
aS'1178'
p196
aS'1007'
p197
aS'1006'
p198
aS'1005'
p199
aS'644'
p200
aS'1285'
p201
aS'1284'
p202
aS'1287'
p203
aS'1004'
p204
aS'1281'
p205
aS'1280'
p206
aS'1283'
p207
aS'1282'
p208
aS'1003'
p209
aS'1289'
p210
aS'1288'
p211
aS'514'
p212
aS'1579'
p213
aS'1578'
p214
aS'689'
p215
aS'688'
p216
aS'685'
p217
aS'684'
p218
aS'687'
p219
aS'686'
p220
aS'1577'
p221
aS'1576'
p222
aS'1575'
p223
aS'682'
p224
aS'1227'
p225
aS'622'
p226
aS'621'
p227
aS'873'
p228
aS'620'
p229
aS'1223'
p230
aS'626'
p231
aS'2741'
p232
aS'1221'
p233
aS'2740'
p234
aS'1243'
p235
aS'624'
p236
aS'2743'
p237
aS'1371'
p238
aS'1370'
p239
aS'405'
p240
aS'1372'
p241
aS'403'
p242
aS'1374'
p243
aS'1377'
p244
aS'1376'
p245
aS'1379'
p246
aS'1378'
p247
aS'452'
p248
aS'409'
p249
aS'408'
p250
aS'1343'
p251
aS'2747'
p252
aS'1242'
p253
aS'1344'
p254
aS'2746'
p255
aS'1345'
p256
aS'2749'
p257
aS'1346'
p258
aS'457'
p259
aS'1245'
p260
aS'379'
p261
aS'378'
p262
aS'371'
p263
aS'370'
p264
aS'373'
p265
aS'372'
p266
aS'375'
p267
aS'374'
p268
aS'377'
p269
aS'376'
p270
aS'1244'
p271
aS'393'
p272
aS'392'
p273
aS'391'
p274
aS'390'
p275
aS'397'
p276
aS'396'
p277
aS'395'
p278
aS'394'
p279
aS'399'
p280
aS'398'
p281
aS'2309'
p282
aS'2308'
p283
aS'2301'
p284
aS'2300'
p285
aS'2303'
p286
aS'2302'
p287
aS'2305'
p288
aS'2304'
p289
aS'2307'
p290
aS'2306'
p291
aS'245'
p292
aS'244'
p293
aS'247'
p294
aS'246'
p295
aS'241'
p296
aS'240'
p297
aS'243'
p298
aS'242'
p299
aS'249'
p300
aS'248'
p301
aS'2275'
p302
aS'2274'
p303
aS'2277'
p304
aS'2276'
p305
aS'2271'
p306
aS'2270'
p307
aS'2273'
p308
aS'2272'
p309
aS'2279'
p310
aS'2278'
p311
aS'2459'
p312
aS'2458'
p313
aS'2455'
p314
aS'2454'
p315
aS'2457'
p316
aS'2456'
p317
aS'2451'
p318
aS'2450'
p319
aS'2453'
p320
aS'2452'
p321
aS'179'
p322
aS'178'
p323
aS'177'
p324
aS'176'
p325
aS'175'
p326
aS'174'
p327
aS'173'
p328
aS'172'
p329
aS'171'
p330
aS'170'
p331
aS'2051'
p332
aS'2050'
p333
aS'2053'
p334
aS'2052'
p335
aS'2055'
p336
aS'2054'
p337
aS'2057'
p338
aS'2056'
p339
aS'2059'
p340
aS'2058'
p341
aS'1500'
p342
aS'1501'
p343
aS'652'
p344
aS'653'
p345
aS'650'
p346
aS'651'
p347
aS'1977'
p348
aS'2699'
p349
aS'2698'
p350
aS'2697'
p351
aS'2696'
p352
aS'2695'
p353
aS'2694'
p354
aS'2693'
p355
aS'2692'
p356
aS'2691'
p357
aS'2690'
p358
aS'2405'
p359
aS'1974'
p360
aS'1973'
p361
aS'1972'
p362
aS'1971'
p363
aS'1606'
p364
aS'1968'
p365
aS'1969'
p366
aS'1618'
p367
aS'1619'
p368
aS'1616'
p369
aS'1617'
p370
aS'1614'
p371
aS'1967'
p372
aS'1960'
p373
aS'1613'
p374
aS'1610'
p375
aS'1611'
p376
aS'2873'
p377
aS'2872'
p378
aS'2871'
p379
aS'2870'
p380
aS'2877'
p381
aS'2876'
p382
aS'2875'
p383
aS'2874'
p384
aS'2879'
p385
aS'2878'
p386
aS'1768'
p387
aS'1769'
p388
aS'1762'
p389
aS'1763'
p390
aS'1760'
p391
aS'1761'
p392
aS'1766'
p393
aS'1767'
p394
aS'1764'
p395
aS'1765'
p396
aS'1142'
p397
aS'1143'
p398
aS'1140'
p399
aS'1141'
p400
aS'1146'
p401
aS'1147'
p402
aS'1144'
p403
aS'1145'
p404
aS'1148'
p405
aS'1149'
p406
aS'2967'
p407
aS'769'
p408
aS'1546'
p409
aS'1547'
p410
aS'1544'
p411
aS'1545'
p412
aS'1542'
p413
aS'1543'
p414
aS'1540'
p415
aS'695'
p416
aS'698'
p417
aS'699'
p418
aS'1548'
p419
aS'1549'
p420
aS'542'
p421
aS'762'
p422
aS'540'
p423
aS'541'
p424
aS'546'
p425
aS'547'
p426
aS'544'
p427
aS'545'
p428
aS'548'
p429
aS'549'
p430
aS'760'
p431
aS'761'
p432
aS'400'
p433
aS'1784'
p434
aS'1982'
p435
aS'1785'
p436
aS'764'
p437
aS'765'
p438
aS'414'
p439
aS'415'
p440
aS'416'
p441
aS'417'
p442
aS'1388'
p443
aS'1389'
p444
aS'412'
p445
aS'413'
p446
aS'1384'
p447
aS'1385'
p448
aS'1386'
p449
aS'1387'
p450
aS'1380'
p451
aS'1381'
p452
aS'1382'
p453
aS'1383'
p454
aS'368'
p455
aS'369'
p456
aS'366'
p457
aS'367'
p458
aS'364'
p459
aS'365'
p460
aS'362'
p461
aS'363'
p462
aS'360'
p463
aS'361'
p464
aS'380'
p465
aS'381'
p466
aS'382'
p467
aS'383'
p468
aS'384'
p469
aS'385'
p470
aS'386'
p471
aS'387'
p472
aS'388'
p473
aS'389'
p474
aS'1253'
p475
aS'900'
p476
aS'2190'
p477
aS'2191'
p478
aS'2192'
p479
aS'259'
p480
aS'2194'
p481
aS'2195'
p482
aS'2196'
p483
aS'2197'
p484
aS'2198'
p485
aS'253'
p486
aS'250'
p487
aS'251'
p488
aS'256'
p489
aS'257'
p490
aS'254'
p491
aS'255'
p492
aS'2200'
p493
aS'2201'
p494
aS'2202'
p495
aS'2203'
p496
aS'2204'
p497
aS'2205'
p498
aS'2206'
p499
aS'2207'
p500
aS'2208'
p501
aS'2209'
p502
aS'2428'
p503
aS'2429'
p504
aS'2420'
p505
aS'2421'
p506
aS'2422'
p507
aS'2423'
p508
aS'2424'
p509
aS'2425'
p510
aS'2426'
p511
aS'2427'
p512
aS'901'
p513
aS'168'
p514
aS'169'
p515
aS'164'
p516
aS'165'
p517
aS'166'
p518
aS'167'
p519
aS'160'
p520
aS'161'
p521
aS'162'
p522
aS'163'
p523
aS'2518'
p524
aS'2519'
p525
aS'1980'
p526
aS'2514'
p527
aS'2515'
p528
aS'2516'
p529
aS'2517'
p530
aS'2510'
p531
aS'2511'
p532
aS'2512'
p533
aS'2513'
p534
aS'2734'
p535
aS'2735'
p536
aS'2736'
p537
aS'2737'
p538
aS'2730'
p539
aS'2731'
p540
aS'2732'
p541
aS'2733'
p542
aS'2738'
p543
aS'2739'
p544
aS'1090'
p545
aS'1091'
p546
aS'1814'
p547
aS'1815'
p548
aS'1816'
p549
aS'1817'
p550
aS'1810'
p551
aS'1811'
p552
aS'1812'
p553
aS'1813'
p554
aS'1818'
p555
aS'1819'
p556
aS'1107'
p557
aS'646'
p558
aS'1098'
p559
aS'2795'
p560
aS'1099'
p561
aS'1609'
p562
aS'1608'
p563
aS'1979'
p564
aS'1978'
p565
aS'1601'
p566
aS'1600'
p567
aS'1603'
p568
aS'1602'
p569
aS'1605'
p570
aS'1604'
p571
aS'1607'
p572
aS'1970'
p573
aS'809'
p574
aS'808'
p575
aS'803'
p576
aS'802'
p577
aS'801'
p578
aS'800'
p579
aS'807'
p580
aS'806'
p581
aS'805'
p582
aS'804'
p583
aS'2848'
p584
aS'2849'
p585
aS'2846'
p586
aS'1102'
p587
aS'2844'
p588
aS'2845'
p589
aS'2842'
p590
aS'2843'
p591
aS'2840'
p592
aS'2841'
p593
aS'909'
p594
aS'1775'
p595
aS'1774'
p596
aS'1777'
p597
aS'1776'
p598
aS'1771'
p599
aS'1770'
p600
aS'1773'
p601
aS'1772'
p602
aS'1779'
p603
aS'1778'
p604
aS'608'
p605
aS'1551'
p606
aS'1159'
p607
aS'1158'
p608
aS'2999'
p609
aS'1155'
p610
aS'1154'
p611
aS'1157'
p612
aS'1156'
p613
aS'1151'
p614
aS'1150'
p615
aS'1153'
p616
aS'1152'
p617
aS'1555'
p618
aS'1554'
p619
aS'2998'
p620
aS'1550'
p621
aS'1553'
p622
aS'1552'
p623
aS'59'
p624
aS'58'
p625
aS'1557'
p626
aS'1556'
p627
aS'1559'
p628
aS'54'
p629
aS'57'
p630
aS'56'
p631
aS'51'
p632
aS'50'
p633
aS'53'
p634
aS'52'
p635
aS'537'
p636
aS'55'
p637
aS'535'
p638
aS'534'
p639
aS'533'
p640
aS'532'
p641
aS'531'
p642
aS'1558'
p643
aS'2992'
p644
aS'539'
p645
aS'538'
p646
aS'1976'
p647
aS'2994'
p648
aS'2995'
p649
aS'2805'
p650
aS'2996'
p651
aS'2997'
p652
aS'1975'
p653
aS'536'
p654
aS'429'
p655
aS'428'
p656
aS'1399'
p657
aS'1398'
p658
aS'1397'
p659
aS'420'
p660
aS'423'
p661
aS'422'
p662
aS'425'
p663
aS'1392'
p664
aS'427'
p665
aS'426'
p666
aS'530'
p667
aS'853'
p668
aS'2183'
p669
aS'2182'
p670
aS'2181'
p671
aS'2180'
p672
aS'2187'
p673
aS'2186'
p674
aS'2185'
p675
aS'228'
p676
aS'227'
p677
aS'226'
p678
aS'225'
p679
aS'224'
p680
aS'223'
p681
aS'222'
p682
aS'221'
p683
aS'220'
p684
aS'2213'
p685
aS'2212'
p686
aS'2211'
p687
aS'2210'
p688
aS'2217'
p689
aS'2216'
p690
aS'2215'
p691
aS'2214'
p692
aS'2219'
p693
aS'2218'
p694
aS'2230'
p695
aS'151'
p696
aS'150'
p697
aS'2439'
p698
aS'2438'
p699
aS'155'
p700
aS'154'
p701
aS'157'
p702
aS'156'
p703
aS'2433'
p704
aS'2432'
p705
aS'2431'
p706
aS'2430'
p707
aS'2437'
p708
aS'2436'
p709
aS'2435'
p710
aS'2434'
p711
aS'2509'
p712
aS'2508'
p713
aS'2507'
p714
aS'2506'
p715
aS'2505'
p716
aS'2504'
p717
aS'2503'
p718
aS'2502'
p719
aS'2501'
p720
aS'2500'
p721
aS'2727'
p722
aS'2726'
p723
aS'2725'
p724
aS'2724'
p725
aS'2723'
p726
aS'2722'
p727
aS'2721'
p728
aS'2720'
p729
aS'2729'
p730
aS'2728'
p731
aS'1712'
p732
aS'2199'
p733
aS'1807'
p734
aS'1806'
p735
aS'1805'
p736
aS'1804'
p737
aS'1803'
p738
aS'1802'
p739
aS'1801'
p740
aS'1800'
p741
aS'1809'
p742
aS'1808'
p743
aS'1256'
p744
aS'1948'
p745
aS'1949'
p746
aS'1257'
p747
aS'1942'
p748
aS'1943'
p749
aS'1940'
p750
aS'1941'
p751
aS'1946'
p752
aS'1947'
p753
aS'1944'
p754
aS'1945'
p755
aS'818'
p756
aS'0'
aS'1255'
p757
aS'810'
p758
aS'811'
p759
aS'812'
p760
aS'813'
p761
aS'814'
p762
aS'815'
p763
aS'816'
p764
aS'817'
p765
aS'2859'
p766
aS'2858'
p767
aS'1250'
p768
aS'1990'
p769
aS'2851'
p770
aS'2850'
p771
aS'2853'
p772
aS'2852'
p773
aS'2855'
p774
aS'2854'
p775
aS'2857'
p776
aS'2856'
p777
aS'1490'
p778
aS'1491'
p779
aS'1492'
p780
aS'1620'
p781
aS'1494'
p782
aS'1495'
p783
aS'1496'
p784
aS'1497'
p785
aS'1498'
p786
aS'1499'
p787
aS'1395'
p788
aS'1994'
p789
aS'1700'
p790
aS'1701'
p791
aS'1702'
p792
aS'1394'
p793
aS'1704'
p794
aS'1705'
p795
aS'1706'
p796
aS'1707'
p797
aS'1708'
p798
aS'1393'
p799
aS'1996'
p800
aS'424'
p801
aS'1391'
p802
aS'1390'
p803
aS'1128'
p804
aS'1129'
p805
aS'1120'
p806
aS'1121'
p807
aS'1122'
p808
aS'1123'
p809
aS'1124'
p810
aS'1125'
p811
aS'1126'
p812
aS'1127'
p813
aS'2989'
p814
aS'2988'
p815
aS'2983'
p816
aS'2982'
p817
aS'2981'
p818
aS'2980'
p819
aS'2987'
p820
aS'2986'
p821
aS'2985'
p822
aS'2984'
p823
aS'524'
p824
aS'525'
p825
aS'526'
p826
aS'527'
p827
aS'1018'
p828
aS'521'
p829
aS'522'
p830
aS'523'
p831
aS'1014'
p832
aS'1015'
p833
aS'1016'
p834
aS'1017'
p835
aS'528'
p836
aS'529'
p837
aS'1012'
p838
aS'1013'
p839
aS'1234'
p840
aS'1235'
p841
aS'1236'
p842
aS'1237'
p843
aS'1230'
p844
aS'1231'
p845
aS'1232'
p846
aS'1233'
p847
aS'1238'
p848
aS'1239'
p849
aS'438'
p850
aS'439'
p851
aS'436'
p852
aS'437'
p853
aS'434'
p854
aS'435'
p855
aS'432'
p856
aS'433'
p857
aS'430'
p858
aS'431'
p859
aS'473'
p860
aS'559'
p861
aS'558'
p862
aS'555'
p863
aS'554'
p864
aS'1162'
p865
aS'1961'
p866
aS'1030'
p867
aS'995'
p868
aS'994'
p869
aS'997'
p870
aS'996'
p871
aS'238'
p872
aS'239'
p873
aS'234'
p874
aS'235'
p875
aS'236'
p876
aS'237'
p877
aS'230'
p878
aS'231'
p879
aS'232'
p880
aS'233'
p881
aS'993'
p882
aS'2228'
p883
aS'2229'
p884
aS'2226'
p885
aS'2227'
p886
aS'2224'
p887
aS'992'
p888
aS'2222'
p889
aS'2223'
p890
aS'2220'
p891
aS'2221'
p892
aS'1'
aS'146'
p893
aS'147'
p894
aS'144'
p895
aS'145'
p896
aS'142'
p897
aS'143'
p898
aS'140'
p899
aS'141'
p900
aS'999'
p901
aS'148'
p902
aS'149'
p903
aS'2088'
p904
aS'2089'
p905
aS'2082'
p906
aS'2083'
p907
aS'2080'
p908
aS'2081'
p909
aS'2086'
p910
aS'2087'
p911
aS'2084'
p912
aS'2085'
p913
aS'2538'
p914
aS'2539'
p915
aS'2532'
p916
aS'2533'
p917
aS'2530'
p918
aS'2531'
p919
aS'2536'
p920
aS'2537'
p921
aS'2534'
p922
aS'2535'
p923
aS'2712'
p924
aS'2713'
p925
aS'2710'
p926
aS'2711'
p927
aS'2716'
p928
aS'2717'
p929
aS'2714'
p930
aS'2715'
p931
aS'2718'
p932
aS'2719'
p933
aS'1832'
p934
aS'1833'
p935
aS'1830'
p936
aS'1831'
p937
aS'1836'
p938
aS'1837'
p939
aS'1834'
p940
aS'1835'
p941
aS'1838'
p942
aS'1839'
p943
aS'2154'
p944
aS'2155'
p945
aS'2404'
p946
aS'938'
p947
aS'2150'
p948
aS'2403'
p949
aS'2400'
p950
aS'2153'
p951
aS'933'
p952
aS'932'
p953
aS'931'
p954
aS'930'
p955
aS'2158'
p956
aS'936'
p957
aS'935'
p958
aS'934'
p959
aS'471'
p960
aS'1955'
p961
aS'1954'
p962
aS'1957'
p963
aS'1956'
p964
aS'1951'
p965
aS'1950'
p966
aS'1953'
p967
aS'1952'
p968
aS'1959'
p969
aS'1958'
p970
aS'829'
p971
aS'828'
p972
aS'825'
p973
aS'824'
p974
aS'827'
p975
aS'826'
p976
aS'821'
p977
aS'820'
p978
aS'823'
p979
aS'822'
p980
aS'1536'
p981
aS'1993'
p982
aS'1483'
p983
aS'1482'
p984
aS'1481'
p985
aS'1480'
p986
aS'1487'
p987
aS'1486'
p988
aS'1485'
p989
aS'1484'
p990
aS'1489'
p991
aS'1488'
p992
aS'797'
p993
aS'2411'
p994
aS'795'
p995
aS'794'
p996
aS'793'
p997
aS'792'
p998
aS'791'
p999
aS'2146'
p1000
aS'1719'
p1001
aS'1718'
p1002
aS'2413'
p1003
aS'799'
p1004
aS'798'
p1005
aS'1270'
p1006
aS'2412'
p1007
aS'1271'
p1008
aS'2415'
p1009
aS'610'
p1010
aS'2414'
p1011
aS'1139'
p1012
aS'1138'
p1013
aS'2417'
p1014
aS'1133'
p1015
aS'1132'
p1016
aS'1131'
p1017
aS'1130'
p1018
aS'1137'
p1019
aS'1136'
p1020
aS'1135'
p1021
aS'1134'
p1022
aS'2419'
p1023
aS'614'
p1024
aS'2418'
p1025
aS'476'
p1026
aS'615'
p1027
aS'2790'
p1028
aS'2791'
p1029
aS'2796'
p1030
aS'2793'
p1031
aS'2797'
p1032
aS'519'
p1033
aS'518'
p1034
aS'926'
p1035
aS'1009'
p1036
aS'1008'
p1037
aS'511'
p1038
aS'510'
p1039
aS'513'
p1040
aS'512'
p1041
aS'515'
p1042
aS'1002'
p1043
aS'1001'
p1044
aS'1000'
p1045
aS'623'
p1046
aS'1226'
p1047
aS'1225'
p1048
aS'1224'
p1049
aS'627'
p1050
aS'1222'
p1051
aS'625'
p1052
aS'1220'
p1053
aS'629'
p1054
aS'628'
p1055
aS'1229'
p1056
aS'1228'
p1057
aS'2882'
p1058
aS'2883'
p1059
aS'2880'
p1060
aS'2881'
p1061
aS'2886'
p1062
aS'2887'
p1063
aS'2884'
p1064
aS'2885'
p1065
aS'2888'
p1066
aS'2889'
p1067
aS'2'
aS'1561'
p1068
aS'1286'
p1069
aS'286'
p1070
aS'11'
p1071
aS'10'
p1072
aS'13'
p1073
aS'12'
p1074
aS'15'
p1075
aS'14'
p1076
aS'17'
p1077
aS'16'
p1078
aS'19'
p1079
aS'18'
p1080
aS'928'
p1081
aS'929'
p1082
aS'201'
p1083
aS'200'
p1084
aS'203'
p1085
aS'202'
p1086
aS'205'
p1087
aS'204'
p1088
aS'207'
p1089
aS'206'
p1090
aS'209'
p1091
aS'208'
p1092
aS'1573'
p1093
aS'1572'
p1094
aS'1571'
p1095
aS'2239'
p1096
aS'2238'
p1097
aS'1570'
p1098
aS'998'
p1099
aS'2231'
p1100
aS'681'
p1101
aS'2233'
p1102
aS'2232'
p1103
aS'2235'
p1104
aS'2234'
p1105
aS'2237'
p1106
aS'2236'
p1107
aS'683'
p1108
aS'1574'
p1109
aS'229'
p1110
aS'2184'
p1111
aS'2095'
p1112
aS'2094'
p1113
aS'2097'
p1114
aS'2096'
p1115
aS'2091'
p1116
aS'2090'
p1117
aS'2093'
p1118
aS'2092'
p1119
aS'2099'
p1120
aS'2098'
p1121
aS'2525'
p1122
aS'2524'
p1123
aS'2527'
p1124
aS'2526'
p1125
aS'2521'
p1126
aS'2520'
p1127
aS'2523'
p1128
aS'2522'
p1129
aS'2529'
p1130
aS'2528'
p1131
aS'2709'
p1132
aS'2708'
p1133
aS'2705'
p1134
aS'2704'
p1135
aS'2707'
p1136
aS'2706'
p1137
aS'2701'
p1138
aS'2700'
p1139
aS'2703'
p1140
aS'2702'
p1141
aS'1829'
p1142
aS'1828'
p1143
aS'1825'
p1144
aS'1824'
p1145
aS'1827'
p1146
aS'1826'
p1147
aS'1821'
p1148
aS'1820'
p1149
aS'1823'
p1150
aS'1822'
p1151
aS'2147'
p1152
aS'2410'
p1153
aS'2145'
p1154
aS'2144'
p1155
aS'2143'
p1156
aS'2142'
p1157
aS'2141'
p1158
aS'2140'
p1159
aS'920'
p1160
aS'921'
p1161
aS'922'
p1162
aS'923'
p1163
aS'924'
p1164
aS'925'
p1165
aS'2149'
p1166
aS'2148'
p1167
aS'1920'
p1168
aS'1921'
p1169
aS'1922'
p1170
aS'1923'
p1171
aS'1924'
p1172
aS'1925'
p1173
aS'1926'
p1174
aS'1927'
p1175
aS'1928'
p1176
aS'1929'
p1177
aS'475'
p1178
aS'832'
p1179
aS'833'
p1180
aS'830'
p1181
aS'831'
p1182
aS'836'
p1183
aS'837'
p1184
aS'834'
p1185
aS'835'
p1186
aS'838'
p1187
aS'839'
p1188
aS'3'
aS'1986'
p1189
aS'1987'
p1190
aS'784'
p1191
aS'785'
p1192
aS'786'
p1193
aS'787'
p1194
aS'780'
p1195
aS'781'
p1196
aS'1728'
p1197
aS'783'
p1198
aS'1726'
p1199
aS'1727'
p1200
aS'1724'
p1201
aS'1725'
p1202
aS'788'
p1203
aS'1723'
p1204
aS'1720'
p1205
aS'1721'
p1206
aS'252'
p1207
aS'468'
p1208
aS'153'
p1209
aS'60'
p1210
aS'61'
p1211
aS'62'
p1212
aS'63'
p1213
aS'64'
p1214
aS'65'
p1215
aS'66'
p1216
aS'67'
p1217
aS'68'
p1218
aS'69'
p1219
aS'407'
p1220
aS'1588'
p1221
aS'1589'
p1222
aS'406'
p1223
aS'1582'
p1224
aS'1583'
p1225
aS'1580'
p1226
aS'1581'
p1227
aS'1586'
p1228
aS'1373'
p1229
aS'1584'
p1230
aS'1585'
p1231
aS'159'
p1232
aS'1038'
p1233
aS'404'
p1234
aS'508'
p1235
aS'509'
p1236
aS'1032'
p1237
aS'507'
p1238
aS'504'
p1239
aS'505'
p1240
aS'502'
p1241
aS'1037'
p1242
aS'1034'
p1243
aS'1035'
p1244
aS'1212'
p1245
aS'1213'
p1246
aS'1210'
p1247
aS'1211'
p1248
aS'634'
p1249
aS'1217'
p1250
aS'1214'
p1251
aS'1215'
p1252
aS'638'
p1253
aS'639'
p1254
aS'1218'
p1255
aS'1219'
p1256
aS'1983'
p1257
aS'2416'
p1258
aS'465'
p1259
aS'2899'
p1260
aS'782'
p1261
aS'2895'
p1262
aS'2894'
p1263
aS'2897'
p1264
aS'1729'
p1265
aS'2891'
p1266
aS'2890'
p1267
aS'2893'
p1268
aS'2892'
p1269
aS'1454'
p1270
aS'1455'
p1271
aS'1456'
p1272
aS'1457'
p1273
aS'1450'
p1274
aS'1451'
p1275
aS'1452'
p1276
aS'1453'
p1277
aS'1458'
p1278
aS'1459'
p1279
aS'1108'
p1280
aS'1109'
p1281
aS'1722'
p1282
aS'789'
p1283
aS'466'
p1284
aS'680'
p1285
aS'959'
p1286
aS'958'
p1287
aS'2794'
p1288
aS'216'
p1289
aS'217'
p1290
aS'214'
p1291
aS'215'
p1292
aS'212'
p1293
aS'213'
p1294
aS'210'
p1295
aS'211'
p1296
aS'218'
p1297
aS'219'
p1298
aS'957'
p1299
aS'956'
p1300
aS'939'
p1301
aS'4'
aS'2550'
p1302
aS'2551'
p1303
aS'2552'
p1304
aS'2553'
p1305
aS'2554'
p1306
aS'2555'
p1307
aS'2556'
p1308
aS'2557'
p1309
aS'2558'
p1310
aS'2559'
p1311
aS'2396'
p1312
aS'2397'
p1313
aS'2394'
p1314
aS'2395'
p1315
aS'2392'
p1316
aS'2393'
p1317
aS'2390'
p1318
aS'2391'
p1319
aS'3001'
p1320
aS'2398'
p1321
aS'2399'
p1322
aS'2778'
p1323
aS'2779'
p1324
aS'2770'
p1325
aS'2771'
p1326
aS'2772'
p1327
aS'3002'
p1328
aS'2774'
p1329
aS'2775'
p1330
aS'2776'
p1331
aS'2777'
p1332
aS'1858'
p1333
aS'1859'
p1334
aS'1850'
p1335
aS'1851'
p1336
aS'1852'
p1337
aS'1853'
p1338
aS'1854'
p1339
aS'1855'
p1340
aS'1856'
p1341
aS'1857'
p1342
aS'2172'
p1343
aS'2173'
p1344
aS'2170'
p1345
aS'2171'
p1346
aS'919'
p1347
aS'918'
p1348
aS'2174'
p1349
aS'2175'
p1350
aS'915'
p1351
aS'914'
p1352
aS'2178'
p1353
aS'2179'
p1354
aS'911'
p1355
aS'910'
p1356
aS'913'
p1357
aS'912'
p1358
aS'2604'
p1359
aS'2605'
p1360
aS'2606'
p1361
aS'2607'
p1362
aS'2600'
p1363
aS'2601'
p1364
aS'2602'
p1365
aS'2603'
p1366
aS'2608'
p1367
aS'2609'
p1368
aS'1933'
p1369
aS'1932'
p1370
aS'1931'
p1371
aS'1930'
p1372
aS'1937'
p1373
aS'1936'
p1374
aS'1935'
p1375
aS'1934'
p1376
aS'1939'
p1377
aS'1938'
p1378
aS'1348'
p1379
aS'847'
p1380
aS'846'
p1381
aS'845'
p1382
aS'844'
p1383
aS'843'
p1384
aS'842'
p1385
aS'841'
p1386
aS'840'
p1387
aS'1426'
p1388
aS'849'
p1389
aS'848'
p1390
aS'2406'
p1391
aS'459'
p1392
aS'1587'
p1393
aS'1739'
p1394
aS'1738'
p1395
aS'1731'
p1396
aS'1730'
p1397
aS'1733'
p1398
aS'1732'
p1399
aS'1735'
p1400
aS'1734'
p1401
aS'1737'
p1402
aS'1736'
p1403
aS'1039'
p1404
aS'753'
p1405
aS'752'
p1406
aS'751'
p1407
aS'750'
p1408
aS'757'
p1409
aS'756'
p1410
aS'755'
p1411
aS'754'
p1412
aS'759'
p1413
aS'758'
p1414
aS'1595'
p1415
aS'506'
p1416
aS'1597'
p1417
aS'1596'
p1418
aS'1591'
p1419
aS'1590'
p1420
aS'1593'
p1421
aS'1592'
p1422
aS'2954'
p1423
aS'2955'
p1424
aS'2956'
p1425
aS'2957'
p1426
aS'1599'
p1427
aS'2951'
p1428
aS'2952'
p1429
aS'2953'
p1430
aS'1025'
p1431
aS'1024'
p1432
aS'1027'
p1433
aS'1026'
p1434
aS'1021'
p1435
aS'1020'
p1436
aS'1023'
p1437
aS'1022'
p1438
aS'1036'
p1439
aS'1115'
p1440
aS'1029'
p1441
aS'1028'
p1442
aS'503'
p1443
aS'500'
p1444
aS'501'
p1445
aS'605'
p1446
aS'604'
p1447
aS'607'
p1448
aS'606'
p1449
aS'601'
p1450
aS'1208'
p1451
aS'603'
p1452
aS'602'
p1453
aS'1205'
p1454
aS'1204'
p1455
aS'1207'
p1456
aS'1206'
p1457
aS'609'
p1458
aS'1200'
p1459
aS'1203'
p1460
aS'1202'
p1461
aS'633'
p1462
aS'1216'
p1463
aS'635'
p1464
aS'636'
p1465
aS'637'
p1466
aS'1111'
p1467
aS'1110'
p1468
aS'1445'
p1469
aS'1444'
p1470
aS'1443'
p1471
aS'1114'
p1472
aS'1117'
p1473
aS'1116'
p1474
aS'1119'
p1475
aS'1118'
p1476
aS'467'
p1477
aS'1449'
p1478
aS'1448'
p1479
aS'1350'
p1480
aS'461'
p1481
aS'1356'
p1482
aS'1355'
p1483
aS'489'
p1484
aS'488'
p1485
aS'487'
p1486
aS'486'
p1487
aS'485'
p1488
aS'1354'
p1489
aS'483'
p1490
aS'482'
p1491
aS'481'
p1492
aS'480'
p1493
aS'1564'
p1494
aS'2898'
p1495
aS'2896'
p1496
aS'199'
p1497
aS'198'
p1498
aS'195'
p1499
aS'194'
p1500
aS'197'
p1501
aS'196'
p1502
aS'191'
p1503
aS'190'
p1504
aS'193'
p1505
aS'192'
p1506
aS'2408'
p1507
aS'2543'
p1508
aS'1106'
p1509
aS'2541'
p1510
aS'2540'
p1511
aS'2547'
p1512
aS'2546'
p1513
aS'2545'
p1514
aS'2544'
p1515
aS'1274'
p1516
aS'2549'
p1517
aS'2548'
p1518
aS'1104'
p1519
aS'2381'
p1520
aS'2380'
p1521
aS'2383'
p1522
aS'2382'
p1523
aS'2385'
p1524
aS'2384'
p1525
aS'2387'
p1526
aS'2386'
p1527
aS'2389'
p1528
aS'2388'
p1529
aS'1103'
p1530
aS'2769'
p1531
aS'2768'
p1532
aS'1100'
p1533
aS'2763'
p1534
aS'2762'
p1535
aS'2761'
p1536
aS'2760'
p1537
aS'2767'
p1538
aS'2766'
p1539
aS'2765'
p1540
aS'2764'
p1541
aS'902'
p1542
aS'903'
p1543
aS'1849'
p1544
aS'1848'
p1545
aS'906'
p1546
aS'907'
p1547
aS'904'
p1548
aS'905'
p1549
aS'1843'
p1550
aS'1842'
p1551
aS'1841'
p1552
aS'1840'
p1553
aS'1847'
p1554
aS'1846'
p1555
aS'1845'
p1556
aS'1844'
p1557
aS'2169'
p1558
aS'2168'
p1559
aS'2165'
p1560
aS'2164'
p1561
aS'2167'
p1562
aS'2166'
p1563
aS'2161'
p1564
aS'2160'
p1565
aS'2163'
p1566
aS'2162'
p1567
aS'2617'
p1568
aS'2616'
p1569
aS'2615'
p1570
aS'2614'
p1571
aS'2613'
p1572
aS'2612'
p1573
aS'2611'
p1574
aS'2610'
p1575
aS'2619'
p1576
aS'2618'
p1577
aS'1908'
p1578
aS'1909'
p1579
aS'1906'
p1580
aS'1907'
p1581
aS'1904'
p1582
aS'1905'
p1583
aS'1902'
p1584
aS'1903'
p1585
aS'1900'
p1586
aS'1901'
p1587
aS'854'
p1588
aS'855'
p1589
aS'856'
p1590
aS'857'
p1591
aS'850'
p1592
aS'851'
p1593
aS'852'
p1594
aS'819'
p1595
aS'858'
p1596
aS'859'
p1597
aS'6'
aS'740'
p1598
aS'741'
p1599
aS'742'
p1600
aS'743'
p1601
aS'744'
p1602
aS'745'
p1603
aS'746'
p1604
aS'747'
p1605
aS'748'
p1606
aS'749'
p1607
aS'2912'
p1608
aS'1798'
p1609
aS'2949'
p1610
aS'2948'
p1611
aS'2947'
p1612
aS'2946'
p1613
aS'2945'
p1614
aS'2944'
p1615
aS'2943'
p1616
aS'2942'
p1617
aS'2941'
p1618
aS'2940'
p1619
aS'1050'
p1620
aS'1051'
p1621
aS'1052'
p1622
aS'1053'
p1623
aS'1054'
p1624
aS'1055'
p1625
aS'1056'
p1626
aS'1057'
p1627
aS'1058'
p1628
aS'1059'
p1629
aS'2917'
p1630
aS'1696'
p1631
aS'1697'
p1632
aS'1694'
p1633
aS'1695'
p1634
aS'1692'
p1635
aS'1693'
p1636
aS'1690'
p1637
aS'1691'
p1638
aS'715'
p1639
aS'1698'
p1640
aS'1699'
p1641
aS'1278'
p1642
aS'1279'
p1643
aS'618'
p1644
aS'619'
p1645
aS'612'
p1646
aS'613'
p1647
aS'1272'
p1648
aS'611'
p1649
aS'616'
p1650
aS'1275'
p1651
aS'1276'
p1652
aS'1277'
p1653
aS'1795'
p1654
aS'1794'
p1655
aS'1472'
p1656
aS'1473'
p1657
aS'1470'
p1658
aS'1471'
p1659
aS'1476'
p1660
aS'1477'
p1661
aS'1474'
p1662
aS'1475'
p1663
aS'1478'
p1664
aS'1479'
p1665
aS'1304'
p1666
aS'1305'
p1667
aS'1306'
p1668
aS'1307'
p1669
aS'1300'
p1670
aS'1301'
p1671
aS'1302'
p1672
aS'1303'
p1673
aS'1308'
p1674
aS'1309'
p1675
aS'498'
p1676
aS'499'
p1677
aS'494'
p1678
aS'495'
p1679
aS'496'
p1680
aS'497'
p1681
aS'490'
p1682
aS'491'
p1683
aS'492'
p1684
aS'493'
p1685
aS'24'
p1686
aS'25'
p1687
aS'26'
p1688
aS'27'
p1689
aS'20'
p1690
aS'21'
p1691
aS'22'
p1692
aS'23'
p1693
aS'927'
p1694
aS'28'
p1695
aS'29'
p1696
aS'1241'
p1697
aS'1703'
p1698
aS'1516'
p1699
aS'1709'
p1700
aS'7'
aS'2288'
p1701
aS'2289'
p1702
aS'2280'
p1703
aS'2281'
p1704
aS'2282'
p1705
aS'2283'
p1706
aS'2284'
p1707
aS'2285'
p1708
aS'2286'
p1709
aS'2287'
p1710
aS'446'
p1711
aS'2578'
p1712
aS'2579'
p1713
aS'2576'
p1714
aS'2577'
p1715
aS'2574'
p1716
aS'2575'
p1717
aS'2572'
p1718
aS'2573'
p1719
aS'2570'
p1720
aS'2571'
p1721
aS'2378'
p1722
aS'2379'
p1723
aS'2374'
p1724
aS'2375'
p1725
aS'2376'
p1726
aS'2377'
p1727
aS'2370'
p1728
aS'2371'
p1729
aS'2372'
p1730
aS'2373'
p1731
aS'2594'
p1732
aS'2595'
p1733
aS'2596'
p1734
aS'2597'
p1735
aS'2590'
p1736
aS'2591'
p1737
aS'2592'
p1738
aS'2593'
p1739
aS'2598'
p1740
aS'2599'
p1741
aS'1876'
p1742
aS'1877'
p1743
aS'1874'
p1744
aS'1875'
p1745
aS'1872'
p1746
aS'1873'
p1747
aS'1870'
p1748
aS'1871'
p1749
aS'1083'
p1750
aS'1878'
p1751
aS'1879'
p1752
aS'977'
p1753
aS'976'
p1754
aS'975'
p1755
aS'974'
p1756
aS'973'
p1757
aS'972'
p1758
aS'971'
p1759
aS'970'
p1760
aS'1080'
p1761
aS'979'
p1762
aS'978'
p1763
aS'2118'
p1764
aS'183'
p1765
aS'180'
p1766
aS'181'
p1767
aS'186'
p1768
aS'187'
p1769
aS'184'
p1770
aS'185'
p1771
aS'2110'
p1772
aS'2111'
p1773
aS'2112'
p1774
aS'2113'
p1775
aS'2114'
p1776
aS'2115'
p1777
aS'2116'
p1778
aS'2117'
p1779
aS'2622'
p1780
aS'2623'
p1781
aS'2620'
p1782
aS'2621'
p1783
aS'2626'
p1784
aS'2627'
p1785
aS'2624'
p1786
aS'2625'
p1787
aS'2628'
p1788
aS'2629'
p1789
aS'1919'
p1790
aS'1918'
p1791
aS'1911'
p1792
aS'1910'
p1793
aS'1913'
p1794
aS'1912'
p1795
aS'1915'
p1796
aS'188'
p1797
aS'1917'
p1798
aS'1916'
p1799
aS'869'
p1800
aS'868'
p1801
aS'189'
p1802
aS'861'
p1803
aS'860'
p1804
aS'863'
p1805
aS'862'
p1806
aS'865'
p1807
aS'864'
p1808
aS'867'
p1809
aS'866'
p1810
aS'2024'
p1811
aS'2025'
p1812
aS'2754'
p1813
aS'2027'
p1814
aS'2020'
p1815
aS'2021'
p1816
aS'2022'
p1817
aS'2023'
p1818
aS'2028'
p1819
aS'2029'
p1820
aS'2758'
p1821
aS'2759'
p1822
aS'883'
p1823
aS'882'
p1824
aS'881'
p1825
aS'880'
p1826
aS'887'
p1827
aS'886'
p1828
aS'885'
p1829
aS'884'
p1830
aS'889'
p1831
aS'888'
p1832
aS'657'
p1833
aS'775'
p1834
aS'774'
p1835
aS'777'
p1836
aS'776'
p1837
aS'771'
p1838
aS'770'
p1839
aS'773'
p1840
aS'772'
p1841
aS'779'
p1842
aS'778'
p1843
aS'419'
p1844
aS'77'
p1845
aS'76'
p1846
aS'75'
p1847
aS'74'
p1848
aS'73'
p1849
aS'72'
p1850
aS'71'
p1851
aS'70'
p1852
aS'2972'
p1853
aS'2973'
p1854
aS'2970'
p1855
aS'2971'
p1856
aS'2976'
p1857
aS'2977'
p1858
aS'79'
p1859
aS'78'
p1860
aS'1043'
p1861
aS'1042'
p1862
aS'1041'
p1863
aS'1040'
p1864
aS'1047'
p1865
aS'1046'
p1866
aS'1045'
p1867
aS'1044'
p1868
aS'1049'
p1869
aS'1048'
p1870
aS'1681'
p1871
aS'1680'
p1872
aS'1683'
p1873
aS'1682'
p1874
aS'1685'
p1875
aS'1684'
p1876
aS'1687'
p1877
aS'1686'
p1878
aS'1689'
p1879
aS'1688'
p1880
aS'1269'
p1881
aS'1268'
p1882
aS'669'
p1883
aS'668'
p1884
aS'667'
p1885
aS'666'
p1886
aS'665'
p1887
aS'664'
p1888
aS'663'
p1889
aS'662'
p1890
aS'661'
p1891
aS'660'
p1892
aS'1914'
p1893
aS'421'
p1894
aS'1469'
p1895
aS'1468'
p1896
aS'1465'
p1897
aS'1464'
p1898
aS'1467'
p1899
aS'1466'
p1900
aS'1461'
p1901
aS'1460'
p1902
aS'1463'
p1903
aS'1019'
p1904
aS'1317'
p1905
aS'1316'
p1906
aS'1315'
p1907
aS'1314'
p1908
aS'1313'
p1909
aS'1312'
p1910
aS'1311'
p1911
aS'1310'
p1912
aS'1319'
p1913
aS'1318'
p1914
aS'2060'
p1915
aS'2460'
p1916
aS'1010'
p1917
aS'1011'
p1918
aS'319'
p1919
aS'318'
p1920
aS'313'
p1921
aS'312'
p1922
aS'311'
p1923
aS'310'
p1924
aS'317'
p1925
aS'316'
p1926
aS'315'
p1927
aS'314'
p1928
aS'2756'
p1929
aS'2757'
p1930
aS'2026'
p1931
aS'1335'
p1932
aS'2755'
p1933
aS'442'
p1934
aS'2752'
p1935
aS'441'
p1936
aS'2753'
p1937
aS'1336'
p1938
aS'2750'
p1939
aS'447'
p1940
aS'2751'
p1941
aS'1330'
p1942
aS'1333'
p1943
aS'444'
p1944
aS'630'
p1945
aS'2461'
p1946
aS'2299'
p1947
aS'2298'
p1948
aS'2293'
p1949
aS'2292'
p1950
aS'2291'
p1951
aS'2290'
p1952
aS'2297'
p1953
aS'2296'
p1954
aS'2295'
p1955
aS'2294'
p1956
aS'2569'
p1957
aS'2568'
p1958
aS'2561'
p1959
aS'2560'
p1960
aS'2563'
p1961
aS'2562'
p1962
aS'632'
p1963
aS'2564'
p1964
aS'2567'
p1965
aS'2566'
p1966
aS'908'
p1967
aS'2369'
p1968
aS'2368'
p1969
aS'2367'
p1970
aS'2366'
p1971
aS'2365'
p1972
aS'2364'
p1973
aS'2363'
p1974
aS'2362'
p1975
aS'2361'
p1976
aS'2360'
p1977
aS'2587'
p1978
aS'2586'
p1979
aS'2585'
p1980
aS'2584'
p1981
aS'2583'
p1982
aS'2582'
p1983
aS'2581'
p1984
aS'2580'
p1985
aS'402'
p1986
aS'2589'
p1987
aS'2588'
p1988
aS'1861'
p1989
aS'1860'
p1990
aS'1863'
p1991
aS'1862'
p1992
aS'1865'
p1993
aS'1864'
p1994
aS'1867'
p1995
aS'1866'
p1996
aS'1869'
p1997
aS'1868'
p1998
aS'964'
p1999
aS'965'
p2000
aS'966'
p2001
aS'967'
p2002
aS'960'
p2003
aS'961'
p2004
aS'962'
p2005
aS'963'
p2006
aS'401'
p2007
aS'968'
p2008
aS'969'
p2009
aS'2109'
p2010
aS'2108'
p2011
aS'2103'
p2012
aS'2102'
p2013
aS'2101'
p2014
aS'2100'
p2015
aS'2107'
p2016
aS'2106'
p2017
aS'2105'
p2018
aS'2104'
p2019
aS'2639'
p2020
aS'2638'
p2021
aS'2635'
p2022
aS'2634'
p2023
aS'2637'
p2024
aS'2636'
p2025
aS'2631'
p2026
aS'2630'
p2027
aS'2633'
p2028
aS'2632'
p2029
aS'1560'
p2030
aS'1537'
p2031
aS'878'
p2032
aS'879'
p2033
aS'876'
p2034
aS'877'
p2035
aS'874'
p2036
aS'875'
p2037
aS'872'
p2038
aS'1535'
p2039
aS'870'
p2040
aS'871'
p2041
aS'2037'
p2042
aS'2036'
p2043
aS'2035'
p2044
aS'2742'
p2045
aS'2745'
p2046
aS'2744'
p2047
aS'2031'
p2048
aS'2030'
p2049
aS'9'
aS'2748'
p2050
aS'2039'
p2051
aS'2038'
p2052
aS'890'
p2053
aS'891'
p2054
aS'892'
p2055
aS'893'
p2056
aS'894'
p2057
aS'895'
p2058
aS'896'
p2059
aS'897'
p2060
aS'898'
p2061
aS'899'
p2062
aS'1246'
p2063
aS'649'
p2064
aS'1247'
p2065
aS'648'
p2066
aS'1714'
p2067
aS'1964'
p2068
aS'1965'
p2069
aS'1966'
p2070
aS'2965'
p2071
aS'2964'
p2072
aS'768'
p2073
aS'2966'
p2074
aS'2961'
p2075
aS'2960'
p2076
aS'2963'
p2077
aS'2962'
p2078
aS'1780'
p2079
aS'1612'
p2080
aS'1782'
p2081
aS'1783'
p2082
aS'2969'
p2083
aS'2968'
p2084
aS'1786'
p2085
aS'1787'
p2086
aS'1962'
p2087
aS'1963'
p2088
aS'707'
p2089
aS'1078'
p2090
aS'1079'
p2091
aS'1076'
p2092
aS'1077'
p2093
aS'1074'
p2094
aS'1075'
p2095
aS'1072'
p2096
aS'1073'
p2097
aS'1070'
p2098
aS'1071'
p2099
aS'1678'
p2100
aS'1679'
p2101
aS'1674'
p2102
aS'1675'
p2103
aS'1676'
p2104
aS'1677'
p2105
aS'1670'
p2106
aS'1671'
p2107
aS'1672'
p2108
aS'1673'
p2109
aS'1094'
p2110
aS'1095'
p2111
aS'1096'
p2112
aS'1097'
p2113
aS'678'
p2114
aS'679'
p2115
aS'1092'
p2116
aS'1093'
p2117
aS'674'
p2118
aS'675'
p2119
aS'676'
p2120
aS'677'
p2121
aS'670'
p2122
aS'671'
p2123
aS'672'
p2124
aS'673'
p2125
aS'1997'
p2126
aS'1533'
p2127
aS'1418'
p2128
aS'1419'
p2129
aS'1410'
p2130
aS'1411'
p2131
aS'1412'
p2132
aS'1413'
p2133
aS'1414'
p2134
aS'1415'
p2135
aS'1416'
p2136
aS'1417'
p2137
aS'1322'
p2138
aS'1323'
p2139
aS'1320'
p2140
aS'1321'
p2141
aS'1326'
p2142
aS'1327'
p2143
aS'1324'
p2144
aS'1325'
p2145
aS'1328'
p2146
aS'1329'
p2147
aS'2494'
p2148
aS'1531'
p2149
aS'1524'
p2150
aS'1525'
p2151
aS'1254'
p2152
aS'1527'
p2153
aS'1520'
p2154
aS'1521'
p2155
aS'1522'
p2156
aS'1251'
p2157
aS'1528'
p2158
aS'1529'
p2159
aS'1258'
p2160
aS'1259'
p2161
aS'308'
p2162
aS'309'
p2163
aS'300'
p2164
aS'301'
p2165
aS'302'
p2166
aS'303'
p2167
aS'304'
p2168
aS'305'
p2169
aS'306'
p2170
aS'307'
p2171
aS'1792'
p2172
aS'2978'
p2173
aS'2979'
p2174
aS'1655'
p2175
aS'2475'
p2176
aS'2474'
p2177
aS'1447'
p2178
aS'1105'
p2179
aS'732'
p2180
aS'2974'
p2181
aS'2975'
p2182
aS'1446'
p2183
aS'2773'
p2184
aS'2479'
p2185
aS'2478'
p2186
aS'470'
p2187
aS'2990'
p2188
aS'2358'
p2189
aS'2359'
p2190
aS'2352'
p2191
aS'2353'
p2192
aS'2350'
p2193
aS'2351'
p2194
aS'2356'
p2195
aS'2357'
p2196
aS'2354'
p2197
aS'2355'
p2198
aS'2991'
p2199
aS'1898'
p2200
aS'1899'
p2201
aS'1894'
p2202
aS'1895'
p2203
aS'1896'
p2204
aS'1897'
p2205
aS'1890'
p2206
aS'1891'
p2207
aS'1892'
p2208
aS'1893'
p2209
aS'2136'
p2210
aS'2137'
p2211
aS'2134'
p2212
aS'2135'
p2213
aS'2132'
p2214
aS'2133'
p2215
aS'2130'
p2216
aS'2131'
p2217
aS'951'
p2218
aS'950'
p2219
aS'953'
p2220
aS'952'
p2221
aS'955'
p2222
aS'954'
p2223
aS'2138'
p2224
aS'2139'
p2225
aS'477'
p2226
aS'2648'
p2227
aS'2649'
p2228
aS'2993'
p2229
aS'2640'
p2230
aS'2641'
p2231
aS'2642'
p2232
aS'2643'
p2233
aS'2644'
p2234
aS'2645'
p2235
aS'2646'
p2236
aS'2647'
p2237
aS'2002'
p2238
aS'2003'
p2239
aS'2000'
p2240
aS'2001'
p2241
aS'2006'
p2242
aS'2007'
p2243
aS'2004'
p2244
aS'2005'
p2245
aS'2008'
p2246
aS'2009'
p2247
aS'2034'
p2248
aS'1263'
p2249
aS'1262'
p2250
aS'2176'
p2251
aS'1261'
p2252
aS'2177'
p2253
aS'2910'
p2254
aS'2911'
p2255
aS'1799'
p2256
aS'2913'
p2257
aS'2914'
p2258
aS'2915'
p2259
aS'719'
p2260
aS'718'
p2261
aS'717'
p2262
aS'1267'
p2263
aS'1791'
p2264
aS'1790'
p2265
aS'713'
p2266
aS'712'
p2267
aS'711'
p2268
aS'710'
p2269
aS'1265'
p2270
aS'716'
p2271
aS'1264'
p2272
aS'917'
p2273
aS'1069'
p2274
aS'1068'
p2275
aS'916'
p2276
aS'1061'
p2277
aS'1060'
p2278
aS'1063'
p2279
aS'1062'
p2280
aS'1065'
p2281
aS'1064'
p2282
aS'1067'
p2283
aS'1066'
p2284
aS'1669'
p2285
aS'1668'
p2286
aS'1667'
p2287
aS'1666'
p2288
aS'1665'
p2289
aS'1664'
p2290
aS'1663'
p2291
aS'1662'
p2292
aS'1661'
p2293
aS'1660'
p2294
aS'1087'
p2295
aS'590'
p2296
aS'593'
p2297
aS'592'
p2298
aS'595'
p2299
aS'594'
p2300
aS'597'
p2301
aS'596'
p2302
aS'599'
p2303
aS'598'
p2304
aS'1089'
p2305
aS'1088'
p2306
aS'714'
p2307
aS'2828'
p2308
aS'2829'
p2309
aS'1526'
p2310
aS'2824'
p2311
aS'2825'
p2312
aS'2826'
p2313
aS'2827'
p2314
aS'2820'
p2315
aS'2821'
p2316
aS'2822'
p2317
aS'2823'
p2318
aS'1409'
p2319
aS'1408'
p2320
aS'1403'
p2321
aS'1402'
p2322
aS'1401'
p2323
aS'1400'
p2324
aS'1407'
p2325
aS'1406'
p2326
aS'1405'
p2327
aS'1404'
p2328
aS'692'
p2329
aS'449'
p2330
aS'448'
p2331
aS'1339'
p2332
aS'1338'
p2333
aS'693'
p2334
aS'443'
p2335
aS'1334'
p2336
aS'1337'
p2337
aS'440'
p2338
aS'1331'
p2339
aS'690'
p2340
aS'445'
p2341
aS'1332'
p2342
aS'691'
p2343
aS'696'
p2344
aS'697'
p2345
aS'39'
p2346
aS'38'
p2347
aS'694'
p2348
aS'33'
p2349
aS'32'
p2350
aS'31'
p2351
aS'30'
p2352
aS'37'
p2353
aS'36'
p2354
aS'35'
p2355
aS'34'
p2356
aS'641'
p2357
aS'1240'
p2358
aS'643'
p2359
aS'1534'
p2360
aS'645'
p2361
aS'1532'
p2362
aS'647'
p2363
aS'1530'
p2364
aS'1249'
p2365
aS'1248'
p2366
aS'1539'
p2367
aS'1538'
p2368
aS'1493'
p2369
aS'339'
p2370
aS'338'
p2371
aS'335'
p2372
aS'334'
p2373
aS'337'
p2374
aS'336'
p2375
aS'331'
p2376
aS'330'
p2377
aS'333'
p2378
aS'332'
p2379
aS'543'
p2380
aS'1523'
p2381
aS'1085'
p2382
aS'8'
aS'2119'
p2383
aS'2542'
p2384
aS'1462'
p2385
aS'1352'
p2386
aS'1101'
p2387
aS'152'
p2388
aS'1991'
p2389
aS'2345'
p2390
aS'2344'
p2391
aS'2347'
p2392
aS'2346'
p2393
aS'2341'
p2394
aS'2340'
p2395
aS'2343'
p2396
aS'2342'
p2397
aS'2349'
p2398
aS'2348'
p2399
aS'1889'
p2400
aS'1888'
p2401
aS'1887'
p2402
aS'1886'
p2403
aS'1885'
p2404
aS'1884'
p2405
aS'1883'
p2406
aS'1882'
p2407
aS'1881'
p2408
aS'1880'
p2409
aS'2121'
p2410
aS'2120'
p2411
aS'2123'
p2412
aS'2122'
p2413
aS'2125'
p2414
aS'2124'
p2415
aS'948'
p2416
aS'2126'
p2417
aS'2129'
p2418
aS'2128'
p2419
aS'944'
p2420
aS'945'
p2421
aS'942'
p2422
aS'943'
p2423
aS'940'
p2424
aS'941'
p2425
aS'1594'
p2426
aS'2659'
p2427
aS'2658'
p2428
aS'642'
p2429
aS'2653'
p2430
aS'2652'
p2431
aS'2651'
p2432
aS'2650'
p2433
aS'2657'
p2434
aS'2656'
p2435
aS'2655'
p2436
aS'2654'
p2437
aS'133'
p2438
aS'132'
p2439
aS'131'
p2440
aS'130'
p2441
aS'137'
p2442
aS'136'
p2443
aS'135'
p2444
aS'134'
p2445
aS'139'
p2446
aS'138'
p2447
aS'2019'
p2448
aS'2018'
p2449
aS'2920'
p2450
aS'2015'
p2451
aS'2014'
p2452
aS'2017'
p2453
aS'2016'
p2454
aS'2011'
p2455
aS'2010'
p2456
aS'2013'
p2457
aS'182'
p2458
aS'2847'
p2459
aS'158'
p2460
aS'1793'
p2461
aS'3000'
p2462
aS'2903'
p2463
aS'2902'
p2464
aS'2901'
p2465
aS'2900'
p2466
aS'708'
p2467
aS'709'
p2468
aS'2905'
p2469
aS'2904'
p2470
aS'704'
p2471
aS'705'
p2472
aS'706'
p2473
aS'2908'
p2474
aS'700'
p2475
aS'701'
p2476
aS'702'
p2477
aS'703'
p2478
aS'88'
p2479
aS'89'
p2480
aS'82'
p2481
aS'83'
p2482
aS'80'
p2483
aS'81'
p2484
aS'86'
p2485
aS'87'
p2486
aS'84'
p2487
aS'85'
p2488
aS'1658'
p2489
aS'1659'
p2490
aS'2487'
p2491
aS'1652'
p2492
aS'410'
p2493
aS'1650'
p2494
aS'1651'
p2495
aS'1656'
p2496
aS'1657'
p2497
aS'1654'
p2498
aS'411'
p2499
aS'586'
p2500
aS'587'
p2501
aS'584'
p2502
aS'585'
p2503
aS'763'
p2504
aS'583'
p2505
aS'580'
p2506
aS'581'
p2507
aS'1984'
p2508
aS'588'
p2509
aS'589'
p2510
aS'1985'
p2511
aS'2839'
p2512
aS'2838'
p2513
aS'2837'
p2514
aS'2836'
p2515
aS'2835'
p2516
aS'2834'
p2517
aS'2833'
p2518
aS'2832'
p2519
aS'2831'
p2520
aS'2830'
p2521
aS'1436'
p2522
aS'1437'
p2523
aS'1434'
p2524
aS'1435'
p2525
aS'1432'
p2526
aS'1433'
p2527
aS'1430'
p2528
aS'1431'
p2529
aS'418'
p2530
aS'1981'
p2531
aS'1438'
p2532
aS'1439'
p2533
aS'1260'
p2534
aS'1541'
p2535
aS'458'
p2536
aS'1349'
p2537
aS'450'
p2538
aS'451'
p2539
aS'1342'
p2540
aS'453'
p2541
aS'454'
p2542
aS'455'
p2543
aS'456'
p2544
aS'1347'
p2545
aS'1082'
p2546
aS'766'
p2547
aS'517'
p2548
aS'1266'
p2549
aS'656'
p2550
aS'1503'
p2551
aS'654'
p2552
aS'655'
p2553
aS'1506'
p2554
aS'1507'
p2555
aS'1504'
p2556
aS'1505'
p2557
aS'1508'
p2558
aS'1509'
p2559
aS'767'
p2560
aS'658'
p2561
aS'516'
p2562
aS'2127'
p2563
aS'1598'
p2564
aS'949'
p2565
aS'946'
p2566
aS'947'
p2567
aS'631'
p2568
aS'2815'
p2569
aS'2814'
p2570
aS'1081'
p2571
aS'322'
p2572
aS'323'
p2573
aS'320'
p2574
aS'321'
p2575
aS'326'
p2576
aS'327'
p2577
aS'324'
p2578
aS'325'
p2579
aS'328'
p2580
aS'329'
p2581
aS'2819'
p2582
aS'1340'
p2583
aS'565'
p2584
aS'2330'
p2585
aS'2331'
p2586
aS'2332'
p2587
aS'2333'
p2588
aS'2334'
p2589
aS'2335'
p2590
aS'2336'
p2591
aS'2337'
p2592
aS'2338'
p2593
aS'2339'
p2594
aS'1341'
p2595
aS'1995'
p2596
aS'2958'
p2597
aS'2959'
p2598
aS'2488'
p2599
aS'2489'
p2600
aS'2486'
p2601
aS'2950'
p2602
aS'2484'
p2603
aS'2485'
p2604
aS'2482'
p2605
aS'2483'
p2606
aS'2480'
p2607
aS'2481'
p2608
aS'2248'
p2609
aS'2249'
p2610
aS'2244'
p2611
aS'2245'
p2612
aS'2246'
p2613
aS'2247'
p2614
aS'2240'
p2615
aS'2241'
p2616
aS'2242'
p2617
aS'2243'
p2618
aS'2464'
p2619
aS'2465'
p2620
aS'2466'
p2621
aS'2467'
p2622
aS'991'
p2623
aS'990'
p2624
aS'2462'
p2625
aS'2463'
p2626
aS'2468'
p2627
aS'2469'
p2628
aS'120'
p2629
aS'121'
p2630
aS'122'
p2631
aS'123'
p2632
aS'124'
p2633
aS'125'
p2634
aS'126'
p2635
aS'127'
p2636
aS'128'
p2637
aS'129'
p2638
aS'520'
p2639
aS'1295'
p2640
aS'2068'
p2641
aS'2069'
p2642
aS'2798'
p2643
aS'2799'
p2644
aS'2792'
p2645
aS'2061'
p2646
aS'2062'
p2647
aS'2063'
p2648
aS'2064'
p2649
aS'2065'
p2650
aS'2066'
p2651
aS'2067'
p2652
aS'1086'
p2653
aS'2666'
p2654
aS'2667'
p2655
aS'2664'
p2656
aS'2665'
p2657
aS'2662'
p2658
aS'2663'
p2659
aS'2660'
p2660
aS'2661'
p2661
aS'722'
p2662
aS'2668'
p2663
aS'2669'
p2664
aS'2938'
p2665
aS'2939'
p2666
aS'2936'
p2667
aS'2937'
p2668
aS'2934'
p2669
aS'2935'
p2670
aS'2932'
p2671
aS'2933'
p2672
aS'2930'
p2673
aS'2931'
p2674
aS'1645'
p2675
aS'1644'
p2676
aS'1647'
p2677
aS'1646'
p2678
aS'1641'
p2679
aS'1640'
p2680
aS'1643'
p2681
aS'1642'
p2682
aS'1396'
p2683
aS'1649'
p2684
aS'1648'
p2685
aS'1742'
p2686
aS'729'
p2687
aS'1252'
p2688
aS'2012'
p2689
aS'579'
p2690
aS'578'
p2691
aS'573'
p2692
aS'572'
p2693
aS'571'
p2694
aS'570'
p2695
aS'577'
p2696
aS'576'
p2697
aS'575'
p2698
aS'574'
p2699
aS'2808'
p2700
aS'2809'
p2701
aS'2802'
p2702
aS'2803'
p2703
aS'2800'
p2704
aS'2801'
p2705
aS'2806'
p2706
aS'2807'
p2707
aS'2804'
p2708
aS'600'
p2709
aS'1421'
p2710
aS'1420'
p2711
aS'1423'
p2712
aS'1422'
p2713
aS'1425'
p2714
aS'1424'
p2715
aS'1427'
p2716
aS'2407'
p2717
aS'1429'
p2718
aS'1428'
p2719
aS'2156'
p2720
aS'731'
p2721
aS'730'
p2722
aS'733'
p2723
aS'2157'
p2724
aS'735'
p2725
aS'734'
p2726
aS'737'
p2727
aS'736'
p2728
aS'739'
p2729
aS'2402'
p2730
aS'1084'
p2731
aS'2151'
p2732
aS'1359'
p2733
aS'1358'
p2734
aS'469'
p2735
aS'2152'
p2736
aS'1353'
p2737
aS'464'
p2738
aS'1351'
p2739
aS'2401'
p2740
aS'1357'
p2741
aS'460'
p2742
aS'463'
p2743
aS'462'
p2744
aS'2225'
p2745
aS'1273'
p2746
aS'937'
p2747
aS'2159'
p2748
aS'1519'
p2749
aS'1518'
p2750
aS'1515'
p2751
aS'1514'
p2752
aS'1517'
p2753
aS'2409'
p2754
aS'1511'
p2755
aS'1510'
p2756
aS'1513'
p2757
aS'1512'
p2758
aS'280'
p2759
aS'723'
p2760
aS'582'
p2761
aS'617'
p2762
aS'357'
p2763
aS'356'
p2764
aS'355'
p2765
aS'354'
p2766
aS'353'
p2767
aS'352'
p2768
aS'351'
p2769
aS'350'
p2770
aS'359'
p2771
aS'358'
p2772
aS'1033'
p2773
aS'2323'
p2774
aS'2322'
p2775
aS'2321'
p2776
aS'2320'
p2777
aS'2327'
p2778
aS'2326'
p2779
aS'2325'
p2780
aS'2324'
p2781
aS'2329'
p2782
aS'2328'
p2783
aS'1113'
p2784
aS'484'
p2785
aS'289'
p2786
aS'288'
p2787
aS'1112'
p2788
aS'281'
p2789
aS'5'
aS'283'
p2790
aS'282'
p2791
aS'285'
p2792
aS'284'
p2793
aS'287'
p2794
aS'1442'
p2795
aS'1441'
p2796
aS'1440'
p2797
aS'263'
p2798
aS'262'
p2799
aS'261'
p2800
aS'260'
p2801
aS'267'
p2802
aS'266'
p2803
aS'265'
p2804
aS'264'
p2805
aS'1031'
p2806
aS'269'
p2807
aS'268'
p2808
aS'1290'
p2809
aS'2499'
p2810
aS'2498'
p2811
aS'1291'
p2812
aS'2491'
p2813
aS'2490'
p2814
aS'2493'
p2815
aS'2492'
p2816
aS'2495'
p2817
aS'258'
p2818
aS'2497'
p2819
aS'2496'
p2820
aS'2193'
p2821
aS'1566'
p2822
aS'2259'
p2823
aS'2258'
p2824
aS'2257'
p2825
aS'2256'
p2826
aS'2255'
p2827
aS'2254'
p2828
aS'2253'
p2829
aS'2252'
p2830
aS'2251'
p2831
aS'2250'
p2832
aS'2477'
p2833
aS'2476'
p2834
aS'988'
p2835
aS'989'
p2836
aS'2473'
p2837
aS'2472'
p2838
aS'2471'
p2839
aS'2470'
p2840
aS'982'
p2841
aS'983'
p2842
aS'980'
p2843
aS'981'
p2844
aS'986'
p2845
aS'987'
p2846
aS'984'
p2847
aS'985'
p2848
aS'115'
p2849
aS'114'
p2850
aS'117'
p2851
aS'116'
p2852
aS'111'
p2853
aS'110'
p2854
aS'113'
p2855
aS'112'
p2856
aS'119'
p2857
aS'118'
p2858
aS'2785'
p2859
aS'2784'
p2860
aS'2787'
p2861
aS'2786'
p2862
aS'2781'
p2863
aS'2780'
p2864
aS'2783'
p2865
aS'2782'
p2866
aS'2789'
p2867
aS'2788'
p2868
aS'1797'
p2869
aS'2079'
p2870
aS'2078'
p2871
aS'2073'
p2872
aS'2072'
p2873
aS'2071'
p2874
aS'2070'
p2875
aS'2077'
p2876
aS'2076'
p2877
aS'2075'
p2878
aS'2074'
p2879
aS'1796'
p2880
aS'2671'
p2881
aS'2670'
p2882
aS'2673'
p2883
aS'2672'
p2884
aS'2675'
p2885
aS'2674'
p2886
aS'2677'
p2887
aS'2676'
p2888
aS'2679'
p2889
aS'2678'
p2890
aS'1209'
p2891
aS'2929'
p2892
aS'2928'
p2893
aS'2921'
p2894
aS'2565'
p2895
aS'2923'
p2896
aS'2922'
p2897
aS'2925'
p2898
aS'2924'
p2899
aS'2927'
p2900
aS'2926'
p2901
aS'2907'
p2902
aS'2906'
p2903
aS'1630'
p2904
aS'1631'
p2905
aS'1632'
p2906
aS'1633'
p2907
aS'1634'
p2908
aS'1635'
p2909
aS'1636'
p2910
aS'1637'
p2911
aS'1638'
p2912
aS'1639'
p2913
aS'1988'
p2914
aS'1989'
p2915
aS'1781'
p2916
aS'2909'
p2917
aS'568'
p2918
aS'569'
p2919
aS'2817'
p2920
aS'2816'
p2921
aS'2811'
p2922
aS'2810'
p2923
aS'2813'
p2924
aS'2812'
p2925
aS'560'
p2926
aS'561'
p2927
aS'562'
p2928
aS'563'
p2929
aS'564'
p2930
aS'2818'
p2931
aS'566'
p2932
aS'567'
p2933
aS'659'
p2934
aS'1188'
p2935
aS'1189'
p2936
aS'1186'
p2937
aS'1187'
p2938
aS'1184'
p2939
aS'1185'
p2940
aS'1182'
p2941
aS'1183'
p2942
aS'1180'
p2943
aS'1181'
p2944
aS'726'
p2945
aS'727'
p2946
aS'724'
p2947
aS'725'
p2948
aS'1748'
p2949
aS'1749'
p2950
aS'720'
p2951
aS'721'
p2952
aS'1744'
p2953
aS'1745'
p2954
aS'1746'
p2955
aS'1747'
p2956
aS'1740'
p2957
aS'1741'
p2958
aS'728'
p2959
aS'1743'
p2960
aS'1164'
p2961
aS'1165'
p2962
aS'1166'
p2963
aS'1167'
p2964
aS'1160'
p2965
aS'1161'
p2966
aS'640'
p2967
aS'1163'
p2968
aS'1168'
p2969
aS'1169'
p2970
aS'472'
p2971
aS'48'
p2972
aS'49'
p2973
aS'46'
p2974
aS'47'
p2975
aS'44'
p2976
aS'45'
p2977
aS'42'
p2978
aS'43'
p2979
aS'40'
p2980
aS'41'
p2981
aS'1568'
p2982
aS'1569'
p2983
aS'1298'
p2984
aS'1299'
p2985
aS'1788'
p2986
aS'1292'
p2987
aS'1293'
p2988
aS'1562'
p2989
aS'1563'
p2990
aS'1296'
p2991
aS'1565'
p2992
aS'1294'
p2993
aS'1567'
p2994
aS'1713'
p2995
aS'474'
p2996
aS'796'
p2997
aS'591'
p2998
aS'2033'
p2999
aS'1711'
p3000
aS'1710'
p3001
aS'1789'
p3002
aS'1717'
p3003
aS'1716'
p3004
aS'1715'
p3005
aS'2032'
p3006
aS'1201'
p3007
aS'790'
p3008
aS'1366'
p3009
aS'1367'
p3010
aS'1364'
p3011
aS'1365'
p3012
aS'1362'
p3013
aS'1363'
p3014
aS'1360'
p3015
aS'1361'
p3016
aS'478'
p3017
aS'479'
p3018
aS'2916'
p3019
aS'1368'
p3020
aS'1369'
p3021
atRp3022
asS'pub_edges'
p3023
g13
sS'_Hypergraph__vertex_to_edge'
p3024
(dp3025
g29
g27
((lp3026
I0
atRp3027
sg30
g27
((lp3028
I0
atRp3029
sg31
g27
((lp3030
I0
atRp3031
sg32
g27
((lp3032
I0
atRp3033
sg33
g27
((lp3034
I0
atRp3035
sg34
g27
((lp3036
I0
atRp3037
sg35
g27
((lp3038
I0
atRp3039
sg36
g27
((lp3040
I0
atRp3041
sg37
g27
((lp3042
I0
atRp3043
sg38
g27
((lp3044
I0
atRp3045
sg39
g27
((lp3046
I0
atRp3047
sg40
g27
((lp3048
I0
atRp3049
sg41
g27
((lp3050
I0
atRp3051
sg42
g27
((lp3052
I0
atRp3053
sg43
g27
((lp3054
I0
atRp3055
sg44
g27
((lp3056
I0
atRp3057
sg45
g27
((lp3058
I0
atRp3059
sg46
g27
((lp3060
I0
atRp3061
sg47
g27
((lp3062
I0
atRp3063
sg48
g27
((lp3064
I0
atRp3065
sg49
g27
((lp3066
I0
atRp3067
sg50
g27
((lp3068
I0
atRp3069
sg51
g27
((lp3070
I0
atRp3071
sg52
g27
((lp3072
I0
atRp3073
sg53
g27
((lp3074
I0
atRp3075
sg54
g27
((lp3076
I0
atRp3077
sg55
g27
((lp3078
I0
atRp3079
sg56
g27
((lp3080
I0
atRp3081
sg57
g27
((lp3082
I0
atRp3083
sg58
g27
((lp3084
I0
atRp3085
sg59
g27
((lp3086
I0
atRp3087
sg60
g27
((lp3088
I0
atRp3089
sg61
g27
((lp3090
I0
atRp3091
sg62
g27
((lp3092
I0
atRp3093
sg63
g27
((lp3094
I0
atRp3095
sg64
g27
((lp3096
I0
atRp3097
sg65
g27
((lp3098
I0
atRp3099
sg66
g27
((lp3100
I0
atRp3101
sg67
g27
((lp3102
I0
atRp3103
sg68
g27
((lp3104
I0
atRp3105
sg69
g27
((lp3106
I0
atRp3107
sg70
g27
((lp3108
I0
atRp3109
sg71
g27
((lp3110
I0
atRp3111
sg72
g27
((lp3112
I0
atRp3113
sg73
g27
((lp3114
I0
atRp3115
sg74
g27
((lp3116
I0
atRp3117
sg75
g27
((lp3118
I0
atRp3119
sg76
g27
((lp3120
I0
atRp3121
sg77
g27
((lp3122
I0
atRp3123
sg78
g27
((lp3124
I0
atRp3125
sg79
g27
((lp3126
I0
atRp3127
sg80
g27
((lp3128
I0
atRp3129
sg81
g27
((lp3130
I0
atRp3131
sg82
g27
((lp3132
I0
atRp3133
sg83
g27
((lp3134
I0
atRp3135
sg84
g27
((lp3136
I0
atRp3137
sg85
g27
((lp3138
I0
atRp3139
sg86
g27
((lp3140
I0
atRp3141
sg87
g27
((lp3142
I0
atRp3143
sg88
g27
((lp3144
I0
atRp3145
sg89
g27
((lp3146
I0
atRp3147
sg90
g27
((lp3148
I0
atRp3149
sg91
g27
((lp3150
I0
atRp3151
sg92
g27
((lp3152
I0
atRp3153
sg93
g27
((lp3154
I0
atRp3155
sg94
g27
((lp3156
I0
atRp3157
sg95
g27
((lp3158
I0
atRp3159
sg96
g27
((lp3160
I0
atRp3161
sg97
g27
((lp3162
I0
atRp3163
sg98
g27
((lp3164
I0
atRp3165
sg99
g27
((lp3166
I0
atRp3167
sg100
g27
((lp3168
I0
atRp3169
sg101
g27
((lp3170
I0
atRp3171
sg102
g27
((lp3172
I0
atRp3173
sg103
g27
((lp3174
I0
atRp3175
sg104
g27
((lp3176
I0
atRp3177
sg105
g27
((lp3178
I0
atRp3179
sg106
g27
((lp3180
I0
atRp3181
sg107
g27
((lp3182
I0
atRp3183
sg108
g27
((lp3184
I0
atRp3185
sg109
g27
((lp3186
I0
atRp3187
sg110
g27
((lp3188
I0
atRp3189
sg111
g27
((lp3190
I0
atRp3191
sg112
g27
((lp3192
I0
atRp3193
sg113
g27
((lp3194
I0
atRp3195
sg114
g27
((lp3196
I0
atRp3197
sg115
g27
((lp3198
I0
atRp3199
sg116
g27
((lp3200
I0
atRp3201
sg117
g27
((lp3202
I0
atRp3203
sg118
g27
((lp3204
I0
atRp3205
sg119
g27
((lp3206
I0
atRp3207
sg120
g27
((lp3208
I0
atRp3209
sg121
g27
((lp3210
I0
atRp3211
sg122
g27
((lp3212
I0
atRp3213
sg123
g27
((lp3214
I0
atRp3215
sg124
g27
((lp3216
I0
atRp3217
sg125
g27
((lp3218
I0
atRp3219
sg126
g27
((lp3220
I0
atRp3221
sg127
g27
((lp3222
I0
atRp3223
sg128
g27
((lp3224
I0
atRp3225
sg129
g27
((lp3226
I0
atRp3227
sg130
g27
((lp3228
I0
atRp3229
sg131
g27
((lp3230
I0
atRp3231
sg132
g27
((lp3232
I0
atRp3233
sg133
g27
((lp3234
I0
atRp3235
sg134
g27
((lp3236
I0
atRp3237
sg135
g27
((lp3238
I0
atRp3239
sg136
g27
((lp3240
I0
atRp3241
sg137
g27
((lp3242
I0
atRp3243
sg138
g27
((lp3244
I0
atRp3245
sg139
g27
((lp3246
I0
atRp3247
sg140
g27
((lp3248
I0
atRp3249
sg141
g27
((lp3250
I0
atRp3251
sg142
g27
((lp3252
I0
atRp3253
sg143
g27
((lp3254
I0
atRp3255
sg144
g27
((lp3256
I0
atRp3257
sg145
g27
((lp3258
I0
atRp3259
sg146
g27
((lp3260
I0
atRp3261
sg147
g27
((lp3262
I0
atRp3263
sg148
g27
((lp3264
I0
atRp3265
sg149
g27
((lp3266
I0
atRp3267
sg150
g27
((lp3268
I0
atRp3269
sg151
g27
((lp3270
I0
atRp3271
sg152
g27
((lp3272
I0
atRp3273
sg153
g27
((lp3274
I0
atRp3275
sg154
g27
((lp3276
I0
atRp3277
sg155
g27
((lp3278
I0
atRp3279
sg156
g27
((lp3280
I0
atRp3281
sg157
g27
((lp3282
I0
atRp3283
sg158
g27
((lp3284
I0
atRp3285
sg159
g27
((lp3286
I0
atRp3287
sg160
g27
((lp3288
I0
atRp3289
sg161
g27
((lp3290
I0
atRp3291
sg162
g27
((lp3292
I0
atRp3293
sg163
g27
((lp3294
I0
atRp3295
sg164
g27
((lp3296
I0
atRp3297
sg165
g27
((lp3298
I0
atRp3299
sg166
g27
((lp3300
I0
atRp3301
sg167
g27
((lp3302
I0
atRp3303
sg168
g27
((lp3304
I0
atRp3305
sg169
g27
((lp3306
I0
atRp3307
sg170
g27
((lp3308
I0
atRp3309
sg171
g27
((lp3310
I0
atRp3311
sg172
g27
((lp3312
I0
atRp3313
sg173
g27
((lp3314
I0
atRp3315
sg174
g27
((lp3316
I0
atRp3317
sg175
g27
((lp3318
I0
atRp3319
sg176
g27
((lp3320
I0
atRp3321
sg177
g27
((lp3322
I0
atRp3323
sg178
g27
((lp3324
I0
atRp3325
sg179
g27
((lp3326
I0
atRp3327
sg180
g27
((lp3328
I0
atRp3329
sg181
g27
((lp3330
I0
atRp3331
sg182
g27
((lp3332
I0
atRp3333
sg183
g27
((lp3334
I0
atRp3335
sg184
g27
((lp3336
I0
atRp3337
sg185
g27
((lp3338
I0
atRp3339
sg186
g27
((lp3340
I0
atRp3341
sg187
g27
((lp3342
I0
atRp3343
sg188
g27
((lp3344
I0
atRp3345
sg189
g27
((lp3346
I0
atRp3347
sg190
g27
((lp3348
I0
atRp3349
sg191
g27
((lp3350
I0
atRp3351
sg192
g27
((lp3352
I0
atRp3353
sg193
g27
((lp3354
I0
atRp3355
sg194
g27
((lp3356
I0
atRp3357
sg195
g27
((lp3358
I0
atRp3359
sg196
g27
((lp3360
I0
atRp3361
sg197
g27
((lp3362
I0
atRp3363
sg198
g27
((lp3364
I0
atRp3365
sg199
g27
((lp3366
I0
atRp3367
sg200
g27
((lp3368
I0
atRp3369
sg201
g27
((lp3370
I0
atRp3371
sg202
g27
((lp3372
I0
atRp3373
sg203
g27
((lp3374
I0
atRp3375
sg204
g27
((lp3376
I0
atRp3377
sg205
g27
((lp3378
I0
atRp3379
sg206
g27
((lp3380
I0
atRp3381
sg207
g27
((lp3382
I0
atRp3383
sg208
g27
((lp3384
I0
atRp3385
sg209
g27
((lp3386
I0
atRp3387
sg210
g27
((lp3388
I0
atRp3389
sg211
g27
((lp3390
I0
atRp3391
sg212
g27
((lp3392
I0
atRp3393
sg213
g27
((lp3394
I0
atRp3395
sg214
g27
((lp3396
I0
atRp3397
sg215
g27
((lp3398
I0
atRp3399
sg216
g27
((lp3400
I0
atRp3401
sg217
g27
((lp3402
I0
atRp3403
sg218
g27
((lp3404
I0
atRp3405
sg219
g27
((lp3406
I0
atRp3407
sg220
g27
((lp3408
I0
atRp3409
sg221
g27
((lp3410
I0
atRp3411
sg222
g27
((lp3412
I0
atRp3413
sg223
g27
((lp3414
I0
atRp3415
sg224
g27
((lp3416
I0
atRp3417
sg225
g27
((lp3418
I0
atRp3419
sg226
g27
((lp3420
I0
atRp3421
sg227
g27
((lp3422
I0
atRp3423
sg228
g27
((lp3424
I0
atRp3425
sg229
g27
((lp3426
I0
atRp3427
sg230
g27
((lp3428
I0
atRp3429
sg231
g27
((lp3430
I0
atRp3431
sg232
g27
((lp3432
I0
atRp3433
sg233
g27
((lp3434
I0
atRp3435
sg234
g27
((lp3436
I0
atRp3437
sg235
g27
((lp3438
I0
atRp3439
sg236
g27
((lp3440
I0
atRp3441
sg237
g27
((lp3442
I0
atRp3443
sg238
g27
((lp3444
I0
atRp3445
sg239
g27
((lp3446
I0
atRp3447
sg240
g27
((lp3448
I0
atRp3449
sg241
g27
((lp3450
I0
atRp3451
sg242
g27
((lp3452
I0
atRp3453
sg243
g27
((lp3454
I0
atRp3455
sg244
g27
((lp3456
I0
atRp3457
sg245
g27
((lp3458
I0
atRp3459
sg246
g27
((lp3460
I0
atRp3461
sg247
g27
((lp3462
I0
atRp3463
sg248
g27
((lp3464
I0
atRp3465
sg249
g27
((lp3466
I0
atRp3467
sg250
g27
((lp3468
I0
atRp3469
sg251
g27
((lp3470
I0
atRp3471
sg252
g27
((lp3472
I0
atRp3473
sg253
g27
((lp3474
I0
atRp3475
sg254
g27
((lp3476
I0
atRp3477
sg255
g27
((lp3478
I0
atRp3479
sg256
g27
((lp3480
I0
atRp3481
sg257
g27
((lp3482
I0
atRp3483
sg258
g27
((lp3484
I0
atRp3485
sg259
g27
((lp3486
I0
atRp3487
sg260
g27
((lp3488
I0
atRp3489
sg261
g27
((lp3490
I0
atRp3491
sg262
g27
((lp3492
I0
atRp3493
sg263
g27
((lp3494
I0
atRp3495
sg264
g27
((lp3496
I0
atRp3497
sg265
g27
((lp3498
I0
atRp3499
sg266
g27
((lp3500
I0
atRp3501
sg267
g27
((lp3502
I0
atRp3503
sg268
g27
((lp3504
I0
atRp3505
sg269
g27
((lp3506
I0
atRp3507
sg270
g27
((lp3508
I0
atRp3509
sg271
g27
((lp3510
I0
atRp3511
sg272
g27
((lp3512
I0
atRp3513
sg273
g27
((lp3514
I0
atRp3515
sg274
g27
((lp3516
I0
atRp3517
sg275
g27
((lp3518
I0
atRp3519
sg276
g27
((lp3520
I0
atRp3521
sg277
g27
((lp3522
I0
atRp3523
sg278
g27
((lp3524
I0
atRp3525
sg279
g27
((lp3526
I0
atRp3527
sg280
g27
((lp3528
I0
atRp3529
sg281
g27
((lp3530
I0
atRp3531
sg282
g27
((lp3532
I0
atRp3533
sg283
g27
((lp3534
I0
atRp3535
sg284
g27
((lp3536
I0
atRp3537
sg285
g27
((lp3538
I0
atRp3539
sg286
g27
((lp3540
I0
atRp3541
sg287
g27
((lp3542
I0
atRp3543
sg288
g27
((lp3544
I0
atRp3545
sg289
g27
((lp3546
I0
atRp3547
sg290
g27
((lp3548
I0
atRp3549
sg291
g27
((lp3550
I0
atRp3551
sg292
g27
((lp3552
I0
atRp3553
sg293
g27
((lp3554
I0
atRp3555
sg294
g27
((lp3556
I0
atRp3557
sg295
g27
((lp3558
I0
atRp3559
sg296
g27
((lp3560
I0
atRp3561
sg297
g27
((lp3562
I0
atRp3563
sg298
g27
((lp3564
I0
atRp3565
sg299
g27
((lp3566
I0
atRp3567
sg300
g27
((lp3568
I0
atRp3569
sg301
g27
((lp3570
I0
atRp3571
sg302
g27
((lp3572
I0
atRp3573
sg303
g27
((lp3574
I0
atRp3575
sg304
g27
((lp3576
I0
atRp3577
sg305
g27
((lp3578
I0
atRp3579
sg306
g27
((lp3580
I0
atRp3581
sg307
g27
((lp3582
I0
atRp3583
sg308
g27
((lp3584
I0
atRp3585
sg309
g27
((lp3586
I0
atRp3587
sg310
g27
((lp3588
I0
atRp3589
sg311
g27
((lp3590
I0
atRp3591
sg312
g27
((lp3592
I0
atRp3593
sg313
g27
((lp3594
I0
atRp3595
sg314
g27
((lp3596
I0
atRp3597
sg315
g27
((lp3598
I0
atRp3599
sg316
g27
((lp3600
I0
atRp3601
sg317
g27
((lp3602
I0
atRp3603
sg318
g27
((lp3604
I0
atRp3605
sg319
g27
((lp3606
I0
atRp3607
sg320
g27
((lp3608
I0
atRp3609
sg321
g27
((lp3610
I0
atRp3611
sg322
g27
((lp3612
I0
atRp3613
sg323
g27
((lp3614
I0
atRp3615
sg324
g27
((lp3616
I0
atRp3617
sg325
g27
((lp3618
I0
atRp3619
sg326
g27
((lp3620
I0
atRp3621
sg327
g27
((lp3622
I0
atRp3623
sg328
g27
((lp3624
I0
atRp3625
sg329
g27
((lp3626
I0
atRp3627
sg330
g27
((lp3628
I0
atRp3629
sg331
g27
((lp3630
I0
atRp3631
sg332
g27
((lp3632
I0
atRp3633
sg333
g27
((lp3634
I0
atRp3635
sg334
g27
((lp3636
I0
atRp3637
sg335
g27
((lp3638
I0
atRp3639
sg336
g27
((lp3640
I0
atRp3641
sg337
g27
((lp3642
I0
atRp3643
sg338
g27
((lp3644
I0
atRp3645
sg339
g27
((lp3646
I0
atRp3647
sg340
g27
((lp3648
I0
atRp3649
sg341
g27
((lp3650
I0
atRp3651
sg342
g27
((lp3652
I0
atRp3653
sg343
g27
((lp3654
I0
atRp3655
sg344
g27
((lp3656
I0
atRp3657
sg345
g27
((lp3658
I0
atRp3659
sg346
g27
((lp3660
I0
atRp3661
sg347
g27
((lp3662
I0
atRp3663
sg348
g27
((lp3664
I0
atRp3665
sg349
g27
((lp3666
I0
atRp3667
sg350
g27
((lp3668
I0
atRp3669
sg351
g27
((lp3670
I0
atRp3671
sg352
g27
((lp3672
I0
atRp3673
sg353
g27
((lp3674
I0
atRp3675
sg354
g27
((lp3676
I0
atRp3677
sg355
g27
((lp3678
I0
atRp3679
sg356
g27
((lp3680
I0
atRp3681
sg357
g27
((lp3682
I0
atRp3683
sg358
g27
((lp3684
I0
atRp3685
sg359
g27
((lp3686
I0
atRp3687
sg360
g27
((lp3688
I0
atRp3689
sg361
g27
((lp3690
I0
atRp3691
sg362
g27
((lp3692
I0
atRp3693
sg363
g27
((lp3694
I0
atRp3695
sg364
g27
((lp3696
I0
atRp3697
sg365
g27
((lp3698
I0
atRp3699
sg366
g27
((lp3700
I0
atRp3701
sg367
g27
((lp3702
I0
atRp3703
sg368
g27
((lp3704
I0
atRp3705
sg369
g27
((lp3706
I0
atRp3707
sg370
g27
((lp3708
I0
atRp3709
sg371
g27
((lp3710
I0
atRp3711
sg372
g27
((lp3712
I0
atRp3713
sg373
g27
((lp3714
I0
atRp3715
sg374
g27
((lp3716
I0
atRp3717
sg375
g27
((lp3718
I0
atRp3719
sg376
g27
((lp3720
I0
atRp3721
sg377
g27
((lp3722
I0
atRp3723
sg378
g27
((lp3724
I0
atRp3725
sg379
g27
((lp3726
I0
atRp3727
sg380
g27
((lp3728
I0
atRp3729
sg381
g27
((lp3730
I0
atRp3731
sg382
g27
((lp3732
I0
atRp3733
sg383
g27
((lp3734
I0
atRp3735
sg384
g27
((lp3736
I0
atRp3737
sg385
g27
((lp3738
I0
atRp3739
sg386
g27
((lp3740
I0
atRp3741
sg387
g27
((lp3742
I0
atRp3743
sg388
g27
((lp3744
I0
atRp3745
sg389
g27
((lp3746
I0
atRp3747
sg390
g27
((lp3748
I0
atRp3749
sg391
g27
((lp3750
I0
atRp3751
sg392
g27
((lp3752
I0
atRp3753
sg393
g27
((lp3754
I0
atRp3755
sg394
g27
((lp3756
I0
atRp3757
sg395
g27
((lp3758
I0
atRp3759
sg396
g27
((lp3760
I0
atRp3761
sg397
g27
((lp3762
I0
atRp3763
sg398
g27
((lp3764
I0
atRp3765
sg399
g27
((lp3766
I0
atRp3767
sg400
g27
((lp3768
I0
atRp3769
sg401
g27
((lp3770
I0
atRp3771
sg402
g27
((lp3772
I0
atRp3773
sg403
g27
((lp3774
I0
atRp3775
sg404
g27
((lp3776
I0
atRp3777
sg405
g27
((lp3778
I0
atRp3779
sg406
g27
((lp3780
I0
atRp3781
sg407
g27
((lp3782
I0
atRp3783
sg408
g27
((lp3784
I0
atRp3785
sg409
g27
((lp3786
I0
atRp3787
sg410
g27
((lp3788
I0
atRp3789
sg411
g27
((lp3790
I0
atRp3791
sg412
g27
((lp3792
I0
atRp3793
sg413
g27
((lp3794
I0
atRp3795
sg414
g27
((lp3796
I0
atRp3797
sg415
g27
((lp3798
I0
atRp3799
sg416
g27
((lp3800
I0
atRp3801
sg417
g27
((lp3802
I0
atRp3803
sg418
g27
((lp3804
I0
atRp3805
sg419
g27
((lp3806
I0
atRp3807
sg420
g27
((lp3808
I0
atRp3809
sg421
g27
((lp3810
I0
atRp3811
sg422
g27
((lp3812
I0
atRp3813
sg423
g27
((lp3814
I0
atRp3815
sg424
g27
((lp3816
I0
atRp3817
sg425
g27
((lp3818
I0
atRp3819
sg426
g27
((lp3820
I0
atRp3821
sg427
g27
((lp3822
I0
atRp3823
sg428
g27
((lp3824
I0
atRp3825
sg429
g27
((lp3826
I0
atRp3827
sg430
g27
((lp3828
I0
atRp3829
sg431
g27
((lp3830
I0
atRp3831
sg432
g27
((lp3832
I0
atRp3833
sg433
g27
((lp3834
I0
atRp3835
sg434
g27
((lp3836
I0
atRp3837
sg435
g27
((lp3838
I0
atRp3839
sg436
g27
((lp3840
I0
atRp3841
sg437
g27
((lp3842
I0
atRp3843
sg438
g27
((lp3844
I0
atRp3845
sg439
g27
((lp3846
I0
atRp3847
sg440
g27
((lp3848
I0
atRp3849
sg441
g27
((lp3850
I0
atRp3851
sg442
g27
((lp3852
I0
atRp3853
sg443
g27
((lp3854
I0
atRp3855
sg444
g27
((lp3856
I0
atRp3857
sg445
g27
((lp3858
I0
atRp3859
sg446
g27
((lp3860
I0
atRp3861
sg447
g27
((lp3862
I0
atRp3863
sg448
g27
((lp3864
I0
atRp3865
sg449
g27
((lp3866
I0
atRp3867
sg450
g27
((lp3868
I0
atRp3869
sg451
g27
((lp3870
I0
atRp3871
sg452
g27
((lp3872
I0
atRp3873
sg453
g27
((lp3874
I0
atRp3875
sg454
g27
((lp3876
I0
atRp3877
sg455
g27
((lp3878
I0
atRp3879
sg456
g27
((lp3880
I0
atRp3881
sg457
g27
((lp3882
I0
atRp3883
sg458
g27
((lp3884
I0
atRp3885
sg459
g27
((lp3886
I0
atRp3887
sg460
g27
((lp3888
I0
atRp3889
sg461
g27
((lp3890
I0
atRp3891
sg462
g27
((lp3892
I0
atRp3893
sg463
g27
((lp3894
I0
atRp3895
sg464
g27
((lp3896
I0
atRp3897
sg465
g27
((lp3898
I0
atRp3899
sg466
g27
((lp3900
I0
atRp3901
sg467
g27
((lp3902
I0
atRp3903
sg468
g27
((lp3904
I0
atRp3905
sg469
g27
((lp3906
I0
atRp3907
sg470
g27
((lp3908
I0
atRp3909
sg471
g27
((lp3910
I0
atRp3911
sg472
g27
((lp3912
I0
atRp3913
sg473
g27
((lp3914
I0
atRp3915
sg474
g27
((lp3916
I0
atRp3917
sg475
g27
((lp3918
I0
atRp3919
sg476
g27
((lp3920
I0
atRp3921
sg477
g27
((lp3922
I0
atRp3923
sg478
g27
((lp3924
I0
atRp3925
sg479
g27
((lp3926
I0
atRp3927
sg480
g27
((lp3928
I0
atRp3929
sg481
g27
((lp3930
I0
atRp3931
sg482
g27
((lp3932
I0
atRp3933
sg483
g27
((lp3934
I0
atRp3935
sg484
g27
((lp3936
I0
atRp3937
sg485
g27
((lp3938
I0
atRp3939
sg486
g27
((lp3940
I0
atRp3941
sg487
g27
((lp3942
I0
atRp3943
sg488
g27
((lp3944
I0
atRp3945
sg489
g27
((lp3946
I0
atRp3947
sg490
g27
((lp3948
I0
atRp3949
sg491
g27
((lp3950
I0
atRp3951
sg492
g27
((lp3952
I0
atRp3953
sg493
g27
((lp3954
I0
atRp3955
sg494
g27
((lp3956
I0
atRp3957
sg495
g27
((lp3958
I0
atRp3959
sg496
g27
((lp3960
I0
atRp3961
sg497
g27
((lp3962
I0
atRp3963
sg498
g27
((lp3964
I0
atRp3965
sg499
g27
((lp3966
I0
atRp3967
sg500
g27
((lp3968
I0
atRp3969
sg501
g27
((lp3970
I0
atRp3971
sg502
g27
((lp3972
I0
atRp3973
sg503
g27
((lp3974
I0
atRp3975
sg504
g27
((lp3976
I0
atRp3977
sg505
g27
((lp3978
I0
atRp3979
sg506
g27
((lp3980
I0
atRp3981
sg507
g27
((lp3982
I0
atRp3983
sg508
g27
((lp3984
I0
atRp3985
sg509
g27
((lp3986
I0
atRp3987
sg510
g27
((lp3988
I0
atRp3989
sg511
g27
((lp3990
I0
atRp3991
sg512
g27
((lp3992
I0
atRp3993
sg513
g27
((lp3994
I0
atRp3995
sg514
g27
((lp3996
I0
atRp3997
sg515
g27
((lp3998
I0
atRp3999
sg516
g27
((lp4000
I0
atRp4001
sg517
g27
((lp4002
I0
atRp4003
sg518
g27
((lp4004
I0
atRp4005
sg519
g27
((lp4006
I0
atRp4007
sg520
g27
((lp4008
I0
atRp4009
sg521
g27
((lp4010
I0
atRp4011
sg522
g27
((lp4012
I0
atRp4013
sg523
g27
((lp4014
I0
atRp4015
sg524
g27
((lp4016
I0
atRp4017
sg525
g27
((lp4018
I0
atRp4019
sg526
g27
((lp4020
I0
atRp4021
sg527
g27
((lp4022
I0
atRp4023
sg528
g27
((lp4024
I0
atRp4025
sg529
g27
((lp4026
I0
atRp4027
sg530
g27
((lp4028
I0
atRp4029
sg531
g27
((lp4030
I0
atRp4031
sg532
g27
((lp4032
I0
atRp4033
sg533
g27
((lp4034
I0
atRp4035
sg534
g27
((lp4036
I0
atRp4037
sg535
g27
((lp4038
I0
atRp4039
sg536
g27
((lp4040
I0
atRp4041
sg537
g27
((lp4042
I0
atRp4043
sg538
g27
((lp4044
I0
atRp4045
sg539
g27
((lp4046
I0
atRp4047
sg540
g27
((lp4048
I0
atRp4049
sg541
g27
((lp4050
I0
atRp4051
sg542
g27
((lp4052
I0
atRp4053
sg543
g27
((lp4054
I0
atRp4055
sg544
g27
((lp4056
I0
atRp4057
sg545
g27
((lp4058
I0
atRp4059
sg546
g27
((lp4060
I0
atRp4061
sg547
g27
((lp4062
I0
atRp4063
sg548
g27
((lp4064
I0
atRp4065
sg549
g27
((lp4066
I0
atRp4067
sg550
g27
((lp4068
I0
atRp4069
sg551
g27
((lp4070
I0
atRp4071
sg552
g27
((lp4072
I0
atRp4073
sg553
g27
((lp4074
I0
atRp4075
sg554
g27
((lp4076
I0
atRp4077
sg555
g27
((lp4078
I0
atRp4079
sg556
g27
((lp4080
I0
atRp4081
sg557
g27
((lp4082
I0
atRp4083
sg558
g27
((lp4084
I0
atRp4085
sg559
g27
((lp4086
I0
atRp4087
sg560
g27
((lp4088
I0
atRp4089
sg561
g27
((lp4090
I0
atRp4091
sg562
g27
((lp4092
I0
atRp4093
sg563
g27
((lp4094
I0
atRp4095
sg564
g27
((lp4096
I0
atRp4097
sg565
g27
((lp4098
I0
atRp4099
sg566
g27
((lp4100
I0
atRp4101
sg567
g27
((lp4102
I0
atRp4103
sg568
g27
((lp4104
I0
atRp4105
sg569
g27
((lp4106
I0
atRp4107
sg570
g27
((lp4108
I0
atRp4109
sg571
g27
((lp4110
I0
atRp4111
sg572
g27
((lp4112
I0
atRp4113
sg573
g27
((lp4114
I0
atRp4115
sg574
g27
((lp4116
I0
atRp4117
sg575
g27
((lp4118
I0
atRp4119
sg576
g27
((lp4120
I0
atRp4121
sg577
g27
((lp4122
I0
atRp4123
sg578
g27
((lp4124
I0
atRp4125
sg579
g27
((lp4126
I0
atRp4127
sg580
g27
((lp4128
I0
atRp4129
sg581
g27
((lp4130
I0
atRp4131
sg582
g27
((lp4132
I0
atRp4133
sg583
g27
((lp4134
I0
atRp4135
sg584
g27
((lp4136
I0
atRp4137
sg585
g27
((lp4138
I0
atRp4139
sg586
g27
((lp4140
I0
atRp4141
sg587
g27
((lp4142
I0
atRp4143
sg588
g27
((lp4144
I0
atRp4145
sg589
g27
((lp4146
I0
atRp4147
sg590
g27
((lp4148
I0
atRp4149
sg591
g27
((lp4150
I0
atRp4151
sg592
g27
((lp4152
I0
atRp4153
sg593
g27
((lp4154
I0
atRp4155
sg594
g27
((lp4156
I0
atRp4157
sg595
g27
((lp4158
I0
atRp4159
sg596
g27
((lp4160
I0
atRp4161
sg597
g27
((lp4162
I0
atRp4163
sg598
g27
((lp4164
I0
atRp4165
sg599
g27
((lp4166
I0
atRp4167
sg600
g27
((lp4168
I0
atRp4169
sg601
g27
((lp4170
I0
atRp4171
sg602
g27
((lp4172
I0
atRp4173
sg603
g27
((lp4174
I0
atRp4175
sg604
g27
((lp4176
I0
atRp4177
sg605
g27
((lp4178
I0
atRp4179
sg606
g27
((lp4180
I0
atRp4181
sg607
g27
((lp4182
I0
atRp4183
sg608
g27
((lp4184
I0
atRp4185
sg609
g27
((lp4186
I0
atRp4187
sg610
g27
((lp4188
I0
atRp4189
sg611
g27
((lp4190
I0
atRp4191
sg612
g27
((lp4192
I0
atRp4193
sg613
g27
((lp4194
I0
atRp4195
sg614
g27
((lp4196
I0
atRp4197
sg615
g27
((lp4198
I0
atRp4199
sg616
g27
((lp4200
I0
atRp4201
sg617
g27
((lp4202
I0
atRp4203
sg618
g27
((lp4204
I0
atRp4205
sg619
g27
((lp4206
I0
atRp4207
sg620
g27
((lp4208
I0
atRp4209
sg621
g27
((lp4210
I0
atRp4211
sg622
g27
((lp4212
I0
atRp4213
sg623
g27
((lp4214
I0
atRp4215
sg624
g27
((lp4216
I0
atRp4217
sg625
g27
((lp4218
I0
atRp4219
sg626
g27
((lp4220
I0
atRp4221
sg627
g27
((lp4222
I0
atRp4223
sg628
g27
((lp4224
I0
atRp4225
sg629
g27
((lp4226
I0
atRp4227
sg630
g27
((lp4228
I0
atRp4229
sg631
g27
((lp4230
I0
atRp4231
sg632
g27
((lp4232
I0
atRp4233
sg633
g27
((lp4234
I0
atRp4235
sg634
g27
((lp4236
I0
atRp4237
sg635
g27
((lp4238
I0
atRp4239
sg636
g27
((lp4240
I0
atRp4241
sg637
g27
((lp4242
I0
atRp4243
sg638
g27
((lp4244
I0
atRp4245
sg639
g27
((lp4246
I0
atRp4247
sg640
g27
((lp4248
I0
atRp4249
sg641
g27
((lp4250
I0
atRp4251
sg642
g27
((lp4252
I0
atRp4253
sg643
g27
((lp4254
I0
atRp4255
sg644
g27
((lp4256
I0
atRp4257
sg645
g27
((lp4258
I0
atRp4259
sg646
g27
((lp4260
I0
atRp4261
sg647
g27
((lp4262
I0
atRp4263
sg648
g27
((lp4264
I0
atRp4265
sg649
g27
((lp4266
I0
atRp4267
sg650
g27
((lp4268
I0
atRp4269
sg651
g27
((lp4270
I0
atRp4271
sg652
g27
((lp4272
I0
atRp4273
sg653
g27
((lp4274
I0
atRp4275
sg654
g27
((lp4276
I0
atRp4277
sg655
g27
((lp4278
I0
atRp4279
sg656
g27
((lp4280
I0
atRp4281
sg657
g27
((lp4282
I0
atRp4283
sg658
g27
((lp4284
I0
atRp4285
sg659
g27
((lp4286
I0
atRp4287
sg660
g27
((lp4288
I0
atRp4289
sg661
g27
((lp4290
I0
atRp4291
sg662
g27
((lp4292
I0
atRp4293
sg663
g27
((lp4294
I0
atRp4295
sg664
g27
((lp4296
I0
atRp4297
sg665
g27
((lp4298
I0
atRp4299
sg666
g27
((lp4300
I0
atRp4301
sg667
g27
((lp4302
I0
atRp4303
sg668
g27
((lp4304
I0
atRp4305
sg669
g27
((lp4306
I0
atRp4307
sg670
g27
((lp4308
I0
atRp4309
sg671
g27
((lp4310
I0
atRp4311
sg672
g27
((lp4312
I0
atRp4313
sg673
g27
((lp4314
I0
atRp4315
sg674
g27
((lp4316
I0
atRp4317
sg675
g27
((lp4318
I0
atRp4319
sg676
g27
((lp4320
I0
atRp4321
sg677
g27
((lp4322
I0
atRp4323
sg678
g27
((lp4324
I0
atRp4325
sg679
g27
((lp4326
I0
atRp4327
sg680
g27
((lp4328
I0
atRp4329
sg681
g27
((lp4330
I0
atRp4331
sg682
g27
((lp4332
I0
atRp4333
sg683
g27
((lp4334
I0
atRp4335
sg684
g27
((lp4336
I0
atRp4337
sg685
g27
((lp4338
I0
atRp4339
sg686
g27
((lp4340
I0
atRp4341
sg687
g27
((lp4342
I0
atRp4343
sg688
g27
((lp4344
I0
atRp4345
sg689
g27
((lp4346
I0
atRp4347
sg690
g27
((lp4348
I0
atRp4349
sg691
g27
((lp4350
I0
atRp4351
sg692
g27
((lp4352
I0
atRp4353
sg693
g27
((lp4354
I0
atRp4355
sg694
g27
((lp4356
I0
atRp4357
sg695
g27
((lp4358
I0
atRp4359
sg696
g27
((lp4360
I0
atRp4361
sg697
g27
((lp4362
I0
atRp4363
sg698
g27
((lp4364
I0
atRp4365
sg699
g27
((lp4366
I0
atRp4367
sg700
g27
((lp4368
I0
atRp4369
sg701
g27
((lp4370
I0
atRp4371
sg702
g27
((lp4372
I0
atRp4373
sg703
g27
((lp4374
I0
atRp4375
sg704
g27
((lp4376
I0
atRp4377
sg705
g27
((lp4378
I0
atRp4379
sg706
g27
((lp4380
I0
atRp4381
sg707
g27
((lp4382
I0
atRp4383
sg708
g27
((lp4384
I0
atRp4385
sg709
g27
((lp4386
I0
atRp4387
sg710
g27
((lp4388
I0
atRp4389
sg711
g27
((lp4390
I0
atRp4391
sg712
g27
((lp4392
I0
atRp4393
sg713
g27
((lp4394
I0
atRp4395
sg714
g27
((lp4396
I0
atRp4397
sg715
g27
((lp4398
I0
atRp4399
sg716
g27
((lp4400
I0
atRp4401
sg717
g27
((lp4402
I0
atRp4403
sg718
g27
((lp4404
I0
atRp4405
sg719
g27
((lp4406
I0
atRp4407
sg720
g27
((lp4408
I0
atRp4409
sg721
g27
((lp4410
I0
atRp4411
sg722
g27
((lp4412
I0
atRp4413
sg723
g27
((lp4414
I0
atRp4415
sg724
g27
((lp4416
I0
atRp4417
sg725
g27
((lp4418
I0
atRp4419
sg726
g27
((lp4420
I0
atRp4421
sg727
g27
((lp4422
I0
atRp4423
sg728
g27
((lp4424
I0
atRp4425
sg729
g27
((lp4426
I0
atRp4427
sg730
g27
((lp4428
I0
atRp4429
sg731
g27
((lp4430
I0
atRp4431
sg732
g27
((lp4432
I0
atRp4433
sg733
g27
((lp4434
I0
atRp4435
sg734
g27
((lp4436
I0
atRp4437
sg735
g27
((lp4438
I0
atRp4439
sg736
g27
((lp4440
I0
atRp4441
sg737
g27
((lp4442
I0
atRp4443
sg738
g27
((lp4444
I0
atRp4445
sg739
g27
((lp4446
I0
atRp4447
sg740
g27
((lp4448
I0
atRp4449
sg741
g27
((lp4450
I0
atRp4451
sg742
g27
((lp4452
I0
atRp4453
sg743
g27
((lp4454
I0
atRp4455
sg744
g27
((lp4456
I0
atRp4457
sg745
g27
((lp4458
I0
atRp4459
sg746
g27
((lp4460
I0
atRp4461
sg747
g27
((lp4462
I0
atRp4463
sg748
g27
((lp4464
I0
atRp4465
sg749
g27
((lp4466
I0
atRp4467
sg750
g27
((lp4468
I0
atRp4469
sg751
g27
((lp4470
I0
atRp4471
sg752
g27
((lp4472
I0
atRp4473
sg753
g27
((lp4474
I0
atRp4475
sg754
g27
((lp4476
I0
atRp4477
sg755
g27
((lp4478
I0
atRp4479
sg756
g27
((lp4480
I0
atRp4481
sS'0'
g27
((lp4482
I0
atRp4483
sg757
g27
((lp4484
I0
atRp4485
sg758
g27
((lp4486
I0
atRp4487
sg759
g27
((lp4488
I0
atRp4489
sg760
g27
((lp4490
I0
atRp4491
sg761
g27
((lp4492
I0
atRp4493
sg762
g27
((lp4494
I0
atRp4495
sg763
g27
((lp4496
I0
atRp4497
sg764
g27
((lp4498
I0
atRp4499
sg765
g27
((lp4500
I0
atRp4501
sg766
g27
((lp4502
I0
atRp4503
sg767
g27
((lp4504
I0
atRp4505
sg768
g27
((lp4506
I0
atRp4507
sg769
g27
((lp4508
I0
atRp4509
sg770
g27
((lp4510
I0
atRp4511
sg771
g27
((lp4512
I0
atRp4513
sg772
g27
((lp4514
I0
atRp4515
sg773
g27
((lp4516
I0
atRp4517
sg774
g27
((lp4518
I0
atRp4519
sg775
g27
((lp4520
I0
atRp4521
sg776
g27
((lp4522
I0
atRp4523
sg777
g27
((lp4524
I0
atRp4525
sg778
g27
((lp4526
I0
atRp4527
sg779
g27
((lp4528
I0
atRp4529
sg780
g27
((lp4530
I0
atRp4531
sg781
g27
((lp4532
I0
atRp4533
sg782
g27
((lp4534
I0
atRp4535
sg783
g27
((lp4536
I0
atRp4537
sg784
g27
((lp4538
I0
atRp4539
sg785
g27
((lp4540
I0
atRp4541
sg786
g27
((lp4542
I0
atRp4543
sg787
g27
((lp4544
I0
atRp4545
sg788
g27
((lp4546
I0
atRp4547
sg789
g27
((lp4548
I0
atRp4549
sg790
g27
((lp4550
I0
atRp4551
sg791
g27
((lp4552
I0
atRp4553
sg792
g27
((lp4554
I0
atRp4555
sg793
g27
((lp4556
I0
atRp4557
sg794
g27
((lp4558
I0
atRp4559
sg795
g27
((lp4560
I0
atRp4561
sg796
g27
((lp4562
I0
atRp4563
sg797
g27
((lp4564
I0
atRp4565
sg798
g27
((lp4566
I0
atRp4567
sg799
g27
((lp4568
I0
atRp4569
sg800
g27
((lp4570
I0
atRp4571
sg801
g27
((lp4572
I0
atRp4573
sg802
g27
((lp4574
I0
atRp4575
sg803
g27
((lp4576
I0
atRp4577
sg804
g27
((lp4578
I0
atRp4579
sg805
g27
((lp4580
I0
atRp4581
sg806
g27
((lp4582
I0
atRp4583
sg807
g27
((lp4584
I0
atRp4585
sg808
g27
((lp4586
I0
atRp4587
sg809
g27
((lp4588
I0
atRp4589
sg810
g27
((lp4590
I0
atRp4591
sg811
g27
((lp4592
I0
atRp4593
sg812
g27
((lp4594
I0
atRp4595
sg813
g27
((lp4596
I0
atRp4597
sg814
g27
((lp4598
I0
atRp4599
sg815
g27
((lp4600
I0
atRp4601
sg816
g27
((lp4602
I0
atRp4603
sg817
g27
((lp4604
I0
atRp4605
sg818
g27
((lp4606
I0
atRp4607
sg819
g27
((lp4608
I0
atRp4609
sg820
g27
((lp4610
I0
atRp4611
sg821
g27
((lp4612
I0
atRp4613
sg822
g27
((lp4614
I0
atRp4615
sg823
g27
((lp4616
I0
atRp4617
sg824
g27
((lp4618
I0
atRp4619
sg825
g27
((lp4620
I0
atRp4621
sg826
g27
((lp4622
I0
atRp4623
sg827
g27
((lp4624
I0
atRp4625
sg828
g27
((lp4626
I0
atRp4627
sg829
g27
((lp4628
I0
atRp4629
sg830
g27
((lp4630
I0
atRp4631
sg831
g27
((lp4632
I0
atRp4633
sg832
g27
((lp4634
I0
atRp4635
sg833
g27
((lp4636
I0
atRp4637
sg834
g27
((lp4638
I0
atRp4639
sg835
g27
((lp4640
I0
atRp4641
sg836
g27
((lp4642
I0
atRp4643
sg837
g27
((lp4644
I0
atRp4645
sg838
g27
((lp4646
I0
atRp4647
sg839
g27
((lp4648
I0
atRp4649
sg840
g27
((lp4650
I0
atRp4651
sg841
g27
((lp4652
I0
atRp4653
sg842
g27
((lp4654
I0
atRp4655
sg843
g27
((lp4656
I0
atRp4657
sg844
g27
((lp4658
I0
atRp4659
sg845
g27
((lp4660
I0
atRp4661
sg846
g27
((lp4662
I0
atRp4663
sg847
g27
((lp4664
I0
atRp4665
sg848
g27
((lp4666
I0
atRp4667
sg849
g27
((lp4668
I0
atRp4669
sg850
g27
((lp4670
I0
atRp4671
sg851
g27
((lp4672
I0
atRp4673
sg852
g27
((lp4674
I0
atRp4675
sg853
g27
((lp4676
I0
atRp4677
sg854
g27
((lp4678
I0
atRp4679
sg855
g27
((lp4680
I0
atRp4681
sg856
g27
((lp4682
I0
atRp4683
sg857
g27
((lp4684
I0
atRp4685
sg858
g27
((lp4686
I0
atRp4687
sg859
g27
((lp4688
I0
atRp4689
sg860
g27
((lp4690
I0
atRp4691
sg861
g27
((lp4692
I0
atRp4693
sg862
g27
((lp4694
I0
atRp4695
sg863
g27
((lp4696
I0
atRp4697
sg864
g27
((lp4698
I0
atRp4699
sg865
g27
((lp4700
I0
atRp4701
sg866
g27
((lp4702
I0
atRp4703
sg867
g27
((lp4704
I0
atRp4705
sg868
g27
((lp4706
I0
atRp4707
sg869
g27
((lp4708
I0
atRp4709
sg870
g27
((lp4710
I0
atRp4711
sg871
g27
((lp4712
I0
atRp4713
sg872
g27
((lp4714
I0
atRp4715
sg873
g27
((lp4716
I0
atRp4717
sg874
g27
((lp4718
I0
atRp4719
sg875
g27
((lp4720
I0
atRp4721
sg876
g27
((lp4722
I0
atRp4723
sg877
g27
((lp4724
I0
atRp4725
sg878
g27
((lp4726
I0
atRp4727
sg879
g27
((lp4728
I0
atRp4729
sg880
g27
((lp4730
I0
atRp4731
sg881
g27
((lp4732
I0
atRp4733
sg882
g27
((lp4734
I0
atRp4735
sg883
g27
((lp4736
I0
atRp4737
sg884
g27
((lp4738
I0
atRp4739
sg885
g27
((lp4740
I0
atRp4741
sg886
g27
((lp4742
I0
atRp4743
sg887
g27
((lp4744
I0
atRp4745
sg888
g27
((lp4746
I0
atRp4747
sg889
g27
((lp4748
I0
atRp4749
sg890
g27
((lp4750
I0
atRp4751
sg891
g27
((lp4752
I0
atRp4753
sg892
g27
((lp4754
I0
atRp4755
sS'1'
g27
((lp4756
I0
atRp4757
sg893
g27
((lp4758
I0
atRp4759
sg894
g27
((lp4760
I0
atRp4761
sg895
g27
((lp4762
I0
atRp4763
sg896
g27
((lp4764
I0
atRp4765
sg897
g27
((lp4766
I0
atRp4767
sg898
g27
((lp4768
I0
atRp4769
sg899
g27
((lp4770
I0
atRp4771
sg900
g27
((lp4772
I0
atRp4773
sg901
g27
((lp4774
I0
atRp4775
sg902
g27
((lp4776
I0
atRp4777
sg903
g27
((lp4778
I0
atRp4779
sg904
g27
((lp4780
I0
atRp4781
sg905
g27
((lp4782
I0
atRp4783
sg906
g27
((lp4784
I0
atRp4785
sg907
g27
((lp4786
I0
atRp4787
sg908
g27
((lp4788
I0
atRp4789
sg909
g27
((lp4790
I0
atRp4791
sg910
g27
((lp4792
I0
atRp4793
sg911
g27
((lp4794
I0
atRp4795
sg912
g27
((lp4796
I0
atRp4797
sg913
g27
((lp4798
I0
atRp4799
sg914
g27
((lp4800
I0
atRp4801
sg915
g27
((lp4802
I0
atRp4803
sg916
g27
((lp4804
I0
atRp4805
sg917
g27
((lp4806
I0
atRp4807
sg918
g27
((lp4808
I0
atRp4809
sg919
g27
((lp4810
I0
atRp4811
sg920
g27
((lp4812
I0
atRp4813
sg921
g27
((lp4814
I0
atRp4815
sg922
g27
((lp4816
I0
atRp4817
sg923
g27
((lp4818
I0
atRp4819
sg924
g27
((lp4820
I0
atRp4821
sg925
g27
((lp4822
I0
atRp4823
sg926
g27
((lp4824
I0
atRp4825
sg927
g27
((lp4826
I0
atRp4827
sg928
g27
((lp4828
I0
atRp4829
sg929
g27
((lp4830
I0
atRp4831
sg930
g27
((lp4832
I0
atRp4833
sg931
g27
((lp4834
I0
atRp4835
sg932
g27
((lp4836
I0
atRp4837
sg933
g27
((lp4838
I0
atRp4839
sg934
g27
((lp4840
I0
atRp4841
sg935
g27
((lp4842
I0
atRp4843
sg936
g27
((lp4844
I0
atRp4845
sg937
g27
((lp4846
I0
atRp4847
sg938
g27
((lp4848
I0
atRp4849
sg939
g27
((lp4850
I0
atRp4851
sg940
g27
((lp4852
I0
atRp4853
sg941
g27
((lp4854
I0
atRp4855
sg942
g27
((lp4856
I0
atRp4857
sg943
g27
((lp4858
I0
atRp4859
sg944
g27
((lp4860
I0
atRp4861
sg945
g27
((lp4862
I0
atRp4863
sg946
g27
((lp4864
I0
atRp4865
sg947
g27
((lp4866
I0
atRp4867
sg948
g27
((lp4868
I0
atRp4869
sg949
g27
((lp4870
I0
atRp4871
sg950
g27
((lp4872
I0
atRp4873
sg951
g27
((lp4874
I0
atRp4875
sg952
g27
((lp4876
I0
atRp4877
sg953
g27
((lp4878
I0
atRp4879
sg954
g27
((lp4880
I0
atRp4881
sg955
g27
((lp4882
I0
atRp4883
sg956
g27
((lp4884
I0
atRp4885
sg957
g27
((lp4886
I0
atRp4887
sg958
g27
((lp4888
I0
atRp4889
sg959
g27
((lp4890
I0
atRp4891
sg960
g27
((lp4892
I0
atRp4893
sg961
g27
((lp4894
I0
atRp4895
sg962
g27
((lp4896
I0
atRp4897
sg963
g27
((lp4898
I0
atRp4899
sg964
g27
((lp4900
I0
atRp4901
sg965
g27
((lp4902
I0
atRp4903
sg966
g27
((lp4904
I0
atRp4905
sg967
g27
((lp4906
I0
atRp4907
sg968
g27
((lp4908
I0
atRp4909
sg969
g27
((lp4910
I0
atRp4911
sg970
g27
((lp4912
I0
atRp4913
sg971
g27
((lp4914
I0
atRp4915
sg972
g27
((lp4916
I0
atRp4917
sg973
g27
((lp4918
I0
atRp4919
sg974
g27
((lp4920
I0
atRp4921
sg975
g27
((lp4922
I0
atRp4923
sg976
g27
((lp4924
I0
atRp4925
sg977
g27
((lp4926
I0
atRp4927
sg978
g27
((lp4928
I0
atRp4929
sg979
g27
((lp4930
I0
atRp4931
sg980
g27
((lp4932
I0
atRp4933
sg981
g27
((lp4934
I0
atRp4935
sg982
g27
((lp4936
I0
atRp4937
sg983
g27
((lp4938
I0
atRp4939
sg984
g27
((lp4940
I0
atRp4941
sg985
g27
((lp4942
I0
atRp4943
sg986
g27
((lp4944
I0
atRp4945
sg987
g27
((lp4946
I0
atRp4947
sg988
g27
((lp4948
I0
atRp4949
sg989
g27
((lp4950
I0
atRp4951
sg990
g27
((lp4952
I0
atRp4953
sg991
g27
((lp4954
I0
atRp4955
sg992
g27
((lp4956
I0
atRp4957
sg993
g27
((lp4958
I0
atRp4959
sg994
g27
((lp4960
I0
atRp4961
sg995
g27
((lp4962
I0
atRp4963
sg996
g27
((lp4964
I0
atRp4965
sg997
g27
((lp4966
I0
atRp4967
sg998
g27
((lp4968
I0
atRp4969
sg999
g27
((lp4970
I0
atRp4971
sg1000
g27
((lp4972
I0
atRp4973
sg1001
g27
((lp4974
I0
atRp4975
sg1002
g27
((lp4976
I0
atRp4977
sg1003
g27
((lp4978
I0
atRp4979
sg1004
g27
((lp4980
I0
atRp4981
sg1005
g27
((lp4982
I0
atRp4983
sg1006
g27
((lp4984
I0
atRp4985
sg1007
g27
((lp4986
I0
atRp4987
sg1008
g27
((lp4988
I0
atRp4989
sg1009
g27
((lp4990
I0
atRp4991
sg1010
g27
((lp4992
I0
atRp4993
sg1011
g27
((lp4994
I0
atRp4995
sg1012
g27
((lp4996
I0
atRp4997
sg1013
g27
((lp4998
I0
atRp4999
sg1014
g27
((lp5000
I0
atRp5001
sg1015
g27
((lp5002
I0
atRp5003
sg1016
g27
((lp5004
I0
atRp5005
sg1017
g27
((lp5006
I0
atRp5007
sg1018
g27
((lp5008
I0
atRp5009
sg1019
g27
((lp5010
I0
atRp5011
sg1020
g27
((lp5012
I0
atRp5013
sg1021
g27
((lp5014
I0
atRp5015
sg1022
g27
((lp5016
I0
atRp5017
sg1023
g27
((lp5018
I0
atRp5019
sg1024
g27
((lp5020
I0
atRp5021
sg1025
g27
((lp5022
I0
atRp5023
sg1026
g27
((lp5024
I0
atRp5025
sg1027
g27
((lp5026
I0
atRp5027
sg1028
g27
((lp5028
I0
atRp5029
sg1029
g27
((lp5030
I0
atRp5031
sg1030
g27
((lp5032
I0
atRp5033
sg1031
g27
((lp5034
I0
atRp5035
sg1032
g27
((lp5036
I0
atRp5037
sg1033
g27
((lp5038
I0
atRp5039
sg1034
g27
((lp5040
I0
atRp5041
sg1035
g27
((lp5042
I0
atRp5043
sg1036
g27
((lp5044
I0
atRp5045
sg1037
g27
((lp5046
I0
atRp5047
sg1038
g27
((lp5048
I0
atRp5049
sg1039
g27
((lp5050
I0
atRp5051
sg1040
g27
((lp5052
I0
atRp5053
sg1041
g27
((lp5054
I0
atRp5055
sg1042
g27
((lp5056
I0
atRp5057
sg1043
g27
((lp5058
I0
atRp5059
sg1044
g27
((lp5060
I0
atRp5061
sg1045
g27
((lp5062
I0
atRp5063
sg1046
g27
((lp5064
I0
atRp5065
sg1047
g27
((lp5066
I0
atRp5067
sg1048
g27
((lp5068
I0
atRp5069
sg1049
g27
((lp5070
I0
atRp5071
sg1050
g27
((lp5072
I0
atRp5073
sg1051
g27
((lp5074
I0
atRp5075
sg1052
g27
((lp5076
I0
atRp5077
sg1053
g27
((lp5078
I0
atRp5079
sg1054
g27
((lp5080
I0
atRp5081
sg1055
g27
((lp5082
I0
atRp5083
sg1056
g27
((lp5084
I0
atRp5085
sg1057
g27
((lp5086
I0
atRp5087
sg1058
g27
((lp5088
I0
atRp5089
sg1059
g27
((lp5090
I0
atRp5091
sg1060
g27
((lp5092
I0
atRp5093
sg1061
g27
((lp5094
I0
atRp5095
sg1062
g27
((lp5096
I0
atRp5097
sg1063
g27
((lp5098
I0
atRp5099
sg1064
g27
((lp5100
I0
atRp5101
sg1065
g27
((lp5102
I0
atRp5103
sg1066
g27
((lp5104
I0
atRp5105
sg1067
g27
((lp5106
I0
atRp5107
sS'2'
g27
((lp5108
I0
atRp5109
sg1068
g27
((lp5110
I0
atRp5111
sg1069
g27
((lp5112
I0
atRp5113
sg1070
g27
((lp5114
I0
atRp5115
sg1071
g27
((lp5116
I0
atRp5117
sg1072
g27
((lp5118
I0
atRp5119
sg1073
g27
((lp5120
I0
atRp5121
sg1074
g27
((lp5122
I0
atRp5123
sg1075
g27
((lp5124
I0
atRp5125
sg1076
g27
((lp5126
I0
atRp5127
sg1077
g27
((lp5128
I0
atRp5129
sg1078
g27
((lp5130
I0
atRp5131
sg1079
g27
((lp5132
I0
atRp5133
sg1080
g27
((lp5134
I0
atRp5135
sg1081
g27
((lp5136
I0
atRp5137
sg1082
g27
((lp5138
I0
atRp5139
sg1083
g27
((lp5140
I0
atRp5141
sg1084
g27
((lp5142
I0
atRp5143
sg1085
g27
((lp5144
I0
atRp5145
sg1086
g27
((lp5146
I0
atRp5147
sg1087
g27
((lp5148
I0
atRp5149
sg1088
g27
((lp5150
I0
atRp5151
sg1089
g27
((lp5152
I0
atRp5153
sg1090
g27
((lp5154
I0
atRp5155
sg1091
g27
((lp5156
I0
atRp5157
sg1092
g27
((lp5158
I0
atRp5159
sg1093
g27
((lp5160
I0
atRp5161
sg1094
g27
((lp5162
I0
atRp5163
sg1095
g27
((lp5164
I0
atRp5165
sg1096
g27
((lp5166
I0
atRp5167
sg1097
g27
((lp5168
I0
atRp5169
sg1098
g27
((lp5170
I0
atRp5171
sg1099
g27
((lp5172
I0
atRp5173
sg1100
g27
((lp5174
I0
atRp5175
sg1101
g27
((lp5176
I0
atRp5177
sg1102
g27
((lp5178
I0
atRp5179
sg1103
g27
((lp5180
I0
atRp5181
sg1104
g27
((lp5182
I0
atRp5183
sg1105
g27
((lp5184
I0
atRp5185
sg1106
g27
((lp5186
I0
atRp5187
sg1107
g27
((lp5188
I0
atRp5189
sg1108
g27
((lp5190
I0
atRp5191
sg1109
g27
((lp5192
I0
atRp5193
sg1110
g27
((lp5194
I0
atRp5195
sg1111
g27
((lp5196
I0
atRp5197
sg1112
g27
((lp5198
I0
atRp5199
sg1113
g27
((lp5200
I0
atRp5201
sg1114
g27
((lp5202
I0
atRp5203
sg1115
g27
((lp5204
I0
atRp5205
sg1116
g27
((lp5206
I0
atRp5207
sg1117
g27
((lp5208
I0
atRp5209
sg1118
g27
((lp5210
I0
atRp5211
sg1119
g27
((lp5212
I0
atRp5213
sg1120
g27
((lp5214
I0
atRp5215
sg1121
g27
((lp5216
I0
atRp5217
sg1122
g27
((lp5218
I0
atRp5219
sg1123
g27
((lp5220
I0
atRp5221
sg1124
g27
((lp5222
I0
atRp5223
sg1125
g27
((lp5224
I0
atRp5225
sg1126
g27
((lp5226
I0
atRp5227
sg1127
g27
((lp5228
I0
atRp5229
sg1128
g27
((lp5230
I0
atRp5231
sg1129
g27
((lp5232
I0
atRp5233
sg1130
g27
((lp5234
I0
atRp5235
sg1131
g27
((lp5236
I0
atRp5237
sg1132
g27
((lp5238
I0
atRp5239
sg1133
g27
((lp5240
I0
atRp5241
sg1134
g27
((lp5242
I0
atRp5243
sg1135
g27
((lp5244
I0
atRp5245
sg1136
g27
((lp5246
I0
atRp5247
sg1137
g27
((lp5248
I0
atRp5249
sg1138
g27
((lp5250
I0
atRp5251
sg1139
g27
((lp5252
I0
atRp5253
sg1140
g27
((lp5254
I0
atRp5255
sg1141
g27
((lp5256
I0
atRp5257
sg1142
g27
((lp5258
I0
atRp5259
sg1143
g27
((lp5260
I0
atRp5261
sg1144
g27
((lp5262
I0
atRp5263
sg1145
g27
((lp5264
I0
atRp5265
sg1146
g27
((lp5266
I0
atRp5267
sg1147
g27
((lp5268
I0
atRp5269
sg1148
g27
((lp5270
I0
atRp5271
sg1149
g27
((lp5272
I0
atRp5273
sg1150
g27
((lp5274
I0
atRp5275
sg1151
g27
((lp5276
I0
atRp5277
sg1152
g27
((lp5278
I0
atRp5279
sg1153
g27
((lp5280
I0
atRp5281
sg1154
g27
((lp5282
I0
atRp5283
sg1155
g27
((lp5284
I0
atRp5285
sg1156
g27
((lp5286
I0
atRp5287
sg1157
g27
((lp5288
I0
atRp5289
sg1158
g27
((lp5290
I0
atRp5291
sg1159
g27
((lp5292
I0
atRp5293
sg1160
g27
((lp5294
I0
atRp5295
sg1161
g27
((lp5296
I0
atRp5297
sg1162
g27
((lp5298
I0
atRp5299
sg1163
g27
((lp5300
I0
atRp5301
sg1164
g27
((lp5302
I0
atRp5303
sg1165
g27
((lp5304
I0
atRp5305
sg1166
g27
((lp5306
I0
atRp5307
sg1167
g27
((lp5308
I0
atRp5309
sg1168
g27
((lp5310
I0
atRp5311
sg1169
g27
((lp5312
I0
atRp5313
sg1170
g27
((lp5314
I0
atRp5315
sg1171
g27
((lp5316
I0
atRp5317
sg1172
g27
((lp5318
I0
atRp5319
sg1173
g27
((lp5320
I0
atRp5321
sg1174
g27
((lp5322
I0
atRp5323
sg1175
g27
((lp5324
I0
atRp5325
sg1176
g27
((lp5326
I0
atRp5327
sg1177
g27
((lp5328
I0
atRp5329
sg1178
g27
((lp5330
I0
atRp5331
sg1179
g27
((lp5332
I0
atRp5333
sg1180
g27
((lp5334
I0
atRp5335
sg1181
g27
((lp5336
I0
atRp5337
sg1182
g27
((lp5338
I0
atRp5339
sg1183
g27
((lp5340
I0
atRp5341
sg1184
g27
((lp5342
I0
atRp5343
sg1185
g27
((lp5344
I0
atRp5345
sg1186
g27
((lp5346
I0
atRp5347
sg1187
g27
((lp5348
I0
atRp5349
sg1188
g27
((lp5350
I0
atRp5351
sS'3'
g27
((lp5352
I0
atRp5353
sg1189
g27
((lp5354
I0
atRp5355
sg1190
g27
((lp5356
I0
atRp5357
sg1191
g27
((lp5358
I0
atRp5359
sg1192
g27
((lp5360
I0
atRp5361
sg1193
g27
((lp5362
I0
atRp5363
sg1194
g27
((lp5364
I0
atRp5365
sg1195
g27
((lp5366
I0
atRp5367
sg1196
g27
((lp5368
I0
atRp5369
sg1197
g27
((lp5370
I0
atRp5371
sg1198
g27
((lp5372
I0
atRp5373
sg1199
g27
((lp5374
I0
atRp5375
sg1200
g27
((lp5376
I0
atRp5377
sg1201
g27
((lp5378
I0
atRp5379
sg1202
g27
((lp5380
I0
atRp5381
sg1203
g27
((lp5382
I0
atRp5383
sg1204
g27
((lp5384
I0
atRp5385
sg1205
g27
((lp5386
I0
atRp5387
sg1206
g27
((lp5388
I0
atRp5389
sg1207
g27
((lp5390
I0
atRp5391
sg1208
g27
((lp5392
I0
atRp5393
sg1209
g27
((lp5394
I0
atRp5395
sg1210
g27
((lp5396
I0
atRp5397
sg1211
g27
((lp5398
I0
atRp5399
sg1212
g27
((lp5400
I0
atRp5401
sg1213
g27
((lp5402
I0
atRp5403
sg1214
g27
((lp5404
I0
atRp5405
sg1215
g27
((lp5406
I0
atRp5407
sg1216
g27
((lp5408
I0
atRp5409
sg1217
g27
((lp5410
I0
atRp5411
sg1218
g27
((lp5412
I0
atRp5413
sg1219
g27
((lp5414
I0
atRp5415
sg1220
g27
((lp5416
I0
atRp5417
sg1221
g27
((lp5418
I0
atRp5419
sg1222
g27
((lp5420
I0
atRp5421
sg1223
g27
((lp5422
I0
atRp5423
sg1224
g27
((lp5424
I0
atRp5425
sg1225
g27
((lp5426
I0
atRp5427
sg1226
g27
((lp5428
I0
atRp5429
sg1227
g27
((lp5430
I0
atRp5431
sg1228
g27
((lp5432
I0
atRp5433
sg1229
g27
((lp5434
I0
atRp5435
sg1230
g27
((lp5436
I0
atRp5437
sg1231
g27
((lp5438
I0
atRp5439
sg1232
g27
((lp5440
I0
atRp5441
sg1233
g27
((lp5442
I0
atRp5443
sg1234
g27
((lp5444
I0
atRp5445
sg1235
g27
((lp5446
I0
atRp5447
sg1236
g27
((lp5448
I0
atRp5449
sg1237
g27
((lp5450
I0
atRp5451
sg1238
g27
((lp5452
I0
atRp5453
sg1239
g27
((lp5454
I0
atRp5455
sg1240
g27
((lp5456
I0
atRp5457
sg1241
g27
((lp5458
I0
atRp5459
sg1242
g27
((lp5460
I0
atRp5461
sg1243
g27
((lp5462
I0
atRp5463
sg1244
g27
((lp5464
I0
atRp5465
sg1245
g27
((lp5466
I0
atRp5467
sg1246
g27
((lp5468
I0
atRp5469
sg1247
g27
((lp5470
I0
atRp5471
sg1248
g27
((lp5472
I0
atRp5473
sg1249
g27
((lp5474
I0
atRp5475
sg1250
g27
((lp5476
I0
atRp5477
sg1251
g27
((lp5478
I0
atRp5479
sg1252
g27
((lp5480
I0
atRp5481
sg1253
g27
((lp5482
I0
atRp5483
sg1254
g27
((lp5484
I0
atRp5485
sg1255
g27
((lp5486
I0
atRp5487
sg1256
g27
((lp5488
I0
atRp5489
sg1257
g27
((lp5490
I0
atRp5491
sg1258
g27
((lp5492
I0
atRp5493
sg1259
g27
((lp5494
I0
atRp5495
sg1260
g27
((lp5496
I0
atRp5497
sg1261
g27
((lp5498
I0
atRp5499
sg1262
g27
((lp5500
I0
atRp5501
sg1263
g27
((lp5502
I0
atRp5503
sg1264
g27
((lp5504
I0
atRp5505
sg1265
g27
((lp5506
I0
atRp5507
sg1266
g27
((lp5508
I0
atRp5509
sg1267
g27
((lp5510
I0
atRp5511
sg1268
g27
((lp5512
I0
atRp5513
sg1269
g27
((lp5514
I0
atRp5515
sg1270
g27
((lp5516
I0
atRp5517
sg1271
g27
((lp5518
I0
atRp5519
sg1272
g27
((lp5520
I0
atRp5521
sg1273
g27
((lp5522
I0
atRp5523
sg1274
g27
((lp5524
I0
atRp5525
sg1275
g27
((lp5526
I0
atRp5527
sg1276
g27
((lp5528
I0
atRp5529
sg1277
g27
((lp5530
I0
atRp5531
sg1278
g27
((lp5532
I0
atRp5533
sg1279
g27
((lp5534
I0
atRp5535
sg1280
g27
((lp5536
I0
atRp5537
sg1281
g27
((lp5538
I0
atRp5539
sg1282
g27
((lp5540
I0
atRp5541
sg1283
g27
((lp5542
I0
atRp5543
sg1284
g27
((lp5544
I0
atRp5545
sg1285
g27
((lp5546
I0
atRp5547
sg1286
g27
((lp5548
I0
atRp5549
sg1287
g27
((lp5550
I0
atRp5551
sg1288
g27
((lp5552
I0
atRp5553
sg1289
g27
((lp5554
I0
atRp5555
sg1290
g27
((lp5556
I0
atRp5557
sg1291
g27
((lp5558
I0
atRp5559
sg1292
g27
((lp5560
I0
atRp5561
sg1293
g27
((lp5562
I0
atRp5563
sg1294
g27
((lp5564
I0
atRp5565
sg1295
g27
((lp5566
I0
atRp5567
sg1296
g27
((lp5568
I0
atRp5569
sg1297
g27
((lp5570
I0
atRp5571
sg1298
g27
((lp5572
I0
atRp5573
sg1299
g27
((lp5574
I0
atRp5575
sg1300
g27
((lp5576
I0
atRp5577
sg1301
g27
((lp5578
I0
atRp5579
sS'4'
g27
((lp5580
I0
atRp5581
sg1302
g27
((lp5582
I0
atRp5583
sg1303
g27
((lp5584
I0
atRp5585
sg1304
g27
((lp5586
I0
atRp5587
sg1305
g27
((lp5588
I0
atRp5589
sg1306
g27
((lp5590
I0
atRp5591
sg1307
g27
((lp5592
I0
atRp5593
sg1308
g27
((lp5594
I0
atRp5595
sg1309
g27
((lp5596
I0
atRp5597
sg1310
g27
((lp5598
I0
atRp5599
sg1311
g27
((lp5600
I0
atRp5601
sg1312
g27
((lp5602
I0
atRp5603
sg1313
g27
((lp5604
I0
atRp5605
sg1314
g27
((lp5606
I0
atRp5607
sg1315
g27
((lp5608
I0
atRp5609
sg1316
g27
((lp5610
I0
atRp5611
sg1317
g27
((lp5612
I0
atRp5613
sg1318
g27
((lp5614
I0
atRp5615
sg1319
g27
((lp5616
I0
atRp5617
sg1320
g27
((lp5618
I0
atRp5619
sg1321
g27
((lp5620
I0
atRp5621
sg1322
g27
((lp5622
I0
atRp5623
sg1323
g27
((lp5624
I0
atRp5625
sg1324
g27
((lp5626
I0
atRp5627
sg1325
g27
((lp5628
I0
atRp5629
sg1326
g27
((lp5630
I0
atRp5631
sg1327
g27
((lp5632
I0
atRp5633
sg1328
g27
((lp5634
I0
atRp5635
sg1329
g27
((lp5636
I0
atRp5637
sg1330
g27
((lp5638
I0
atRp5639
sg1331
g27
((lp5640
I0
atRp5641
sg1332
g27
((lp5642
I0
atRp5643
sg1333
g27
((lp5644
I0
atRp5645
sg1334
g27
((lp5646
I0
atRp5647
sg1335
g27
((lp5648
I0
atRp5649
sg1336
g27
((lp5650
I0
atRp5651
sg1337
g27
((lp5652
I0
atRp5653
sg1338
g27
((lp5654
I0
atRp5655
sg1339
g27
((lp5656
I0
atRp5657
sg1340
g27
((lp5658
I0
atRp5659
sg1341
g27
((lp5660
I0
atRp5661
sg1342
g27
((lp5662
I0
atRp5663
sg1343
g27
((lp5664
I0
atRp5665
sg1344
g27
((lp5666
I0
atRp5667
sg1345
g27
((lp5668
I0
atRp5669
sg1346
g27
((lp5670
I0
atRp5671
sg1347
g27
((lp5672
I0
atRp5673
sg1348
g27
((lp5674
I0
atRp5675
sg1349
g27
((lp5676
I0
atRp5677
sg1350
g27
((lp5678
I0
atRp5679
sg1351
g27
((lp5680
I0
atRp5681
sg1352
g27
((lp5682
I0
atRp5683
sg1353
g27
((lp5684
I0
atRp5685
sg1354
g27
((lp5686
I0
atRp5687
sg1355
g27
((lp5688
I0
atRp5689
sg1356
g27
((lp5690
I0
atRp5691
sg1357
g27
((lp5692
I0
atRp5693
sg1358
g27
((lp5694
I0
atRp5695
sg1359
g27
((lp5696
I0
atRp5697
sg1360
g27
((lp5698
I0
atRp5699
sg1361
g27
((lp5700
I0
atRp5701
sg1362
g27
((lp5702
I0
atRp5703
sg1363
g27
((lp5704
I0
atRp5705
sg1364
g27
((lp5706
I0
atRp5707
sg1365
g27
((lp5708
I0
atRp5709
sg1366
g27
((lp5710
I0
atRp5711
sg1367
g27
((lp5712
I0
atRp5713
sg1368
g27
((lp5714
I0
atRp5715
sg1369
g27
((lp5716
I0
atRp5717
sg1370
g27
((lp5718
I0
atRp5719
sg1371
g27
((lp5720
I0
atRp5721
sg1372
g27
((lp5722
I0
atRp5723
sg1373
g27
((lp5724
I0
atRp5725
sg1374
g27
((lp5726
I0
atRp5727
sg1375
g27
((lp5728
I0
atRp5729
sg1376
g27
((lp5730
I0
atRp5731
sg1377
g27
((lp5732
I0
atRp5733
sg1378
g27
((lp5734
I0
atRp5735
sg1379
g27
((lp5736
I0
atRp5737
sg1380
g27
((lp5738
I0
atRp5739
sg1381
g27
((lp5740
I0
atRp5741
sg1382
g27
((lp5742
I0
atRp5743
sg1383
g27
((lp5744
I0
atRp5745
sg1384
g27
((lp5746
I0
atRp5747
sg1385
g27
((lp5748
I0
atRp5749
sg1386
g27
((lp5750
I0
atRp5751
sg1387
g27
((lp5752
I0
atRp5753
sg1388
g27
((lp5754
I0
atRp5755
sg1389
g27
((lp5756
I0
atRp5757
sg1390
g27
((lp5758
I0
atRp5759
sg1391
g27
((lp5760
I0
atRp5761
sg1392
g27
((lp5762
I0
atRp5763
sg1393
g27
((lp5764
I0
atRp5765
sg1394
g27
((lp5766
I0
atRp5767
sg1395
g27
((lp5768
I0
atRp5769
sg1396
g27
((lp5770
I0
atRp5771
sg1397
g27
((lp5772
I0
atRp5773
sg1398
g27
((lp5774
I0
atRp5775
sg1399
g27
((lp5776
I0
atRp5777
sg1400
g27
((lp5778
I0
atRp5779
sg1401
g27
((lp5780
I0
atRp5781
sg1402
g27
((lp5782
I0
atRp5783
sg1403
g27
((lp5784
I0
atRp5785
sg1404
g27
((lp5786
I0
atRp5787
sg1405
g27
((lp5788
I0
atRp5789
sg1406
g27
((lp5790
I0
atRp5791
sg1407
g27
((lp5792
I0
atRp5793
sg1408
g27
((lp5794
I0
atRp5795
sg1409
g27
((lp5796
I0
atRp5797
sg1410
g27
((lp5798
I0
atRp5799
sg1411
g27
((lp5800
I0
atRp5801
sg1412
g27
((lp5802
I0
atRp5803
sg1413
g27
((lp5804
I0
atRp5805
sg1414
g27
((lp5806
I0
atRp5807
sg1415
g27
((lp5808
I0
atRp5809
sg1416
g27
((lp5810
I0
atRp5811
sg1417
g27
((lp5812
I0
atRp5813
sg1418
g27
((lp5814
I0
atRp5815
sg1419
g27
((lp5816
I0
atRp5817
sg1420
g27
((lp5818
I0
atRp5819
sg1421
g27
((lp5820
I0
atRp5821
sg1422
g27
((lp5822
I0
atRp5823
sg1423
g27
((lp5824
I0
atRp5825
sg1424
g27
((lp5826
I0
atRp5827
sg1425
g27
((lp5828
I0
atRp5829
sg1426
g27
((lp5830
I0
atRp5831
sg1427
g27
((lp5832
I0
atRp5833
sg1428
g27
((lp5834
I0
atRp5835
sg1429
g27
((lp5836
I0
atRp5837
sg1430
g27
((lp5838
I0
atRp5839
sg1431
g27
((lp5840
I0
atRp5841
sg1432
g27
((lp5842
I0
atRp5843
sg1433
g27
((lp5844
I0
atRp5845
sg1434
g27
((lp5846
I0
atRp5847
sg1435
g27
((lp5848
I0
atRp5849
sg1436
g27
((lp5850
I0
atRp5851
sg1437
g27
((lp5852
I0
atRp5853
sg1438
g27
((lp5854
I0
atRp5855
sg1439
g27
((lp5856
I0
atRp5857
sg1440
g27
((lp5858
I0
atRp5859
sg1441
g27
((lp5860
I0
atRp5861
sg1442
g27
((lp5862
I0
atRp5863
sg1443
g27
((lp5864
I0
atRp5865
sg1444
g27
((lp5866
I0
atRp5867
sg1445
g27
((lp5868
I0
atRp5869
sg1446
g27
((lp5870
I0
atRp5871
sg1447
g27
((lp5872
I0
atRp5873
sg1448
g27
((lp5874
I0
atRp5875
sg1449
g27
((lp5876
I0
atRp5877
sg1450
g27
((lp5878
I0
atRp5879
sg1451
g27
((lp5880
I0
atRp5881
sg1452
g27
((lp5882
I0
atRp5883
sg1453
g27
((lp5884
I0
atRp5885
sg1454
g27
((lp5886
I0
atRp5887
sg1455
g27
((lp5888
I0
atRp5889
sg1456
g27
((lp5890
I0
atRp5891
sg1457
g27
((lp5892
I0
atRp5893
sg1458
g27
((lp5894
I0
atRp5895
sg1459
g27
((lp5896
I0
atRp5897
sg1460
g27
((lp5898
I0
atRp5899
sg1461
g27
((lp5900
I0
atRp5901
sg1462
g27
((lp5902
I0
atRp5903
sg1463
g27
((lp5904
I0
atRp5905
sg1464
g27
((lp5906
I0
atRp5907
sg1465
g27
((lp5908
I0
atRp5909
sg1466
g27
((lp5910
I0
atRp5911
sg1467
g27
((lp5912
I0
atRp5913
sg1468
g27
((lp5914
I0
atRp5915
sg1469
g27
((lp5916
I0
atRp5917
sg1470
g27
((lp5918
I0
atRp5919
sg1471
g27
((lp5920
I0
atRp5921
sg1472
g27
((lp5922
I0
atRp5923
sg1473
g27
((lp5924
I0
atRp5925
sg1474
g27
((lp5926
I0
atRp5927
sg1475
g27
((lp5928
I0
atRp5929
sg1476
g27
((lp5930
I0
atRp5931
sg1477
g27
((lp5932
I0
atRp5933
sg1478
g27
((lp5934
I0
atRp5935
sg1479
g27
((lp5936
I0
atRp5937
sg1480
g27
((lp5938
I0
atRp5939
sg1481
g27
((lp5940
I0
atRp5941
sg1482
g27
((lp5942
I0
atRp5943
sg1483
g27
((lp5944
I0
atRp5945
sg1484
g27
((lp5946
I0
atRp5947
sg1485
g27
((lp5948
I0
atRp5949
sg1486
g27
((lp5950
I0
atRp5951
sg1487
g27
((lp5952
I0
atRp5953
sg1488
g27
((lp5954
I0
atRp5955
sg1489
g27
((lp5956
I0
atRp5957
sg1490
g27
((lp5958
I0
atRp5959
sg1491
g27
((lp5960
I0
atRp5961
sg1492
g27
((lp5962
I0
atRp5963
sg1493
g27
((lp5964
I0
atRp5965
sg1494
g27
((lp5966
I0
atRp5967
sg1495
g27
((lp5968
I0
atRp5969
sg1496
g27
((lp5970
I0
atRp5971
sg1497
g27
((lp5972
I0
atRp5973
sg1498
g27
((lp5974
I0
atRp5975
sg1499
g27
((lp5976
I0
atRp5977
sg1500
g27
((lp5978
I0
atRp5979
sg1501
g27
((lp5980
I0
atRp5981
sg1502
g27
((lp5982
I0
atRp5983
sg1503
g27
((lp5984
I0
atRp5985
sg1504
g27
((lp5986
I0
atRp5987
sg1505
g27
((lp5988
I0
atRp5989
sg1506
g27
((lp5990
I0
atRp5991
sg1507
g27
((lp5992
I0
atRp5993
sg1508
g27
((lp5994
I0
atRp5995
sg1509
g27
((lp5996
I0
atRp5997
sg1510
g27
((lp5998
I0
atRp5999
sg1511
g27
((lp6000
I0
atRp6001
sg1512
g27
((lp6002
I0
atRp6003
sg1513
g27
((lp6004
I0
atRp6005
sg1514
g27
((lp6006
I0
atRp6007
sg1515
g27
((lp6008
I0
atRp6009
sg1516
g27
((lp6010
I0
atRp6011
sg1517
g27
((lp6012
I0
atRp6013
sg1518
g27
((lp6014
I0
atRp6015
sg1519
g27
((lp6016
I0
atRp6017
sg1520
g27
((lp6018
I0
atRp6019
sg1521
g27
((lp6020
I0
atRp6021
sg1522
g27
((lp6022
I0
atRp6023
sg1523
g27
((lp6024
I0
atRp6025
sg1524
g27
((lp6026
I0
atRp6027
sg1525
g27
((lp6028
I0
atRp6029
sg1526
g27
((lp6030
I0
atRp6031
sg1527
g27
((lp6032
I0
atRp6033
sg1528
g27
((lp6034
I0
atRp6035
sg1529
g27
((lp6036
I0
atRp6037
sg1530
g27
((lp6038
I0
atRp6039
sg1531
g27
((lp6040
I0
atRp6041
sg1532
g27
((lp6042
I0
atRp6043
sg1533
g27
((lp6044
I0
atRp6045
sg1534
g27
((lp6046
I0
atRp6047
sg1535
g27
((lp6048
I0
atRp6049
sg1536
g27
((lp6050
I0
atRp6051
sg1537
g27
((lp6052
I0
atRp6053
sg1538
g27
((lp6054
I0
atRp6055
sg1539
g27
((lp6056
I0
atRp6057
sg1540
g27
((lp6058
I0
atRp6059
sg1541
g27
((lp6060
I0
atRp6061
sg1542
g27
((lp6062
I0
atRp6063
sg1543
g27
((lp6064
I0
atRp6065
sg1544
g27
((lp6066
I0
atRp6067
sg1545
g27
((lp6068
I0
atRp6069
sg1546
g27
((lp6070
I0
atRp6071
sg1547
g27
((lp6072
I0
atRp6073
sg1548
g27
((lp6074
I0
atRp6075
sg1549
g27
((lp6076
I0
atRp6077
sg1550
g27
((lp6078
I0
atRp6079
sg1551
g27
((lp6080
I0
atRp6081
sg1552
g27
((lp6082
I0
atRp6083
sg1553
g27
((lp6084
I0
atRp6085
sg1554
g27
((lp6086
I0
atRp6087
sg1555
g27
((lp6088
I0
atRp6089
sg1556
g27
((lp6090
I0
atRp6091
sg1557
g27
((lp6092
I0
atRp6093
sg1558
g27
((lp6094
I0
atRp6095
sg1559
g27
((lp6096
I0
atRp6097
sg1560
g27
((lp6098
I0
atRp6099
sg1561
g27
((lp6100
I0
atRp6101
sg1562
g27
((lp6102
I0
atRp6103
sg1563
g27
((lp6104
I0
atRp6105
sg1564
g27
((lp6106
I0
atRp6107
sg1565
g27
((lp6108
I0
atRp6109
sg1566
g27
((lp6110
I0
atRp6111
sg1567
g27
((lp6112
I0
atRp6113
sg1568
g27
((lp6114
I0
atRp6115
sg1569
g27
((lp6116
I0
atRp6117
sg1570
g27
((lp6118
I0
atRp6119
sg1571
g27
((lp6120
I0
atRp6121
sg1572
g27
((lp6122
I0
atRp6123
sg1573
g27
((lp6124
I0
atRp6125
sg1574
g27
((lp6126
I0
atRp6127
sg1575
g27
((lp6128
I0
atRp6129
sg1576
g27
((lp6130
I0
atRp6131
sg1577
g27
((lp6132
I0
atRp6133
sg1578
g27
((lp6134
I0
atRp6135
sg1579
g27
((lp6136
I0
atRp6137
sg1580
g27
((lp6138
I0
atRp6139
sg1581
g27
((lp6140
I0
atRp6141
sg1582
g27
((lp6142
I0
atRp6143
sg1583
g27
((lp6144
I0
atRp6145
sg1584
g27
((lp6146
I0
atRp6147
sg1585
g27
((lp6148
I0
atRp6149
sg1586
g27
((lp6150
I0
atRp6151
sg1587
g27
((lp6152
I0
atRp6153
sg1588
g27
((lp6154
I0
atRp6155
sg1589
g27
((lp6156
I0
atRp6157
sg1590
g27
((lp6158
I0
atRp6159
sg1591
g27
((lp6160
I0
atRp6161
sg1592
g27
((lp6162
I0
atRp6163
sg1593
g27
((lp6164
I0
atRp6165
sg1594
g27
((lp6166
I0
atRp6167
sg1595
g27
((lp6168
I0
atRp6169
sg1596
g27
((lp6170
I0
atRp6171
sg1597
g27
((lp6172
I0
atRp6173
sS'6'
g27
((lp6174
I0
atRp6175
sg1598
g27
((lp6176
I0
atRp6177
sg1599
g27
((lp6178
I0
atRp6179
sg1600
g27
((lp6180
I0
atRp6181
sg1601
g27
((lp6182
I0
atRp6183
sg1602
g27
((lp6184
I0
atRp6185
sg1603
g27
((lp6186
I0
atRp6187
sg1604
g27
((lp6188
I0
atRp6189
sg1605
g27
((lp6190
I0
atRp6191
sg1606
g27
((lp6192
I0
atRp6193
sg1607
g27
((lp6194
I0
atRp6195
sg1608
g27
((lp6196
I0
atRp6197
sg1609
g27
((lp6198
I0
atRp6199
sg1610
g27
((lp6200
I0
atRp6201
sg1611
g27
((lp6202
I0
atRp6203
sg1612
g27
((lp6204
I0
atRp6205
sg1613
g27
((lp6206
I0
atRp6207
sg1614
g27
((lp6208
I0
atRp6209
sg1615
g27
((lp6210
I0
atRp6211
sg1616
g27
((lp6212
I0
atRp6213
sg1617
g27
((lp6214
I0
atRp6215
sg1618
g27
((lp6216
I0
atRp6217
sg1619
g27
((lp6218
I0
atRp6219
sg1620
g27
((lp6220
I0
atRp6221
sg1621
g27
((lp6222
I0
atRp6223
sg1622
g27
((lp6224
I0
atRp6225
sg1623
g27
((lp6226
I0
atRp6227
sg1624
g27
((lp6228
I0
atRp6229
sg1625
g27
((lp6230
I0
atRp6231
sg1626
g27
((lp6232
I0
atRp6233
sg1627
g27
((lp6234
I0
atRp6235
sg1628
g27
((lp6236
I0
atRp6237
sg1629
g27
((lp6238
I0
atRp6239
sg1630
g27
((lp6240
I0
atRp6241
sg1631
g27
((lp6242
I0
atRp6243
sg1632
g27
((lp6244
I0
atRp6245
sg1633
g27
((lp6246
I0
atRp6247
sg1634
g27
((lp6248
I0
atRp6249
sg1635
g27
((lp6250
I0
atRp6251
sg1636
g27
((lp6252
I0
atRp6253
sg1637
g27
((lp6254
I0
atRp6255
sg1638
g27
((lp6256
I0
atRp6257
sg1639
g27
((lp6258
I0
atRp6259
sg1640
g27
((lp6260
I0
atRp6261
sg1641
g27
((lp6262
I0
atRp6263
sg1642
g27
((lp6264
I0
atRp6265
sg1643
g27
((lp6266
I0
atRp6267
sg1644
g27
((lp6268
I0
atRp6269
sg1645
g27
((lp6270
I0
atRp6271
sg1646
g27
((lp6272
I0
atRp6273
sg1647
g27
((lp6274
I0
atRp6275
sg1648
g27
((lp6276
I0
atRp6277
sg1649
g27
((lp6278
I0
atRp6279
sg1650
g27
((lp6280
I0
atRp6281
sg1651
g27
((lp6282
I0
atRp6283
sg1652
g27
((lp6284
I0
atRp6285
sg1653
g27
((lp6286
I0
atRp6287
sg1654
g27
((lp6288
I0
atRp6289
sg1655
g27
((lp6290
I0
atRp6291
sg1656
g27
((lp6292
I0
atRp6293
sg1657
g27
((lp6294
I0
atRp6295
sg1658
g27
((lp6296
I0
atRp6297
sg1659
g27
((lp6298
I0
atRp6299
sg1660
g27
((lp6300
I0
atRp6301
sg1661
g27
((lp6302
I0
atRp6303
sg1662
g27
((lp6304
I0
atRp6305
sg1663
g27
((lp6306
I0
atRp6307
sg1664
g27
((lp6308
I0
atRp6309
sg1665
g27
((lp6310
I0
atRp6311
sg1666
g27
((lp6312
I0
atRp6313
sg1667
g27
((lp6314
I0
atRp6315
sg1668
g27
((lp6316
I0
atRp6317
sg1669
g27
((lp6318
I0
atRp6319
sg1670
g27
((lp6320
I0
atRp6321
sg1671
g27
((lp6322
I0
atRp6323
sg1672
g27
((lp6324
I0
atRp6325
sg1673
g27
((lp6326
I0
atRp6327
sg1674
g27
((lp6328
I0
atRp6329
sg1675
g27
((lp6330
I0
atRp6331
sg1676
g27
((lp6332
I0
atRp6333
sg1677
g27
((lp6334
I0
atRp6335
sg1678
g27
((lp6336
I0
atRp6337
sg1679
g27
((lp6338
I0
atRp6339
sg1680
g27
((lp6340
I0
atRp6341
sg1681
g27
((lp6342
I0
atRp6343
sg1682
g27
((lp6344
I0
atRp6345
sg1683
g27
((lp6346
I0
atRp6347
sg1684
g27
((lp6348
I0
atRp6349
sg1685
g27
((lp6350
I0
atRp6351
sg1686
g27
((lp6352
I0
atRp6353
sg1687
g27
((lp6354
I0
atRp6355
sg1688
g27
((lp6356
I0
atRp6357
sg1689
g27
((lp6358
I0
atRp6359
sg1690
g27
((lp6360
I0
atRp6361
sg1691
g27
((lp6362
I0
atRp6363
sg1692
g27
((lp6364
I0
atRp6365
sg1693
g27
((lp6366
I0
atRp6367
sg1694
g27
((lp6368
I0
atRp6369
sg1695
g27
((lp6370
I0
atRp6371
sg1696
g27
((lp6372
I0
atRp6373
sg1697
g27
((lp6374
I0
atRp6375
sg1698
g27
((lp6376
I0
atRp6377
sg1699
g27
((lp6378
I0
atRp6379
sg1700
g27
((lp6380
I0
atRp6381
sS'7'
g27
((lp6382
I0
atRp6383
sg1701
g27
((lp6384
I0
atRp6385
sg1702
g27
((lp6386
I0
atRp6387
sg1703
g27
((lp6388
I0
atRp6389
sg1704
g27
((lp6390
I0
atRp6391
sg1705
g27
((lp6392
I0
atRp6393
sg1706
g27
((lp6394
I0
atRp6395
sg1707
g27
((lp6396
I0
atRp6397
sg1708
g27
((lp6398
I0
atRp6399
sg1709
g27
((lp6400
I0
atRp6401
sg1710
g27
((lp6402
I0
atRp6403
sg1711
g27
((lp6404
I0
atRp6405
sg1712
g27
((lp6406
I0
atRp6407
sg1713
g27
((lp6408
I0
atRp6409
sg1714
g27
((lp6410
I0
atRp6411
sg1715
g27
((lp6412
I0
atRp6413
sg1716
g27
((lp6414
I0
atRp6415
sg1717
g27
((lp6416
I0
atRp6417
sg1718
g27
((lp6418
I0
atRp6419
sg1719
g27
((lp6420
I0
atRp6421
sg1720
g27
((lp6422
I0
atRp6423
sg1721
g27
((lp6424
I0
atRp6425
sg1722
g27
((lp6426
I0
atRp6427
sg1723
g27
((lp6428
I0
atRp6429
sg1724
g27
((lp6430
I0
atRp6431
sg1725
g27
((lp6432
I0
atRp6433
sg1726
g27
((lp6434
I0
atRp6435
sg1727
g27
((lp6436
I0
atRp6437
sg1728
g27
((lp6438
I0
atRp6439
sg1729
g27
((lp6440
I0
atRp6441
sg1730
g27
((lp6442
I0
atRp6443
sg1731
g27
((lp6444
I0
atRp6445
sg1732
g27
((lp6446
I0
atRp6447
sg1733
g27
((lp6448
I0
atRp6449
sg1734
g27
((lp6450
I0
atRp6451
sg1735
g27
((lp6452
I0
atRp6453
sg1736
g27
((lp6454
I0
atRp6455
sg1737
g27
((lp6456
I0
atRp6457
sg1738
g27
((lp6458
I0
atRp6459
sg1739
g27
((lp6460
I0
atRp6461
sg1740
g27
((lp6462
I0
atRp6463
sg1741
g27
((lp6464
I0
atRp6465
sg1742
g27
((lp6466
I0
atRp6467
sg1743
g27
((lp6468
I0
atRp6469
sg1744
g27
((lp6470
I0
atRp6471
sg1745
g27
((lp6472
I0
atRp6473
sg1746
g27
((lp6474
I0
atRp6475
sg1747
g27
((lp6476
I0
atRp6477
sg1748
g27
((lp6478
I0
atRp6479
sg1749
g27
((lp6480
I0
atRp6481
sg1750
g27
((lp6482
I0
atRp6483
sg1751
g27
((lp6484
I0
atRp6485
sg1752
g27
((lp6486
I0
atRp6487
sg1753
g27
((lp6488
I0
atRp6489
sg1754
g27
((lp6490
I0
atRp6491
sg1755
g27
((lp6492
I0
atRp6493
sg1756
g27
((lp6494
I0
atRp6495
sg1757
g27
((lp6496
I0
atRp6497
sg1758
g27
((lp6498
I0
atRp6499
sg1759
g27
((lp6500
I0
atRp6501
sg1760
g27
((lp6502
I0
atRp6503
sg1761
g27
((lp6504
I0
atRp6505
sg1762
g27
((lp6506
I0
atRp6507
sg1763
g27
((lp6508
I0
atRp6509
sg1764
g27
((lp6510
I0
atRp6511
sg1765
g27
((lp6512
I0
atRp6513
sg1766
g27
((lp6514
I0
atRp6515
sg1767
g27
((lp6516
I0
atRp6517
sg1768
g27
((lp6518
I0
atRp6519
sg1769
g27
((lp6520
I0
atRp6521
sg1770
g27
((lp6522
I0
atRp6523
sg1771
g27
((lp6524
I0
atRp6525
sg1772
g27
((lp6526
I0
atRp6527
sg1773
g27
((lp6528
I0
atRp6529
sg1774
g27
((lp6530
I0
atRp6531
sg1775
g27
((lp6532
I0
atRp6533
sg1776
g27
((lp6534
I0
atRp6535
sg1777
g27
((lp6536
I0
atRp6537
sg1778
g27
((lp6538
I0
atRp6539
sg1779
g27
((lp6540
I0
atRp6541
sg1780
g27
((lp6542
I0
atRp6543
sg1781
g27
((lp6544
I0
atRp6545
sg1782
g27
((lp6546
I0
atRp6547
sg1783
g27
((lp6548
I0
atRp6549
sg1784
g27
((lp6550
I0
atRp6551
sg1785
g27
((lp6552
I0
atRp6553
sg1786
g27
((lp6554
I0
atRp6555
sg1787
g27
((lp6556
I0
atRp6557
sg1788
g27
((lp6558
I0
atRp6559
sg1789
g27
((lp6560
I0
atRp6561
sg1790
g27
((lp6562
I0
atRp6563
sg1791
g27
((lp6564
I0
atRp6565
sg1792
g27
((lp6566
I0
atRp6567
sg1793
g27
((lp6568
I0
atRp6569
sg1794
g27
((lp6570
I0
atRp6571
sg1795
g27
((lp6572
I0
atRp6573
sg1796
g27
((lp6574
I0
atRp6575
sg1797
g27
((lp6576
I0
atRp6577
sg1798
g27
((lp6578
I0
atRp6579
sg1799
g27
((lp6580
I0
atRp6581
sg1800
g27
((lp6582
I0
atRp6583
sg1801
g27
((lp6584
I0
atRp6585
sg1802
g27
((lp6586
I0
atRp6587
sg1803
g27
((lp6588
I0
atRp6589
sg1804
g27
((lp6590
I0
atRp6591
sg1805
g27
((lp6592
I0
atRp6593
sg1806
g27
((lp6594
I0
atRp6595
sg1807
g27
((lp6596
I0
atRp6597
sg1808
g27
((lp6598
I0
atRp6599
sg1809
g27
((lp6600
I0
atRp6601
sg1810
g27
((lp6602
I0
atRp6603
sg1811
g27
((lp6604
I0
atRp6605
sg1812
g27
((lp6606
I0
atRp6607
sg1813
g27
((lp6608
I0
atRp6609
sg1814
g27
((lp6610
I0
atRp6611
sg1815
g27
((lp6612
I0
atRp6613
sg1816
g27
((lp6614
I0
atRp6615
sg1817
g27
((lp6616
I0
atRp6617
sg1818
g27
((lp6618
I0
atRp6619
sg1819
g27
((lp6620
I0
atRp6621
sg1820
g27
((lp6622
I0
atRp6623
sg1821
g27
((lp6624
I0
atRp6625
sg1822
g27
((lp6626
I0
atRp6627
sg1823
g27
((lp6628
I0
atRp6629
sg1824
g27
((lp6630
I0
atRp6631
sg1825
g27
((lp6632
I0
atRp6633
sg1826
g27
((lp6634
I0
atRp6635
sg1827
g27
((lp6636
I0
atRp6637
sg1828
g27
((lp6638
I0
atRp6639
sg1829
g27
((lp6640
I0
atRp6641
sg1830
g27
((lp6642
I0
atRp6643
sg1831
g27
((lp6644
I0
atRp6645
sg1832
g27
((lp6646
I0
atRp6647
sg1833
g27
((lp6648
I0
atRp6649
sg1834
g27
((lp6650
I0
atRp6651
sg1835
g27
((lp6652
I0
atRp6653
sg1836
g27
((lp6654
I0
atRp6655
sg1837
g27
((lp6656
I0
atRp6657
sg1838
g27
((lp6658
I0
atRp6659
sg1839
g27
((lp6660
I0
atRp6661
sg1840
g27
((lp6662
I0
atRp6663
sg1841
g27
((lp6664
I0
atRp6665
sg1842
g27
((lp6666
I0
atRp6667
sg1843
g27
((lp6668
I0
atRp6669
sg1844
g27
((lp6670
I0
atRp6671
sg1845
g27
((lp6672
I0
atRp6673
sg1846
g27
((lp6674
I0
atRp6675
sg1847
g27
((lp6676
I0
atRp6677
sg1848
g27
((lp6678
I0
atRp6679
sg1849
g27
((lp6680
I0
atRp6681
sg1850
g27
((lp6682
I0
atRp6683
sg1851
g27
((lp6684
I0
atRp6685
sg1852
g27
((lp6686
I0
atRp6687
sg1853
g27
((lp6688
I0
atRp6689
sg1854
g27
((lp6690
I0
atRp6691
sg1855
g27
((lp6692
I0
atRp6693
sg1856
g27
((lp6694
I0
atRp6695
sg1857
g27
((lp6696
I0
atRp6697
sg1858
g27
((lp6698
I0
atRp6699
sg1859
g27
((lp6700
I0
atRp6701
sg1860
g27
((lp6702
I0
atRp6703
sg1861
g27
((lp6704
I0
atRp6705
sg1862
g27
((lp6706
I0
atRp6707
sg1863
g27
((lp6708
I0
atRp6709
sg1864
g27
((lp6710
I0
atRp6711
sg1865
g27
((lp6712
I0
atRp6713
sg1866
g27
((lp6714
I0
atRp6715
sg1867
g27
((lp6716
I0
atRp6717
sg1868
g27
((lp6718
I0
atRp6719
sg1869
g27
((lp6720
I0
atRp6721
sg1870
g27
((lp6722
I0
atRp6723
sg1871
g27
((lp6724
I0
atRp6725
sg1872
g27
((lp6726
I0
atRp6727
sg1873
g27
((lp6728
I0
atRp6729
sg1874
g27
((lp6730
I0
atRp6731
sg1875
g27
((lp6732
I0
atRp6733
sg1876
g27
((lp6734
I0
atRp6735
sg1877
g27
((lp6736
I0
atRp6737
sg1878
g27
((lp6738
I0
atRp6739
sg1879
g27
((lp6740
I0
atRp6741
sg1880
g27
((lp6742
I0
atRp6743
sg1881
g27
((lp6744
I0
atRp6745
sg1882
g27
((lp6746
I0
atRp6747
sg1883
g27
((lp6748
I0
atRp6749
sg1884
g27
((lp6750
I0
atRp6751
sg1885
g27
((lp6752
I0
atRp6753
sg1886
g27
((lp6754
I0
atRp6755
sg1887
g27
((lp6756
I0
atRp6757
sg1888
g27
((lp6758
I0
atRp6759
sg1889
g27
((lp6760
I0
atRp6761
sg1890
g27
((lp6762
I0
atRp6763
sg1891
g27
((lp6764
I0
atRp6765
sg1892
g27
((lp6766
I0
atRp6767
sg1893
g27
((lp6768
I0
atRp6769
sg1894
g27
((lp6770
I0
atRp6771
sg1895
g27
((lp6772
I0
atRp6773
sg1896
g27
((lp6774
I0
atRp6775
sg1897
g27
((lp6776
I0
atRp6777
sg1898
g27
((lp6778
I0
atRp6779
sg1899
g27
((lp6780
I0
atRp6781
sg1900
g27
((lp6782
I0
atRp6783
sg1901
g27
((lp6784
I0
atRp6785
sg1902
g27
((lp6786
I0
atRp6787
sg1903
g27
((lp6788
I0
atRp6789
sg1904
g27
((lp6790
I0
atRp6791
sg1905
g27
((lp6792
I0
atRp6793
sg1906
g27
((lp6794
I0
atRp6795
sg1907
g27
((lp6796
I0
atRp6797
sg1908
g27
((lp6798
I0
atRp6799
sg1909
g27
((lp6800
I0
atRp6801
sg1910
g27
((lp6802
I0
atRp6803
sg1911
g27
((lp6804
I0
atRp6805
sg1912
g27
((lp6806
I0
atRp6807
sg1913
g27
((lp6808
I0
atRp6809
sg1914
g27
((lp6810
I0
atRp6811
sg1915
g27
((lp6812
I0
atRp6813
sg1916
g27
((lp6814
I0
atRp6815
sg1917
g27
((lp6816
I0
atRp6817
sg1918
g27
((lp6818
I0
atRp6819
sg1919
g27
((lp6820
I0
atRp6821
sg1920
g27
((lp6822
I0
atRp6823
sg1921
g27
((lp6824
I0
atRp6825
sg1922
g27
((lp6826
I0
atRp6827
sg1923
g27
((lp6828
I0
atRp6829
sg1924
g27
((lp6830
I0
atRp6831
sg1925
g27
((lp6832
I0
atRp6833
sg1926
g27
((lp6834
I0
atRp6835
sg1927
g27
((lp6836
I0
atRp6837
sg1928
g27
((lp6838
I0
atRp6839
sg1929
g27
((lp6840
I0
atRp6841
sg1930
g27
((lp6842
I0
atRp6843
sg1931
g27
((lp6844
I0
atRp6845
sg1932
g27
((lp6846
I0
atRp6847
sg1933
g27
((lp6848
I0
atRp6849
sg1934
g27
((lp6850
I0
atRp6851
sg1935
g27
((lp6852
I0
atRp6853
sg1936
g27
((lp6854
I0
atRp6855
sg1937
g27
((lp6856
I0
atRp6857
sg1938
g27
((lp6858
I0
atRp6859
sg1939
g27
((lp6860
I0
atRp6861
sg1940
g27
((lp6862
I0
atRp6863
sg1941
g27
((lp6864
I0
atRp6865
sg1942
g27
((lp6866
I0
atRp6867
sg1943
g27
((lp6868
I0
atRp6869
sg1944
g27
((lp6870
I0
atRp6871
sg1945
g27
((lp6872
I0
atRp6873
sg1946
g27
((lp6874
I0
atRp6875
sg1947
g27
((lp6876
I0
atRp6877
sg1948
g27
((lp6878
I0
atRp6879
sg1949
g27
((lp6880
I0
atRp6881
sg1950
g27
((lp6882
I0
atRp6883
sg1951
g27
((lp6884
I0
atRp6885
sg1952
g27
((lp6886
I0
atRp6887
sg1953
g27
((lp6888
I0
atRp6889
sg1954
g27
((lp6890
I0
atRp6891
sg1955
g27
((lp6892
I0
atRp6893
sg1956
g27
((lp6894
I0
atRp6895
sg1957
g27
((lp6896
I0
atRp6897
sg1958
g27
((lp6898
I0
atRp6899
sg1959
g27
((lp6900
I0
atRp6901
sg1960
g27
((lp6902
I0
atRp6903
sg1961
g27
((lp6904
I0
atRp6905
sg1962
g27
((lp6906
I0
atRp6907
sg1963
g27
((lp6908
I0
atRp6909
sg1964
g27
((lp6910
I0
atRp6911
sg1965
g27
((lp6912
I0
atRp6913
sg1966
g27
((lp6914
I0
atRp6915
sg1967
g27
((lp6916
I0
atRp6917
sg1968
g27
((lp6918
I0
atRp6919
sg1969
g27
((lp6920
I0
atRp6921
sg1970
g27
((lp6922
I0
atRp6923
sg1971
g27
((lp6924
I0
atRp6925
sg1972
g27
((lp6926
I0
atRp6927
sg1973
g27
((lp6928
I0
atRp6929
sg1974
g27
((lp6930
I0
atRp6931
sg1975
g27
((lp6932
I0
atRp6933
sg1976
g27
((lp6934
I0
atRp6935
sg1977
g27
((lp6936
I0
atRp6937
sg1978
g27
((lp6938
I0
atRp6939
sg1979
g27
((lp6940
I0
atRp6941
sg1980
g27
((lp6942
I0
atRp6943
sg1981
g27
((lp6944
I0
atRp6945
sg1982
g27
((lp6946
I0
atRp6947
sg1983
g27
((lp6948
I0
atRp6949
sg1984
g27
((lp6950
I0
atRp6951
sg1985
g27
((lp6952
I0
atRp6953
sg1986
g27
((lp6954
I0
atRp6955
sg1987
g27
((lp6956
I0
atRp6957
sg1988
g27
((lp6958
I0
atRp6959
sg1989
g27
((lp6960
I0
atRp6961
sg1990
g27
((lp6962
I0
atRp6963
sg1991
g27
((lp6964
I0
atRp6965
sg1992
g27
((lp6966
I0
atRp6967
sg1993
g27
((lp6968
I0
atRp6969
sg1994
g27
((lp6970
I0
atRp6971
sg1995
g27
((lp6972
I0
atRp6973
sg1996
g27
((lp6974
I0
atRp6975
sg1997
g27
((lp6976
I0
atRp6977
sg1998
g27
((lp6978
I0
atRp6979
sg1999
g27
((lp6980
I0
atRp6981
sg2000
g27
((lp6982
I0
atRp6983
sg2001
g27
((lp6984
I0
atRp6985
sg2002
g27
((lp6986
I0
atRp6987
sg2003
g27
((lp6988
I0
atRp6989
sg2004
g27
((lp6990
I0
atRp6991
sg2005
g27
((lp6992
I0
atRp6993
sg2006
g27
((lp6994
I0
atRp6995
sg2007
g27
((lp6996
I0
atRp6997
sg2008
g27
((lp6998
I0
atRp6999
sg2009
g27
((lp7000
I0
atRp7001
sg2010
g27
((lp7002
I0
atRp7003
sg2011
g27
((lp7004
I0
atRp7005
sg2012
g27
((lp7006
I0
atRp7007
sg2013
g27
((lp7008
I0
atRp7009
sg2014
g27
((lp7010
I0
atRp7011
sg2015
g27
((lp7012
I0
atRp7013
sg2016
g27
((lp7014
I0
atRp7015
sg2017
g27
((lp7016
I0
atRp7017
sg2018
g27
((lp7018
I0
atRp7019
sg2019
g27
((lp7020
I0
atRp7021
sg2020
g27
((lp7022
I0
atRp7023
sg2021
g27
((lp7024
I0
atRp7025
sg2022
g27
((lp7026
I0
atRp7027
sg2023
g27
((lp7028
I0
atRp7029
sg2024
g27
((lp7030
I0
atRp7031
sg2025
g27
((lp7032
I0
atRp7033
sg2026
g27
((lp7034
I0
atRp7035
sg2027
g27
((lp7036
I0
atRp7037
sg2028
g27
((lp7038
I0
atRp7039
sg2029
g27
((lp7040
I0
atRp7041
sg2030
g27
((lp7042
I0
atRp7043
sg2031
g27
((lp7044
I0
atRp7045
sg2032
g27
((lp7046
I0
atRp7047
sg2033
g27
((lp7048
I0
atRp7049
sg2034
g27
((lp7050
I0
atRp7051
sg2035
g27
((lp7052
I0
atRp7053
sg2036
g27
((lp7054
I0
atRp7055
sg2037
g27
((lp7056
I0
atRp7057
sg2038
g27
((lp7058
I0
atRp7059
sg2039
g27
((lp7060
I0
atRp7061
sg2040
g27
((lp7062
I0
atRp7063
sg2041
g27
((lp7064
I0
atRp7065
sg2042
g27
((lp7066
I0
atRp7067
sg2043
g27
((lp7068
I0
atRp7069
sg2044
g27
((lp7070
I0
atRp7071
sg2045
g27
((lp7072
I0
atRp7073
sg2046
g27
((lp7074
I0
atRp7075
sg2047
g27
((lp7076
I0
atRp7077
sg2048
g27
((lp7078
I0
atRp7079
sg2049
g27
((lp7080
I0
atRp7081
sS'9'
g27
((lp7082
I0
atRp7083
sg2050
g27
((lp7084
I0
atRp7085
sg2051
g27
((lp7086
I0
atRp7087
sg2052
g27
((lp7088
I0
atRp7089
sg2053
g27
((lp7090
I0
atRp7091
sg2054
g27
((lp7092
I0
atRp7093
sg2055
g27
((lp7094
I0
atRp7095
sg2056
g27
((lp7096
I0
atRp7097
sg2057
g27
((lp7098
I0
atRp7099
sg2058
g27
((lp7100
I0
atRp7101
sg2059
g27
((lp7102
I0
atRp7103
sg2060
g27
((lp7104
I0
atRp7105
sg2061
g27
((lp7106
I0
atRp7107
sg2062
g27
((lp7108
I0
atRp7109
sg2063
g27
((lp7110
I0
atRp7111
sg2064
g27
((lp7112
I0
atRp7113
sg2065
g27
((lp7114
I0
atRp7115
sg2066
g27
((lp7116
I0
atRp7117
sg2067
g27
((lp7118
I0
atRp7119
sg2068
g27
((lp7120
I0
atRp7121
sg2069
g27
((lp7122
I0
atRp7123
sg2070
g27
((lp7124
I0
atRp7125
sg2071
g27
((lp7126
I0
atRp7127
sg2072
g27
((lp7128
I0
atRp7129
sg2073
g27
((lp7130
I0
atRp7131
sg2074
g27
((lp7132
I0
atRp7133
sg2075
g27
((lp7134
I0
atRp7135
sg2076
g27
((lp7136
I0
atRp7137
sg2077
g27
((lp7138
I0
atRp7139
sg2078
g27
((lp7140
I0
atRp7141
sg2079
g27
((lp7142
I0
atRp7143
sg2080
g27
((lp7144
I0
atRp7145
sg2081
g27
((lp7146
I0
atRp7147
sg2082
g27
((lp7148
I0
atRp7149
sg2083
g27
((lp7150
I0
atRp7151
sg2084
g27
((lp7152
I0
atRp7153
sg2085
g27
((lp7154
I0
atRp7155
sg2086
g27
((lp7156
I0
atRp7157
sg2087
g27
((lp7158
I0
atRp7159
sg2088
g27
((lp7160
I0
atRp7161
sg2089
g27
((lp7162
I0
atRp7163
sg2090
g27
((lp7164
I0
atRp7165
sg2091
g27
((lp7166
I0
atRp7167
sg2092
g27
((lp7168
I0
atRp7169
sg2093
g27
((lp7170
I0
atRp7171
sg2094
g27
((lp7172
I0
atRp7173
sg2095
g27
((lp7174
I0
atRp7175
sg2096
g27
((lp7176
I0
atRp7177
sg2097
g27
((lp7178
I0
atRp7179
sg2098
g27
((lp7180
I0
atRp7181
sg2099
g27
((lp7182
I0
atRp7183
sg2100
g27
((lp7184
I0
atRp7185
sg2101
g27
((lp7186
I0
atRp7187
sg2102
g27
((lp7188
I0
atRp7189
sg2103
g27
((lp7190
I0
atRp7191
sg2104
g27
((lp7192
I0
atRp7193
sg2105
g27
((lp7194
I0
atRp7195
sg2106
g27
((lp7196
I0
atRp7197
sg2107
g27
((lp7198
I0
atRp7199
sg2108
g27
((lp7200
I0
atRp7201
sg2109
g27
((lp7202
I0
atRp7203
sg2110
g27
((lp7204
I0
atRp7205
sg2111
g27
((lp7206
I0
atRp7207
sg2112
g27
((lp7208
I0
atRp7209
sg2113
g27
((lp7210
I0
atRp7211
sg2114
g27
((lp7212
I0
atRp7213
sg2115
g27
((lp7214
I0
atRp7215
sg2116
g27
((lp7216
I0
atRp7217
sg2117
g27
((lp7218
I0
atRp7219
sg2118
g27
((lp7220
I0
atRp7221
sg2119
g27
((lp7222
I0
atRp7223
sg2120
g27
((lp7224
I0
atRp7225
sg2121
g27
((lp7226
I0
atRp7227
sg2122
g27
((lp7228
I0
atRp7229
sg2123
g27
((lp7230
I0
atRp7231
sg2124
g27
((lp7232
I0
atRp7233
sg2125
g27
((lp7234
I0
atRp7235
sg2126
g27
((lp7236
I0
atRp7237
sg2127
g27
((lp7238
I0
atRp7239
sg2128
g27
((lp7240
I0
atRp7241
sg2129
g27
((lp7242
I0
atRp7243
sg2130
g27
((lp7244
I0
atRp7245
sg2131
g27
((lp7246
I0
atRp7247
sg2132
g27
((lp7248
I0
atRp7249
sg2133
g27
((lp7250
I0
atRp7251
sg2134
g27
((lp7252
I0
atRp7253
sg2135
g27
((lp7254
I0
atRp7255
sg2136
g27
((lp7256
I0
atRp7257
sg2137
g27
((lp7258
I0
atRp7259
sg2138
g27
((lp7260
I0
atRp7261
sg2139
g27
((lp7262
I0
atRp7263
sg2140
g27
((lp7264
I0
atRp7265
sg2141
g27
((lp7266
I0
atRp7267
sg2142
g27
((lp7268
I0
atRp7269
sg2143
g27
((lp7270
I0
atRp7271
sg2144
g27
((lp7272
I0
atRp7273
sg2145
g27
((lp7274
I0
atRp7275
sg2146
g27
((lp7276
I0
atRp7277
sg2147
g27
((lp7278
I0
atRp7279
sg2148
g27
((lp7280
I0
atRp7281
sg2149
g27
((lp7282
I0
atRp7283
sg2150
g27
((lp7284
I0
atRp7285
sg2151
g27
((lp7286
I0
atRp7287
sg2152
g27
((lp7288
I0
atRp7289
sg2153
g27
((lp7290
I0
atRp7291
sg2154
g27
((lp7292
I0
atRp7293
sg2155
g27
((lp7294
I0
atRp7295
sg2156
g27
((lp7296
I0
atRp7297
sg2157
g27
((lp7298
I0
atRp7299
sg2158
g27
((lp7300
I0
atRp7301
sg2159
g27
((lp7302
I0
atRp7303
sg2160
g27
((lp7304
I0
atRp7305
sg2161
g27
((lp7306
I0
atRp7307
sg2162
g27
((lp7308
I0
atRp7309
sg2163
g27
((lp7310
I0
atRp7311
sg2164
g27
((lp7312
I0
atRp7313
sg2165
g27
((lp7314
I0
atRp7315
sg2166
g27
((lp7316
I0
atRp7317
sg2167
g27
((lp7318
I0
atRp7319
sg2168
g27
((lp7320
I0
atRp7321
sg2169
g27
((lp7322
I0
atRp7323
sg2170
g27
((lp7324
I0
atRp7325
sg2171
g27
((lp7326
I0
atRp7327
sg2172
g27
((lp7328
I0
atRp7329
sg2173
g27
((lp7330
I0
atRp7331
sg2174
g27
((lp7332
I0
atRp7333
sg2175
g27
((lp7334
I0
atRp7335
sg2176
g27
((lp7336
I0
atRp7337
sg2177
g27
((lp7338
I0
atRp7339
sg2178
g27
((lp7340
I0
atRp7341
sg2179
g27
((lp7342
I0
atRp7343
sg2180
g27
((lp7344
I0
atRp7345
sg2181
g27
((lp7346
I0
atRp7347
sg2182
g27
((lp7348
I0
atRp7349
sg2183
g27
((lp7350
I0
atRp7351
sg2184
g27
((lp7352
I0
atRp7353
sg2185
g27
((lp7354
I0
atRp7355
sg2186
g27
((lp7356
I0
atRp7357
sg2187
g27
((lp7358
I0
atRp7359
sg2188
g27
((lp7360
I0
atRp7361
sg2189
g27
((lp7362
I0
atRp7363
sg2190
g27
((lp7364
I0
atRp7365
sg2191
g27
((lp7366
I0
atRp7367
sg2192
g27
((lp7368
I0
atRp7369
sg2193
g27
((lp7370
I0
atRp7371
sg2194
g27
((lp7372
I0
atRp7373
sg2195
g27
((lp7374
I0
atRp7375
sg2196
g27
((lp7376
I0
atRp7377
sg2197
g27
((lp7378
I0
atRp7379
sg2198
g27
((lp7380
I0
atRp7381
sg2199
g27
((lp7382
I0
atRp7383
sg2200
g27
((lp7384
I0
atRp7385
sg2201
g27
((lp7386
I0
atRp7387
sg2202
g27
((lp7388
I0
atRp7389
sg2203
g27
((lp7390
I0
atRp7391
sg2204
g27
((lp7392
I0
atRp7393
sg2205
g27
((lp7394
I0
atRp7395
sg2206
g27
((lp7396
I0
atRp7397
sg2207
g27
((lp7398
I0
atRp7399
sg2208
g27
((lp7400
I0
atRp7401
sg2209
g27
((lp7402
I0
atRp7403
sg2210
g27
((lp7404
I0
atRp7405
sg2211
g27
((lp7406
I0
atRp7407
sg2212
g27
((lp7408
I0
atRp7409
sg2213
g27
((lp7410
I0
atRp7411
sg2214
g27
((lp7412
I0
atRp7413
sg2215
g27
((lp7414
I0
atRp7415
sg2216
g27
((lp7416
I0
atRp7417
sg2217
g27
((lp7418
I0
atRp7419
sg2218
g27
((lp7420
I0
atRp7421
sg2219
g27
((lp7422
I0
atRp7423
sg2220
g27
((lp7424
I0
atRp7425
sg2221
g27
((lp7426
I0
atRp7427
sg2222
g27
((lp7428
I0
atRp7429
sg2223
g27
((lp7430
I0
atRp7431
sg2224
g27
((lp7432
I0
atRp7433
sg2225
g27
((lp7434
I0
atRp7435
sg2226
g27
((lp7436
I0
atRp7437
sg2227
g27
((lp7438
I0
atRp7439
sg2228
g27
((lp7440
I0
atRp7441
sg2229
g27
((lp7442
I0
atRp7443
sg2230
g27
((lp7444
I0
atRp7445
sg2231
g27
((lp7446
I0
atRp7447
sg2232
g27
((lp7448
I0
atRp7449
sg2233
g27
((lp7450
I0
atRp7451
sg2234
g27
((lp7452
I0
atRp7453
sg2235
g27
((lp7454
I0
atRp7455
sg2236
g27
((lp7456
I0
atRp7457
sg2237
g27
((lp7458
I0
atRp7459
sg2238
g27
((lp7460
I0
atRp7461
sg2239
g27
((lp7462
I0
atRp7463
sg2240
g27
((lp7464
I0
atRp7465
sg2241
g27
((lp7466
I0
atRp7467
sg2242
g27
((lp7468
I0
atRp7469
sg2243
g27
((lp7470
I0
atRp7471
sg2244
g27
((lp7472
I0
atRp7473
sg2245
g27
((lp7474
I0
atRp7475
sg2246
g27
((lp7476
I0
atRp7477
sg2247
g27
((lp7478
I0
atRp7479
sg2248
g27
((lp7480
I0
atRp7481
sg2249
g27
((lp7482
I0
atRp7483
sg2250
g27
((lp7484
I0
atRp7485
sg2251
g27
((lp7486
I0
atRp7487
sg2252
g27
((lp7488
I0
atRp7489
sg2253
g27
((lp7490
I0
atRp7491
sg2254
g27
((lp7492
I0
atRp7493
sg2255
g27
((lp7494
I0
atRp7495
sg2256
g27
((lp7496
I0
atRp7497
sg2257
g27
((lp7498
I0
atRp7499
sg2258
g27
((lp7500
I0
atRp7501
sg2259
g27
((lp7502
I0
atRp7503
sg2260
g27
((lp7504
I0
atRp7505
sg2261
g27
((lp7506
I0
atRp7507
sg2262
g27
((lp7508
I0
atRp7509
sg2263
g27
((lp7510
I0
atRp7511
sg2264
g27
((lp7512
I0
atRp7513
sg2265
g27
((lp7514
I0
atRp7515
sg2266
g27
((lp7516
I0
atRp7517
sg2267
g27
((lp7518
I0
atRp7519
sg2268
g27
((lp7520
I0
atRp7521
sg2269
g27
((lp7522
I0
atRp7523
sg2270
g27
((lp7524
I0
atRp7525
sg2271
g27
((lp7526
I0
atRp7527
sg2272
g27
((lp7528
I0
atRp7529
sg2273
g27
((lp7530
I0
atRp7531
sg2274
g27
((lp7532
I0
atRp7533
sg2275
g27
((lp7534
I0
atRp7535
sg2276
g27
((lp7536
I0
atRp7537
sg2277
g27
((lp7538
I0
atRp7539
sg2278
g27
((lp7540
I0
atRp7541
sg2279
g27
((lp7542
I0
atRp7543
sg2280
g27
((lp7544
I0
atRp7545
sg2281
g27
((lp7546
I0
atRp7547
sg2282
g27
((lp7548
I0
atRp7549
sg2283
g27
((lp7550
I0
atRp7551
sg2284
g27
((lp7552
I0
atRp7553
sg2285
g27
((lp7554
I0
atRp7555
sg2286
g27
((lp7556
I0
atRp7557
sg2287
g27
((lp7558
I0
atRp7559
sg2288
g27
((lp7560
I0
atRp7561
sg2289
g27
((lp7562
I0
atRp7563
sg2290
g27
((lp7564
I0
atRp7565
sg2291
g27
((lp7566
I0
atRp7567
sg2292
g27
((lp7568
I0
atRp7569
sg2293
g27
((lp7570
I0
atRp7571
sg2294
g27
((lp7572
I0
atRp7573
sg2295
g27
((lp7574
I0
atRp7575
sg2296
g27
((lp7576
I0
atRp7577
sg2297
g27
((lp7578
I0
atRp7579
sg2298
g27
((lp7580
I0
atRp7581
sg2299
g27
((lp7582
I0
atRp7583
sg2300
g27
((lp7584
I0
atRp7585
sg2301
g27
((lp7586
I0
atRp7587
sg2302
g27
((lp7588
I0
atRp7589
sg2303
g27
((lp7590
I0
atRp7591
sg2304
g27
((lp7592
I0
atRp7593
sg2305
g27
((lp7594
I0
atRp7595
sg2306
g27
((lp7596
I0
atRp7597
sg2307
g27
((lp7598
I0
atRp7599
sg2308
g27
((lp7600
I0
atRp7601
sg2309
g27
((lp7602
I0
atRp7603
sg2310
g27
((lp7604
I0
atRp7605
sg2311
g27
((lp7606
I0
atRp7607
sg2312
g27
((lp7608
I0
atRp7609
sg2313
g27
((lp7610
I0
atRp7611
sg2314
g27
((lp7612
I0
atRp7613
sg2315
g27
((lp7614
I0
atRp7615
sg2316
g27
((lp7616
I0
atRp7617
sg2317
g27
((lp7618
I0
atRp7619
sg2318
g27
((lp7620
I0
atRp7621
sg2319
g27
((lp7622
I0
atRp7623
sg2320
g27
((lp7624
I0
atRp7625
sg2321
g27
((lp7626
I0
atRp7627
sg2322
g27
((lp7628
I0
atRp7629
sg2323
g27
((lp7630
I0
atRp7631
sg2324
g27
((lp7632
I0
atRp7633
sg2325
g27
((lp7634
I0
atRp7635
sg2326
g27
((lp7636
I0
atRp7637
sg2327
g27
((lp7638
I0
atRp7639
sg2328
g27
((lp7640
I0
atRp7641
sg2329
g27
((lp7642
I0
atRp7643
sg2330
g27
((lp7644
I0
atRp7645
sg2331
g27
((lp7646
I0
atRp7647
sg2332
g27
((lp7648
I0
atRp7649
sg2333
g27
((lp7650
I0
atRp7651
sg2334
g27
((lp7652
I0
atRp7653
sg2335
g27
((lp7654
I0
atRp7655
sg2336
g27
((lp7656
I0
atRp7657
sg2337
g27
((lp7658
I0
atRp7659
sg2338
g27
((lp7660
I0
atRp7661
sg2339
g27
((lp7662
I0
atRp7663
sg2340
g27
((lp7664
I0
atRp7665
sg2341
g27
((lp7666
I0
atRp7667
sg2342
g27
((lp7668
I0
atRp7669
sg2343
g27
((lp7670
I0
atRp7671
sg2344
g27
((lp7672
I0
atRp7673
sg2345
g27
((lp7674
I0
atRp7675
sg2346
g27
((lp7676
I0
atRp7677
sg2347
g27
((lp7678
I0
atRp7679
sg2348
g27
((lp7680
I0
atRp7681
sg2349
g27
((lp7682
I0
atRp7683
sg2350
g27
((lp7684
I0
atRp7685
sg2351
g27
((lp7686
I0
atRp7687
sg2352
g27
((lp7688
I0
atRp7689
sg2353
g27
((lp7690
I0
atRp7691
sg2354
g27
((lp7692
I0
atRp7693
sg2355
g27
((lp7694
I0
atRp7695
sg2356
g27
((lp7696
I0
atRp7697
sg2357
g27
((lp7698
I0
atRp7699
sg2358
g27
((lp7700
I0
atRp7701
sg2359
g27
((lp7702
I0
atRp7703
sg2360
g27
((lp7704
I0
atRp7705
sg2361
g27
((lp7706
I0
atRp7707
sg2362
g27
((lp7708
I0
atRp7709
sg2363
g27
((lp7710
I0
atRp7711
sg2364
g27
((lp7712
I0
atRp7713
sg2365
g27
((lp7714
I0
atRp7715
sg2366
g27
((lp7716
I0
atRp7717
sg2367
g27
((lp7718
I0
atRp7719
sg2368
g27
((lp7720
I0
atRp7721
sg2369
g27
((lp7722
I0
atRp7723
sg2370
g27
((lp7724
I0
atRp7725
sg2371
g27
((lp7726
I0
atRp7727
sg2372
g27
((lp7728
I0
atRp7729
sg2373
g27
((lp7730
I0
atRp7731
sg2374
g27
((lp7732
I0
atRp7733
sg2375
g27
((lp7734
I0
atRp7735
sg2376
g27
((lp7736
I0
atRp7737
sg2377
g27
((lp7738
I0
atRp7739
sg2378
g27
((lp7740
I0
atRp7741
sg2379
g27
((lp7742
I0
atRp7743
sg2380
g27
((lp7744
I0
atRp7745
sg2381
g27
((lp7746
I0
atRp7747
sg2382
g27
((lp7748
I0
atRp7749
sS'8'
g27
((lp7750
I0
atRp7751
sg2383
g27
((lp7752
I0
atRp7753
sg2384
g27
((lp7754
I0
atRp7755
sg2385
g27
((lp7756
I0
atRp7757
sg2386
g27
((lp7758
I0
atRp7759
sg2387
g27
((lp7760
I0
atRp7761
sg2388
g27
((lp7762
I0
atRp7763
sg2389
g27
((lp7764
I0
atRp7765
sg2390
g27
((lp7766
I0
atRp7767
sg2391
g27
((lp7768
I0
atRp7769
sg2392
g27
((lp7770
I0
atRp7771
sg2393
g27
((lp7772
I0
atRp7773
sg2394
g27
((lp7774
I0
atRp7775
sg2395
g27
((lp7776
I0
atRp7777
sg2396
g27
((lp7778
I0
atRp7779
sg2397
g27
((lp7780
I0
atRp7781
sg2398
g27
((lp7782
I0
atRp7783
sg2399
g27
((lp7784
I0
atRp7785
sg2400
g27
((lp7786
I0
atRp7787
sg2401
g27
((lp7788
I0
atRp7789
sg2402
g27
((lp7790
I0
atRp7791
sg2403
g27
((lp7792
I0
atRp7793
sg2404
g27
((lp7794
I0
atRp7795
sg2405
g27
((lp7796
I0
atRp7797
sg2406
g27
((lp7798
I0
atRp7799
sg2407
g27
((lp7800
I0
atRp7801
sg2408
g27
((lp7802
I0
atRp7803
sg2409
g27
((lp7804
I0
atRp7805
sg2410
g27
((lp7806
I0
atRp7807
sg2411
g27
((lp7808
I0
atRp7809
sg2412
g27
((lp7810
I0
atRp7811
sg2413
g27
((lp7812
I0
atRp7813
sg2414
g27
((lp7814
I0
atRp7815
sg2415
g27
((lp7816
I0
atRp7817
sg2416
g27
((lp7818
I0
atRp7819
sg2417
g27
((lp7820
I0
atRp7821
sg2418
g27
((lp7822
I0
atRp7823
sg2419
g27
((lp7824
I0
atRp7825
sg2420
g27
((lp7826
I0
atRp7827
sg2421
g27
((lp7828
I0
atRp7829
sg2422
g27
((lp7830
I0
atRp7831
sg2423
g27
((lp7832
I0
atRp7833
sg2424
g27
((lp7834
I0
atRp7835
sg2425
g27
((lp7836
I0
atRp7837
sg2426
g27
((lp7838
I0
atRp7839
sg2427
g27
((lp7840
I0
atRp7841
sg2428
g27
((lp7842
I0
atRp7843
sg2429
g27
((lp7844
I0
atRp7845
sg2430
g27
((lp7846
I0
atRp7847
sg2431
g27
((lp7848
I0
atRp7849
sg2432
g27
((lp7850
I0
atRp7851
sg2433
g27
((lp7852
I0
atRp7853
sg2434
g27
((lp7854
I0
atRp7855
sg2435
g27
((lp7856
I0
atRp7857
sg2436
g27
((lp7858
I0
atRp7859
sg2437
g27
((lp7860
I0
atRp7861
sg2438
g27
((lp7862
I0
atRp7863
sg2439
g27
((lp7864
I0
atRp7865
sg2440
g27
((lp7866
I0
atRp7867
sg2441
g27
((lp7868
I0
atRp7869
sg2442
g27
((lp7870
I0
atRp7871
sg2443
g27
((lp7872
I0
atRp7873
sg2444
g27
((lp7874
I0
atRp7875
sg2445
g27
((lp7876
I0
atRp7877
sg2446
g27
((lp7878
I0
atRp7879
sg2447
g27
((lp7880
I0
atRp7881
sg2448
g27
((lp7882
I0
atRp7883
sg2449
g27
((lp7884
I0
atRp7885
sg2450
g27
((lp7886
I0
atRp7887
sg2451
g27
((lp7888
I0
atRp7889
sg2452
g27
((lp7890
I0
atRp7891
sg2453
g27
((lp7892
I0
atRp7893
sg2454
g27
((lp7894
I0
atRp7895
sg2455
g27
((lp7896
I0
atRp7897
sg2456
g27
((lp7898
I0
atRp7899
sg2457
g27
((lp7900
I0
atRp7901
sg2458
g27
((lp7902
I0
atRp7903
sg2459
g27
((lp7904
I0
atRp7905
sg2460
g27
((lp7906
I0
atRp7907
sg2461
g27
((lp7908
I0
atRp7909
sg2462
g27
((lp7910
I0
atRp7911
sg2463
g27
((lp7912
I0
atRp7913
sg2464
g27
((lp7914
I0
atRp7915
sg2465
g27
((lp7916
I0
atRp7917
sg2466
g27
((lp7918
I0
atRp7919
sg2467
g27
((lp7920
I0
atRp7921
sg2468
g27
((lp7922
I0
atRp7923
sg2469
g27
((lp7924
I0
atRp7925
sg2470
g27
((lp7926
I0
atRp7927
sg2471
g27
((lp7928
I0
atRp7929
sg2472
g27
((lp7930
I0
atRp7931
sg2473
g27
((lp7932
I0
atRp7933
sg2474
g27
((lp7934
I0
atRp7935
sg2475
g27
((lp7936
I0
atRp7937
sg2476
g27
((lp7938
I0
atRp7939
sg2477
g27
((lp7940
I0
atRp7941
sg2478
g27
((lp7942
I0
atRp7943
sg2479
g27
((lp7944
I0
atRp7945
sg2480
g27
((lp7946
I0
atRp7947
sg2481
g27
((lp7948
I0
atRp7949
sg2482
g27
((lp7950
I0
atRp7951
sg2483
g27
((lp7952
I0
atRp7953
sg2484
g27
((lp7954
I0
atRp7955
sg2485
g27
((lp7956
I0
atRp7957
sg2486
g27
((lp7958
I0
atRp7959
sg2487
g27
((lp7960
I0
atRp7961
sg2488
g27
((lp7962
I0
atRp7963
sg2489
g27
((lp7964
I0
atRp7965
sg2490
g27
((lp7966
I0
atRp7967
sg2491
g27
((lp7968
I0
atRp7969
sg2492
g27
((lp7970
I0
atRp7971
sg2493
g27
((lp7972
I0
atRp7973
sg2494
g27
((lp7974
I0
atRp7975
sg2495
g27
((lp7976
I0
atRp7977
sg2496
g27
((lp7978
I0
atRp7979
sg2497
g27
((lp7980
I0
atRp7981
sg2498
g27
((lp7982
I0
atRp7983
sg2499
g27
((lp7984
I0
atRp7985
sg2500
g27
((lp7986
I0
atRp7987
sg2501
g27
((lp7988
I0
atRp7989
sg2502
g27
((lp7990
I0
atRp7991
sg2503
g27
((lp7992
I0
atRp7993
sg2504
g27
((lp7994
I0
atRp7995
sg2505
g27
((lp7996
I0
atRp7997
sg2506
g27
((lp7998
I0
atRp7999
sg2507
g27
((lp8000
I0
atRp8001
sg2508
g27
((lp8002
I0
atRp8003
sg2509
g27
((lp8004
I0
atRp8005
sg2510
g27
((lp8006
I0
atRp8007
sg2511
g27
((lp8008
I0
atRp8009
sg2512
g27
((lp8010
I0
atRp8011
sg2513
g27
((lp8012
I0
atRp8013
sg2514
g27
((lp8014
I0
atRp8015
sg2515
g27
((lp8016
I0
atRp8017
sg2516
g27
((lp8018
I0
atRp8019
sg2517
g27
((lp8020
I0
atRp8021
sg2518
g27
((lp8022
I0
atRp8023
sg2519
g27
((lp8024
I0
atRp8025
sg2520
g27
((lp8026
I0
atRp8027
sg2521
g27
((lp8028
I0
atRp8029
sg2522
g27
((lp8030
I0
atRp8031
sg2523
g27
((lp8032
I0
atRp8033
sg2524
g27
((lp8034
I0
atRp8035
sg2525
g27
((lp8036
I0
atRp8037
sg2526
g27
((lp8038
I0
atRp8039
sg2527
g27
((lp8040
I0
atRp8041
sg2528
g27
((lp8042
I0
atRp8043
sg2529
g27
((lp8044
I0
atRp8045
sg2530
g27
((lp8046
I0
atRp8047
sg2531
g27
((lp8048
I0
atRp8049
sg2532
g27
((lp8050
I0
atRp8051
sg2533
g27
((lp8052
I0
atRp8053
sg2534
g27
((lp8054
I0
atRp8055
sg2535
g27
((lp8056
I0
atRp8057
sg2536
g27
((lp8058
I0
atRp8059
sg2537
g27
((lp8060
I0
atRp8061
sg2538
g27
((lp8062
I0
atRp8063
sg2539
g27
((lp8064
I0
atRp8065
sg2540
g27
((lp8066
I0
atRp8067
sg2541
g27
((lp8068
I0
atRp8069
sg2542
g27
((lp8070
I0
atRp8071
sg2543
g27
((lp8072
I0
atRp8073
sg2544
g27
((lp8074
I0
atRp8075
sg2545
g27
((lp8076
I0
atRp8077
sg2546
g27
((lp8078
I0
atRp8079
sg2547
g27
((lp8080
I0
atRp8081
sg2548
g27
((lp8082
I0
atRp8083
sg2549
g27
((lp8084
I0
atRp8085
sg2550
g27
((lp8086
I0
atRp8087
sg2551
g27
((lp8088
I0
atRp8089
sg2552
g27
((lp8090
I0
atRp8091
sg2553
g27
((lp8092
I0
atRp8093
sg2554
g27
((lp8094
I0
atRp8095
sg2555
g27
((lp8096
I0
atRp8097
sg2556
g27
((lp8098
I0
atRp8099
sg2557
g27
((lp8100
I0
atRp8101
sg2558
g27
((lp8102
I0
atRp8103
sg2559
g27
((lp8104
I0
atRp8105
sg2560
g27
((lp8106
I0
atRp8107
sg2561
g27
((lp8108
I0
atRp8109
sg2562
g27
((lp8110
I0
atRp8111
sg2563
g27
((lp8112
I0
atRp8113
sg2564
g27
((lp8114
I0
atRp8115
sg2565
g27
((lp8116
I0
atRp8117
sg2566
g27
((lp8118
I0
atRp8119
sg2567
g27
((lp8120
I0
atRp8121
sg2568
g27
((lp8122
I0
atRp8123
sg2569
g27
((lp8124
I0
atRp8125
sg2570
g27
((lp8126
I0
atRp8127
sg2571
g27
((lp8128
I0
atRp8129
sg2572
g27
((lp8130
I0
atRp8131
sg2573
g27
((lp8132
I0
atRp8133
sg2574
g27
((lp8134
I0
atRp8135
sg2575
g27
((lp8136
I0
atRp8137
sg2576
g27
((lp8138
I0
atRp8139
sg2577
g27
((lp8140
I0
atRp8141
sg2578
g27
((lp8142
I0
atRp8143
sg2579
g27
((lp8144
I0
atRp8145
sg2580
g27
((lp8146
I0
atRp8147
sg2581
g27
((lp8148
I0
atRp8149
sg2582
g27
((lp8150
I0
atRp8151
sg2583
g27
((lp8152
I0
atRp8153
sg2584
g27
((lp8154
I0
atRp8155
sg2585
g27
((lp8156
I0
atRp8157
sg2586
g27
((lp8158
I0
atRp8159
sg2587
g27
((lp8160
I0
atRp8161
sg2588
g27
((lp8162
I0
atRp8163
sg2589
g27
((lp8164
I0
atRp8165
sg2590
g27
((lp8166
I0
atRp8167
sg2591
g27
((lp8168
I0
atRp8169
sg2592
g27
((lp8170
I0
atRp8171
sg2593
g27
((lp8172
I0
atRp8173
sg2594
g27
((lp8174
I0
atRp8175
sg2595
g27
((lp8176
I0
atRp8177
sg2596
g27
((lp8178
I0
atRp8179
sg2597
g27
((lp8180
I0
atRp8181
sg2598
g27
((lp8182
I0
atRp8183
sg2599
g27
((lp8184
I0
atRp8185
sg2600
g27
((lp8186
I0
atRp8187
sg2601
g27
((lp8188
I0
atRp8189
sg2602
g27
((lp8190
I0
atRp8191
sg2603
g27
((lp8192
I0
atRp8193
sg2604
g27
((lp8194
I0
atRp8195
sg2605
g27
((lp8196
I0
atRp8197
sg2606
g27
((lp8198
I0
atRp8199
sg2607
g27
((lp8200
I0
atRp8201
sg2608
g27
((lp8202
I0
atRp8203
sg2609
g27
((lp8204
I0
atRp8205
sg2610
g27
((lp8206
I0
atRp8207
sg2611
g27
((lp8208
I0
atRp8209
sg2612
g27
((lp8210
I0
atRp8211
sg2613
g27
((lp8212
I0
atRp8213
sg2614
g27
((lp8214
I0
atRp8215
sg2615
g27
((lp8216
I0
atRp8217
sg2616
g27
((lp8218
I0
atRp8219
sg2617
g27
((lp8220
I0
atRp8221
sg2618
g27
((lp8222
I0
atRp8223
sg2619
g27
((lp8224
I0
atRp8225
sg2620
g27
((lp8226
I0
atRp8227
sg2621
g27
((lp8228
I0
atRp8229
sg2622
g27
((lp8230
I0
atRp8231
sg2623
g27
((lp8232
I0
atRp8233
sg2624
g27
((lp8234
I0
atRp8235
sg2625
g27
((lp8236
I0
atRp8237
sg2626
g27
((lp8238
I0
atRp8239
sg2627
g27
((lp8240
I0
atRp8241
sg2628
g27
((lp8242
I0
atRp8243
sg2629
g27
((lp8244
I0
atRp8245
sg2630
g27
((lp8246
I0
atRp8247
sg2631
g27
((lp8248
I0
atRp8249
sg2632
g27
((lp8250
I0
atRp8251
sg2633
g27
((lp8252
I0
atRp8253
sg2634
g27
((lp8254
I0
atRp8255
sg2635
g27
((lp8256
I0
atRp8257
sg2636
g27
((lp8258
I0
atRp8259
sg2637
g27
((lp8260
I0
atRp8261
sg2638
g27
((lp8262
I0
atRp8263
sg2639
g27
((lp8264
I0
atRp8265
sg2640
g27
((lp8266
I0
atRp8267
sg2641
g27
((lp8268
I0
atRp8269
sg2642
g27
((lp8270
I0
atRp8271
sg2643
g27
((lp8272
I0
atRp8273
sg2644
g27
((lp8274
I0
atRp8275
sg2645
g27
((lp8276
I0
atRp8277
sg2646
g27
((lp8278
I0
atRp8279
sg2647
g27
((lp8280
I0
atRp8281
sg2648
g27
((lp8282
I0
atRp8283
sg2649
g27
((lp8284
I0
atRp8285
sg2650
g27
((lp8286
I0
atRp8287
sg2651
g27
((lp8288
I0
atRp8289
sg2652
g27
((lp8290
I0
atRp8291
sg2653
g27
((lp8292
I0
atRp8293
sg2654
g27
((lp8294
I0
atRp8295
sg2655
g27
((lp8296
I0
atRp8297
sg2656
g27
((lp8298
I0
atRp8299
sg2657
g27
((lp8300
I0
atRp8301
sg2658
g27
((lp8302
I0
atRp8303
sg2659
g27
((lp8304
I0
atRp8305
sg2660
g27
((lp8306
I0
atRp8307
sg2661
g27
((lp8308
I0
atRp8309
sg2662
g27
((lp8310
I0
atRp8311
sg2663
g27
((lp8312
I0
atRp8313
sg2664
g27
((lp8314
I0
atRp8315
sg2665
g27
((lp8316
I0
atRp8317
sg2666
g27
((lp8318
I0
atRp8319
sg2667
g27
((lp8320
I0
atRp8321
sg2668
g27
((lp8322
I0
atRp8323
sg2669
g27
((lp8324
I0
atRp8325
sg2670
g27
((lp8326
I0
atRp8327
sg2671
g27
((lp8328
I0
atRp8329
sg2672
g27
((lp8330
I0
atRp8331
sg2673
g27
((lp8332
I0
atRp8333
sg2674
g27
((lp8334
I0
atRp8335
sg2675
g27
((lp8336
I0
atRp8337
sg2676
g27
((lp8338
I0
atRp8339
sg2677
g27
((lp8340
I0
atRp8341
sg2678
g27
((lp8342
I0
atRp8343
sg2679
g27
((lp8344
I0
atRp8345
sg2680
g27
((lp8346
I0
atRp8347
sg2681
g27
((lp8348
I0
atRp8349
sg2682
g27
((lp8350
I0
atRp8351
sg2683
g27
((lp8352
I0
atRp8353
sg2684
g27
((lp8354
I0
atRp8355
sg2685
g27
((lp8356
I0
atRp8357
sg2686
g27
((lp8358
I0
atRp8359
sg2687
g27
((lp8360
I0
atRp8361
sg2688
g27
((lp8362
I0
atRp8363
sg2689
g27
((lp8364
I0
atRp8365
sg2690
g27
((lp8366
I0
atRp8367
sg2691
g27
((lp8368
I0
atRp8369
sg2692
g27
((lp8370
I0
atRp8371
sg2693
g27
((lp8372
I0
atRp8373
sg2694
g27
((lp8374
I0
atRp8375
sg2695
g27
((lp8376
I0
atRp8377
sg2696
g27
((lp8378
I0
atRp8379
sg2697
g27
((lp8380
I0
atRp8381
sg2698
g27
((lp8382
I0
atRp8383
sg2699
g27
((lp8384
I0
atRp8385
sg2700
g27
((lp8386
I0
atRp8387
sg2701
g27
((lp8388
I0
atRp8389
sg2702
g27
((lp8390
I0
atRp8391
sg2703
g27
((lp8392
I0
atRp8393
sg2704
g27
((lp8394
I0
atRp8395
sg2705
g27
((lp8396
I0
atRp8397
sg2706
g27
((lp8398
I0
atRp8399
sg2707
g27
((lp8400
I0
atRp8401
sg2708
g27
((lp8402
I0
atRp8403
sg2709
g27
((lp8404
I0
atRp8405
sg2710
g27
((lp8406
I0
atRp8407
sg2711
g27
((lp8408
I0
atRp8409
sg2712
g27
((lp8410
I0
atRp8411
sg2713
g27
((lp8412
I0
atRp8413
sg2714
g27
((lp8414
I0
atRp8415
sg2715
g27
((lp8416
I0
atRp8417
sg2716
g27
((lp8418
I0
atRp8419
sg2717
g27
((lp8420
I0
atRp8421
sg2718
g27
((lp8422
I0
atRp8423
sg2719
g27
((lp8424
I0
atRp8425
sg2720
g27
((lp8426
I0
atRp8427
sg2721
g27
((lp8428
I0
atRp8429
sg2722
g27
((lp8430
I0
atRp8431
sg2723
g27
((lp8432
I0
atRp8433
sg2724
g27
((lp8434
I0
atRp8435
sg2725
g27
((lp8436
I0
atRp8437
sg2726
g27
((lp8438
I0
atRp8439
sg2727
g27
((lp8440
I0
atRp8441
sg2728
g27
((lp8442
I0
atRp8443
sg2729
g27
((lp8444
I0
atRp8445
sg2730
g27
((lp8446
I0
atRp8447
sg2731
g27
((lp8448
I0
atRp8449
sg2732
g27
((lp8450
I0
atRp8451
sg2733
g27
((lp8452
I0
atRp8453
sg2734
g27
((lp8454
I0
atRp8455
sg2735
g27
((lp8456
I0
atRp8457
sg2736
g27
((lp8458
I0
atRp8459
sg2737
g27
((lp8460
I0
atRp8461
sg2738
g27
((lp8462
I0
atRp8463
sg2739
g27
((lp8464
I0
atRp8465
sg2740
g27
((lp8466
I0
atRp8467
sg2741
g27
((lp8468
I0
atRp8469
sg2742
g27
((lp8470
I0
atRp8471
sg2743
g27
((lp8472
I0
atRp8473
sg2744
g27
((lp8474
I0
atRp8475
sg2745
g27
((lp8476
I0
atRp8477
sg2746
g27
((lp8478
I0
atRp8479
sg2747
g27
((lp8480
I0
atRp8481
sg2748
g27
((lp8482
I0
atRp8483
sg2749
g27
((lp8484
I0
atRp8485
sg2750
g27
((lp8486
I0
atRp8487
sg2751
g27
((lp8488
I0
atRp8489
sg2752
g27
((lp8490
I0
atRp8491
sg2753
g27
((lp8492
I0
atRp8493
sg2754
g27
((lp8494
I0
atRp8495
sg2755
g27
((lp8496
I0
atRp8497
sg2756
g27
((lp8498
I0
atRp8499
sg2757
g27
((lp8500
I0
atRp8501
sg2758
g27
((lp8502
I0
atRp8503
sg2759
g27
((lp8504
I0
atRp8505
sg2760
g27
((lp8506
I0
atRp8507
sg2761
g27
((lp8508
I0
atRp8509
sg2762
g27
((lp8510
I0
atRp8511
sg2763
g27
((lp8512
I0
atRp8513
sg2764
g27
((lp8514
I0
atRp8515
sg2765
g27
((lp8516
I0
atRp8517
sg2766
g27
((lp8518
I0
atRp8519
sg2767
g27
((lp8520
I0
atRp8521
sg2768
g27
((lp8522
I0
atRp8523
sg2769
g27
((lp8524
I0
atRp8525
sg2770
g27
((lp8526
I0
atRp8527
sg2771
g27
((lp8528
I0
atRp8529
sg2772
g27
((lp8530
I0
atRp8531
sg2773
g27
((lp8532
I0
atRp8533
sg2774
g27
((lp8534
I0
atRp8535
sg2775
g27
((lp8536
I0
atRp8537
sg2776
g27
((lp8538
I0
atRp8539
sg2777
g27
((lp8540
I0
atRp8541
sg2778
g27
((lp8542
I0
atRp8543
sg2779
g27
((lp8544
I0
atRp8545
sg2780
g27
((lp8546
I0
atRp8547
sg2781
g27
((lp8548
I0
atRp8549
sg2782
g27
((lp8550
I0
atRp8551
sg2783
g27
((lp8552
I0
atRp8553
sg2784
g27
((lp8554
I0
atRp8555
sg2785
g27
((lp8556
I0
atRp8557
sg2786
g27
((lp8558
I0
atRp8559
sg2787
g27
((lp8560
I0
atRp8561
sg2788
g27
((lp8562
I0
atRp8563
sg2789
g27
((lp8564
I0
atRp8565
sS'5'
g27
((lp8566
I0
atRp8567
sg2790
g27
((lp8568
I0
atRp8569
sg2791
g27
((lp8570
I0
atRp8571
sg2792
g27
((lp8572
I0
atRp8573
sg2793
g27
((lp8574
I0
atRp8575
sg2794
g27
((lp8576
I0
atRp8577
sg2795
g27
((lp8578
I0
atRp8579
sg2796
g27
((lp8580
I0
atRp8581
sg2797
g27
((lp8582
I0
atRp8583
sg2798
g27
((lp8584
I0
atRp8585
sg2799
g27
((lp8586
I0
atRp8587
sg2800
g27
((lp8588
I0
atRp8589
sg2801
g27
((lp8590
I0
atRp8591
sg2802
g27
((lp8592
I0
atRp8593
sg2803
g27
((lp8594
I0
atRp8595
sg2804
g27
((lp8596
I0
atRp8597
sg2805
g27
((lp8598
I0
atRp8599
sg2806
g27
((lp8600
I0
atRp8601
sg2807
g27
((lp8602
I0
atRp8603
sg2808
g27
((lp8604
I0
atRp8605
sg2809
g27
((lp8606
I0
atRp8607
sg2810
g27
((lp8608
I0
atRp8609
sg2811
g27
((lp8610
I0
atRp8611
sg2812
g27
((lp8612
I0
atRp8613
sg2813
g27
((lp8614
I0
atRp8615
sg2814
g27
((lp8616
I0
atRp8617
sg2815
g27
((lp8618
I0
atRp8619
sg2816
g27
((lp8620
I0
atRp8621
sg2817
g27
((lp8622
I0
atRp8623
sg2818
g27
((lp8624
I0
atRp8625
sg2819
g27
((lp8626
I0
atRp8627
sg2820
g27
((lp8628
I0
atRp8629
sg2821
g27
((lp8630
I0
atRp8631
sg2822
g27
((lp8632
I0
atRp8633
sg2823
g27
((lp8634
I0
atRp8635
sg2824
g27
((lp8636
I0
atRp8637
sg2825
g27
((lp8638
I0
atRp8639
sg2826
g27
((lp8640
I0
atRp8641
sg2827
g27
((lp8642
I0
atRp8643
sg2828
g27
((lp8644
I0
atRp8645
sg2829
g27
((lp8646
I0
atRp8647
sg2830
g27
((lp8648
I0
atRp8649
sg2831
g27
((lp8650
I0
atRp8651
sg2832
g27
((lp8652
I0
atRp8653
sg2833
g27
((lp8654
I0
atRp8655
sg2834
g27
((lp8656
I0
atRp8657
sg2835
g27
((lp8658
I0
atRp8659
sg2836
g27
((lp8660
I0
atRp8661
sg2837
g27
((lp8662
I0
atRp8663
sg2838
g27
((lp8664
I0
atRp8665
sg2839
g27
((lp8666
I0
atRp8667
sg2840
g27
((lp8668
I0
atRp8669
sg2841
g27
((lp8670
I0
atRp8671
sg2842
g27
((lp8672
I0
atRp8673
sg2843
g27
((lp8674
I0
atRp8675
sg2844
g27
((lp8676
I0
atRp8677
sg2845
g27
((lp8678
I0
atRp8679
sg2846
g27
((lp8680
I0
atRp8681
sg2847
g27
((lp8682
I0
atRp8683
sg2848
g27
((lp8684
I0
atRp8685
sg2849
g27
((lp8686
I0
atRp8687
sg2850
g27
((lp8688
I0
atRp8689
sg2851
g27
((lp8690
I0
atRp8691
sg2852
g27
((lp8692
I0
atRp8693
sg2853
g27
((lp8694
I0
atRp8695
sg2854
g27
((lp8696
I0
atRp8697
sg2855
g27
((lp8698
I0
atRp8699
sg2856
g27
((lp8700
I0
atRp8701
sg2857
g27
((lp8702
I0
atRp8703
sg2858
g27
((lp8704
I0
atRp8705
sg2859
g27
((lp8706
I0
atRp8707
sg2860
g27
((lp8708
I0
atRp8709
sg2861
g27
((lp8710
I0
atRp8711
sg2862
g27
((lp8712
I0
atRp8713
sg2863
g27
((lp8714
I0
atRp8715
sg2864
g27
((lp8716
I0
atRp8717
sg2865
g27
((lp8718
I0
atRp8719
sg2866
g27
((lp8720
I0
atRp8721
sg2867
g27
((lp8722
I0
atRp8723
sg2868
g27
((lp8724
I0
atRp8725
sg2869
g27
((lp8726
I0
atRp8727
sg2870
g27
((lp8728
I0
atRp8729
sg2871
g27
((lp8730
I0
atRp8731
sg2872
g27
((lp8732
I0
atRp8733
sg2873
g27
((lp8734
I0
atRp8735
sg2874
g27
((lp8736
I0
atRp8737
sg2875
g27
((lp8738
I0
atRp8739
sg2876
g27
((lp8740
I0
atRp8741
sg2877
g27
((lp8742
I0
atRp8743
sg2878
g27
((lp8744
I0
atRp8745
sg2879
g27
((lp8746
I0
atRp8747
sg2880
g27
((lp8748
I0
atRp8749
sg2881
g27
((lp8750
I0
atRp8751
sg2882
g27
((lp8752
I0
atRp8753
sg2883
g27
((lp8754
I0
atRp8755
sg2884
g27
((lp8756
I0
atRp8757
sg2885
g27
((lp8758
I0
atRp8759
sg2886
g27
((lp8760
I0
atRp8761
sg2887
g27
((lp8762
I0
atRp8763
sg2888
g27
((lp8764
I0
atRp8765
sg2889
g27
((lp8766
I0
atRp8767
sg2890
g27
((lp8768
I0
atRp8769
sg2891
g27
((lp8770
I0
atRp8771
sg2892
g27
((lp8772
I0
atRp8773
sg2893
g27
((lp8774
I0
atRp8775
sg2894
g27
((lp8776
I0
atRp8777
sg2895
g27
((lp8778
I0
atRp8779
sg2896
g27
((lp8780
I0
atRp8781
sg2897
g27
((lp8782
I0
atRp8783
sg2898
g27
((lp8784
I0
atRp8785
sg2899
g27
((lp8786
I0
atRp8787
sg2900
g27
((lp8788
I0
atRp8789
sg2901
g27
((lp8790
I0
atRp8791
sg2902
g27
((lp8792
I0
atRp8793
sg2903
g27
((lp8794
I0
atRp8795
sg2904
g27
((lp8796
I0
atRp8797
sg2905
g27
((lp8798
I0
atRp8799
sg2906
g27
((lp8800
I0
atRp8801
sg2907
g27
((lp8802
I0
atRp8803
sg2908
g27
((lp8804
I0
atRp8805
sg2909
g27
((lp8806
I0
atRp8807
sg2910
g27
((lp8808
I0
atRp8809
sg2911
g27
((lp8810
I0
atRp8811
sg2912
g27
((lp8812
I0
atRp8813
sg2913
g27
((lp8814
I0
atRp8815
sg2914
g27
((lp8816
I0
atRp8817
sg2915
g27
((lp8818
I0
atRp8819
sg2916
g27
((lp8820
I0
atRp8821
sg2917
g27
((lp8822
I0
atRp8823
sg2918
g27
((lp8824
I0
atRp8825
sg2919
g27
((lp8826
I0
atRp8827
sg2920
g27
((lp8828
I0
atRp8829
sg2921
g27
((lp8830
I0
atRp8831
sg2922
g27
((lp8832
I0
atRp8833
sg2923
g27
((lp8834
I0
atRp8835
sg2924
g27
((lp8836
I0
atRp8837
sg2925
g27
((lp8838
I0
atRp8839
sg2926
g27
((lp8840
I0
atRp8841
sg2927
g27
((lp8842
I0
atRp8843
sg2928
g27
((lp8844
I0
atRp8845
sg2929
g27
((lp8846
I0
atRp8847
sg2930
g27
((lp8848
I0
atRp8849
sg2931
g27
((lp8850
I0
atRp8851
sg2932
g27
((lp8852
I0
atRp8853
sg2933
g27
((lp8854
I0
atRp8855
sg2934
g27
((lp8856
I0
atRp8857
sg2935
g27
((lp8858
I0
atRp8859
sg2936
g27
((lp8860
I0
atRp8861
sg2937
g27
((lp8862
I0
atRp8863
sg2938
g27
((lp8864
I0
atRp8865
sg2939
g27
((lp8866
I0
atRp8867
sg2940
g27
((lp8868
I0
atRp8869
sg2941
g27
((lp8870
I0
atRp8871
sg2942
g27
((lp8872
I0
atRp8873
sg2943
g27
((lp8874
I0
atRp8875
sg2944
g27
((lp8876
I0
atRp8877
sg2945
g27
((lp8878
I0
atRp8879
sg2946
g27
((lp8880
I0
atRp8881
sg2947
g27
((lp8882
I0
atRp8883
sg2948
g27
((lp8884
I0
atRp8885
sg2949
g27
((lp8886
I0
atRp8887
sg2950
g27
((lp8888
I0
atRp8889
sg2951
g27
((lp8890
I0
atRp8891
sg2952
g27
((lp8892
I0
atRp8893
sg2953
g27
((lp8894
I0
atRp8895
sg2954
g27
((lp8896
I0
atRp8897
sg2955
g27
((lp8898
I0
atRp8899
sg2956
g27
((lp8900
I0
atRp8901
sg2957
g27
((lp8902
I0
atRp8903
sg2958
g27
((lp8904
I0
atRp8905
sg2959
g27
((lp8906
I0
atRp8907
sg2960
g27
((lp8908
I0
atRp8909
sg2961
g27
((lp8910
I0
atRp8911
sg2962
g27
((lp8912
I0
atRp8913
sg2963
g27
((lp8914
I0
atRp8915
sg2964
g27
((lp8916
I0
atRp8917
sg2965
g27
((lp8918
I0
atRp8919
sg2966
g27
((lp8920
I0
atRp8921
sg2967
g27
((lp8922
I0
atRp8923
sg2968
g27
((lp8924
I0
atRp8925
sg2969
g27
((lp8926
I0
atRp8927
sg2970
g27
((lp8928
I0
atRp8929
sg2971
g27
((lp8930
I0
atRp8931
sg2972
g27
((lp8932
I0
atRp8933
sg2973
g27
((lp8934
I0
atRp8935
sg2974
g27
((lp8936
I0
atRp8937
sg2975
g27
((lp8938
I0
atRp8939
sg2976
g27
((lp8940
I0
atRp8941
sg2977
g27
((lp8942
I0
atRp8943
sg2978
g27
((lp8944
I0
atRp8945
sg2979
g27
((lp8946
I0
atRp8947
sg2980
g27
((lp8948
I0
atRp8949
sg2981
g27
((lp8950
I0
atRp8951
sg2982
g27
((lp8952
I0
atRp8953
sg2983
g27
((lp8954
I0
atRp8955
sg2984
g27
((lp8956
I0
atRp8957
sg2985
g27
((lp8958
I0
atRp8959
sg2986
g27
((lp8960
I0
atRp8961
sg2987
g27
((lp8962
I0
atRp8963
sg2988
g27
((lp8964
I0
atRp8965
sg2989
g27
((lp8966
I0
atRp8967
sg2990
g27
((lp8968
I0
atRp8969
sg2991
g27
((lp8970
I0
atRp8971
sg2992
g27
((lp8972
I0
atRp8973
sg2993
g27
((lp8974
I0
atRp8975
sg2994
g27
((lp8976
I0
atRp8977
sg2995
g27
((lp8978
I0
atRp8979
sg2996
g27
((lp8980
I0
atRp8981
sg2997
g27
((lp8982
I0
atRp8983
sg2998
g27
((lp8984
I0
atRp8985
sg2999
g27
((lp8986
I0
atRp8987
sg3000
g27
((lp8988
I0
atRp8989
sg3001
g27
((lp8990
I0
atRp8991
sg3002
g27
((lp8992
I0
atRp8993
sg3003
g27
((lp8994
I0
atRp8995
sg3004
g27
((lp8996
I0
atRp8997
sg3005
g27
((lp8998
I0
atRp8999
sg3006
g27
((lp9000
I0
atRp9001
sg3007
g27
((lp9002
I0
atRp9003
sg3008
g27
((lp9004
I0
atRp9005
sg3009
g27
((lp9006
I0
atRp9007
sg3010
g27
((lp9008
I0
atRp9009
sg3011
g27
((lp9010
I0
atRp9011
sg3012
g27
((lp9012
I0
atRp9013
sg3013
g27
((lp9014
I0
atRp9015
sg3014
g27
((lp9016
I0
atRp9017
sg3015
g27
((lp9018
I0
atRp9019
sg3016
g27
((lp9020
I0
atRp9021
sg3017
g27
((lp9022
I0
atRp9023
sg3018
g27
((lp9024
I0
atRp9025
sg3019
g27
((lp9026
I0
atRp9027
sg3020
g27
((lp9028
I0
atRp9029
sg3021
g27
((lp9030
I0
atRp9031
ssbs.